

Microchip Technology PIC18 LITE Macro Assembler V2.00 build -1524193055 
                                                                                               Sun Jan 13 22:21:13 2019

Microchip Technology Omniscient Code Generator v2.00 (Free mode) build 20180527130849
     1  0000                     
     2                           ; Version 2.00
     3                           ; Generated 27/05/2018 GMT
     4                           
     5                           ; 
     6                           ; Copyright © 2018, Microchip Technology Inc. and its subsidiaries ("Microchip")
     7                           ; All rights reserved.
     8                           ; 
     9                           ; This software is developed by Microchip Technology Inc. and its subsidiaries ("Microch
                                 ip").
    10                           ; 
    11                           ; Redistribution and use in source and binary forms, with or without modification, are
    12                           ; permitted provided that the following conditions are met:
    13                           ; 
    14                           ;     1. Redistributions of source code must retain the above copyright notice, this lis
                                 t of
    15                           ;        conditions and the following disclaimer.
    16                           ; 
    17                           ;     2. Redistributions in binary form must reproduce the above copyright notice, this 
                                 list
    18                           ;        of conditions and the following disclaimer in the documentation and/or other
    19                           ;        materials provided with the distribution.
    20                           ; 
    21                           ;     3. Microchip's name may not be used to endorse or promote products derived from th
                                 is
    22                           ;        software without specific prior written permission.
    23                           ; 
    24                           ; THIS SOFTWARE IS PROVIDED BY MICROCHIP "AS IS" AND ANY EXPRESS OR IMPLIED WARRANTIES,

    25                           ; INCLUDING, BUT NOT LIMITED TO, THE IMPLIED WARRANTIES OF MERCHANTABILITY AND FITNESS F
                                 OR
    26                           ; PURPOSE ARE DISCLAIMED.  IN NO EVENT SHALL MICROCHIP BE LIABLE FOR ANY DIRECT, INDIREC
                                 T,
    27                           ; INCIDENTAL, SPECIAL, EXEMPLARY, OR CONSEQUENTIAL DAMAGES (INCLUDING BUT NOT LIMITED TO
                                 
    28                           ; PROCUREMENT OF SUBSTITUTE GOODS OR SERVICES; LOSS OF USE, DATA OR PROFITS; OR BUSINESS
                                 
    29                           ; INTERRUPTION) HOWSOEVER CAUSED AND ON ANY THEORY OF LIABILITY, WHETHER IN CONTRACT, ST
                                 RICT
    30                           ; LIABILITY, OR TORT (INCLUDING NEGLIGENCE OR OTHERWISE) ARISING IN ANY WAY OUT OF THE U
                                 SE OF
    31                           ; THIS SOFTWARE, EVEN IF ADVISED OF THE POSSIBILITY OF SUCH DAMAGE.
    32                           ; 
    33                           
    34                           
    35                           ; 
    36                           ; Code-generator required, PIC18F4550 Definitions
    37                           ; 
    38  0000                     fsr0 equ 0FE9h
    39  0000                     fsr0h equ 0FEAh
    40  0000                     fsr0l equ 0FE9h
    41  0000                     fsr1 equ 0FE1h
    42  0000                     fsr1h equ 0FE2h
    43  0000                     fsr1l equ 0FE1h
    44  0000                     fsr2 equ 0FD9h
    45  0000                     fsr2h equ 0FDAh
    46  0000                     fsr2l equ 0FD9h
    47  0000                     indf0 equ 0FEFh
    48  0000                     indf1 equ 0FE7h
    49  0000                     indf2 equ 0FDFh
    50  0000                     intcon equ 0FF2h
    51  0000                     nvmcon equ 00h
    52  0000                     pcl equ 0FF9h
    53  0000                     pclath equ 0FFAh
    54  0000                     pclatu equ 0FFBh
    55  0000                     plusw0 equ 0FEBh
    56  0000                     plusw1 equ 0FE3h
    57  0000                     plusw2 equ 0FDBh
    58  0000                     postdec0 equ 0FEDh
    59  0000                     postdec1 equ 0FE5h
    60  0000                     postdec2 equ 0FDDh
    61  0000                     postinc0 equ 0FEEh
    62  0000                     postinc1 equ 0FE6h
    63  0000                     postinc2 equ 0FDEh
    64  0000                     preinc0 equ 0FECh
    65  0000                     preinc1 equ 0FE4h
    66  0000                     preinc2 equ 0FDCh
    67  0000                     prod equ 0FF3h
    68  0000                     prodh equ 0FF4h
    69  0000                     prodl equ 0FF3h
    70  0000                     status equ 0FD8h
    71  0000                     tablat equ 0FF5h
    72  0000                     tblptr equ 0FF6h
    73  0000                     tblptrh equ 0FF7h
    74  0000                     tblptrl equ 0FF6h
    75  0000                     tblptru equ 0FF8h
    76  0000                     tosl equ 0FFDh
    77  0000                     wreg equ 0FE8h
    78  0000                     
     2                           opt pagewidth 120
     3  0000                     byte0	macro	val
     4                           	(getbyte(val,0))
     5                           endm
     6  0000                     byte1	macro	val
     7                           	(getbyte(val,1))
     8                           endm
     9  0000                     byte2	macro	val
    10                           	(getbyte(val,2))
    11                           endm
    12  0000                     byte3	macro	val
    13                           	(getbyte(val,3))
    14                           endm
    15  0000                     byte4	macro	val
    16                           	(getbyte(val,4))
    17                           endm
    18  0000                     byte5	macro	val
    19                           	(getbyte(val,5))
    20                           endm
    21  0000                     byte6	macro	val
    22                           	(getbyte(val,6))
    23                           endm
    24  0000                     byte7	macro	val
    25                           	(getbyte(val,7))
    26                           endm
    27  0000                     getword	macro	val,pos
    28                           	(((val) >> (8 * pos)) and 0xffff)
    29                           endm
    30  0000                     word0	macro	val
    31                           	(getword(val,0))
    32                           endm
    33  0000                     word1	macro	val
    34                           	(getword(val,2))
    35                           endm
    36  0000                     word2	macro	val
    37                           	(getword(val,4))
    38                           endm
    39  0000                     word3	macro	val
    40                           	(getword(val,6))
    41                           endm
    42  0000                     gettword	macro	val,pos
    43                           	(((val) >> (8 * pos)) and 0xffffff)
    44                           endm
    45  0000                     tword0	macro	val
    46                           	(gettword(val,0))
    47                           endm
    48  0000                     tword1	macro	val
    49                           	(gettword(val,3))
    50                           endm
    51  0000                     tword2	macro	val
    52                           	(gettword(val,6))
    53                           endm
    54  0000                     getdword	macro	val,pos
    55                           	(((val) >> (8 * pos)) and 0xffffffff)
    56                           endm
    57  0000                     dword0	macro	val
    58                           	(getdword(val,0))
    59                           endm
    60  0000                     dword1	macro	val
    61                           	(getdword(val,4))
    62                           endm
    63  0000                     clrc   macro
    64                           	bcf	status,0
    65                           endm
    66  0000                     setc   macro
    67                           	bsf	status,0
    68                           endm
    69  0000                     clrz   macro
    70                           	bcf	status,2
    71                           endm
    72  0000                     setz   macro
    73                           	bsf	status,2
    74                           endm
    75  0000                     skipnz macro
    76                           	btfsc	status,2
    77                           endm
    78  0000                     skipz  macro
    79                           	btfss	status,2
    80                           endm
    81  0000                     skipnc macro
    82                           	btfsc	status,0
    83                           endm
    84  0000                     skipc  macro
    85                           	btfss	status,0
    86                           endm
    87  0000                     pushw macro
    88                           	movwf postinc1
    89                           endm
    90  0000                     pushf macro arg1
    91                           	movff arg1, postinc1
    92                           endm
    93  0000                     popw macro
    94                           	movf postdec1,f
    95                           	movf indf1,w
    96                           endm
    97  0000                     popf macro arg1
    98                           	movf postdec1,f
    99                           	movff indf1,arg1
   100                           endm
   101  0000                     popfc macro arg1
   102                           	movff plusw1,arg1
   103                           	decfsz fsr1,f
   104                           endm
   105  0000                     	global	__ramtop
   106                           	global	__accesstop
   107                           # 54 "C:\Program Files (x86)\Microchip\xc8\v2.00\pic\include\pic18f4550.h"
   108                           SPPDATA equ 0F62h ;# 
   109  0000                     # 74 "C:\Program Files (x86)\Microchip\xc8\v2.00\pic\include\pic18f4550.h"
   110                           SPPCFG equ 0F63h ;# 
   111  0000                     # 151 "C:\Program Files (x86)\Microchip\xc8\v2.00\pic\include\pic18f4550.h"
   112                           SPPEPS equ 0F64h ;# 
   113  0000                     # 225 "C:\Program Files (x86)\Microchip\xc8\v2.00\pic\include\pic18f4550.h"
   114                           SPPCON equ 0F65h ;# 
   115  0000                     # 251 "C:\Program Files (x86)\Microchip\xc8\v2.00\pic\include\pic18f4550.h"
   116                           UFRM equ 0F66h ;# 
   117  0000                     # 258 "C:\Program Files (x86)\Microchip\xc8\v2.00\pic\include\pic18f4550.h"
   118                           UFRML equ 0F66h ;# 
   119  0000                     # 336 "C:\Program Files (x86)\Microchip\xc8\v2.00\pic\include\pic18f4550.h"
   120                           UFRMH equ 0F67h ;# 
   121  0000                     # 376 "C:\Program Files (x86)\Microchip\xc8\v2.00\pic\include\pic18f4550.h"
   122                           UIR equ 0F68h ;# 
   123  0000                     # 432 "C:\Program Files (x86)\Microchip\xc8\v2.00\pic\include\pic18f4550.h"
   124                           UIE equ 0F69h ;# 
   125  0000                     # 488 "C:\Program Files (x86)\Microchip\xc8\v2.00\pic\include\pic18f4550.h"
   126                           UEIR equ 0F6Ah ;# 
   127  0000                     # 539 "C:\Program Files (x86)\Microchip\xc8\v2.00\pic\include\pic18f4550.h"
   128                           UEIE equ 0F6Bh ;# 
   129  0000                     # 590 "C:\Program Files (x86)\Microchip\xc8\v2.00\pic\include\pic18f4550.h"
   130                           USTAT equ 0F6Ch ;# 
   131  0000                     # 650 "C:\Program Files (x86)\Microchip\xc8\v2.00\pic\include\pic18f4550.h"
   132                           UCON equ 0F6Dh ;# 
   133  0000                     # 701 "C:\Program Files (x86)\Microchip\xc8\v2.00\pic\include\pic18f4550.h"
   134                           UADDR equ 0F6Eh ;# 
   135  0000                     # 765 "C:\Program Files (x86)\Microchip\xc8\v2.00\pic\include\pic18f4550.h"
   136                           UCFG equ 0F6Fh ;# 
   137  0000                     # 844 "C:\Program Files (x86)\Microchip\xc8\v2.00\pic\include\pic18f4550.h"
   138                           UEP0 equ 0F70h ;# 
   139  0000                     # 952 "C:\Program Files (x86)\Microchip\xc8\v2.00\pic\include\pic18f4550.h"
   140                           UEP1 equ 0F71h ;# 
   141  0000                     # 1060 "C:\Program Files (x86)\Microchip\xc8\v2.00\pic\include\pic18f4550.h"
   142                           UEP2 equ 0F72h ;# 
   143  0000                     # 1168 "C:\Program Files (x86)\Microchip\xc8\v2.00\pic\include\pic18f4550.h"
   144                           UEP3 equ 0F73h ;# 
   145  0000                     # 1276 "C:\Program Files (x86)\Microchip\xc8\v2.00\pic\include\pic18f4550.h"
   146                           UEP4 equ 0F74h ;# 
   147  0000                     # 1384 "C:\Program Files (x86)\Microchip\xc8\v2.00\pic\include\pic18f4550.h"
   148                           UEP5 equ 0F75h ;# 
   149  0000                     # 1492 "C:\Program Files (x86)\Microchip\xc8\v2.00\pic\include\pic18f4550.h"
   150                           UEP6 equ 0F76h ;# 
   151  0000                     # 1600 "C:\Program Files (x86)\Microchip\xc8\v2.00\pic\include\pic18f4550.h"
   152                           UEP7 equ 0F77h ;# 
   153  0000                     # 1708 "C:\Program Files (x86)\Microchip\xc8\v2.00\pic\include\pic18f4550.h"
   154                           UEP8 equ 0F78h ;# 
   155  0000                     # 1784 "C:\Program Files (x86)\Microchip\xc8\v2.00\pic\include\pic18f4550.h"
   156                           UEP9 equ 0F79h ;# 
   157  0000                     # 1860 "C:\Program Files (x86)\Microchip\xc8\v2.00\pic\include\pic18f4550.h"
   158                           UEP10 equ 0F7Ah ;# 
   159  0000                     # 1936 "C:\Program Files (x86)\Microchip\xc8\v2.00\pic\include\pic18f4550.h"
   160                           UEP11 equ 0F7Bh ;# 
   161  0000                     # 2012 "C:\Program Files (x86)\Microchip\xc8\v2.00\pic\include\pic18f4550.h"
   162                           UEP12 equ 0F7Ch ;# 
   163  0000                     # 2088 "C:\Program Files (x86)\Microchip\xc8\v2.00\pic\include\pic18f4550.h"
   164                           UEP13 equ 0F7Dh ;# 
   165  0000                     # 2164 "C:\Program Files (x86)\Microchip\xc8\v2.00\pic\include\pic18f4550.h"
   166                           UEP14 equ 0F7Eh ;# 
   167  0000                     # 2240 "C:\Program Files (x86)\Microchip\xc8\v2.00\pic\include\pic18f4550.h"
   168                           UEP15 equ 0F7Fh ;# 
   169  0000                     # 2316 "C:\Program Files (x86)\Microchip\xc8\v2.00\pic\include\pic18f4550.h"
   170                           PORTA equ 0F80h ;# 
   171  0000                     # 2455 "C:\Program Files (x86)\Microchip\xc8\v2.00\pic\include\pic18f4550.h"
   172                           PORTB equ 0F81h ;# 
   173  0000                     # 2565 "C:\Program Files (x86)\Microchip\xc8\v2.00\pic\include\pic18f4550.h"
   174                           PORTC equ 0F82h ;# 
   175  0000                     # 2707 "C:\Program Files (x86)\Microchip\xc8\v2.00\pic\include\pic18f4550.h"
   176                           PORTD equ 0F83h ;# 
   177  0000                     # 2828 "C:\Program Files (x86)\Microchip\xc8\v2.00\pic\include\pic18f4550.h"
   178                           PORTE equ 0F84h ;# 
   179  0000                     # 2975 "C:\Program Files (x86)\Microchip\xc8\v2.00\pic\include\pic18f4550.h"
   180                           LATA equ 0F89h ;# 
   181  0000                     # 3075 "C:\Program Files (x86)\Microchip\xc8\v2.00\pic\include\pic18f4550.h"
   182                           LATB equ 0F8Ah ;# 
   183  0000                     # 3187 "C:\Program Files (x86)\Microchip\xc8\v2.00\pic\include\pic18f4550.h"
   184                           LATC equ 0F8Bh ;# 
   185  0000                     # 3265 "C:\Program Files (x86)\Microchip\xc8\v2.00\pic\include\pic18f4550.h"
   186                           LATD equ 0F8Ch ;# 
   187  0000                     # 3377 "C:\Program Files (x86)\Microchip\xc8\v2.00\pic\include\pic18f4550.h"
   188                           LATE equ 0F8Dh ;# 
   189  0000                     # 3429 "C:\Program Files (x86)\Microchip\xc8\v2.00\pic\include\pic18f4550.h"
   190                           TRISA equ 0F92h ;# 
   191  0000                     # 3434 "C:\Program Files (x86)\Microchip\xc8\v2.00\pic\include\pic18f4550.h"
   192                           DDRA equ 0F92h ;# 
   193  0000                     # 3627 "C:\Program Files (x86)\Microchip\xc8\v2.00\pic\include\pic18f4550.h"
   194                           TRISB equ 0F93h ;# 
   195  0000                     # 3632 "C:\Program Files (x86)\Microchip\xc8\v2.00\pic\include\pic18f4550.h"
   196                           DDRB equ 0F93h ;# 
   197  0000                     # 3849 "C:\Program Files (x86)\Microchip\xc8\v2.00\pic\include\pic18f4550.h"
   198                           TRISC equ 0F94h ;# 
   199  0000                     # 3854 "C:\Program Files (x86)\Microchip\xc8\v2.00\pic\include\pic18f4550.h"
   200                           DDRC equ 0F94h ;# 
   201  0000                     # 4003 "C:\Program Files (x86)\Microchip\xc8\v2.00\pic\include\pic18f4550.h"
   202                           TRISD equ 0F95h ;# 
   203  0000                     # 4008 "C:\Program Files (x86)\Microchip\xc8\v2.00\pic\include\pic18f4550.h"
   204                           DDRD equ 0F95h ;# 
   205  0000                     # 4225 "C:\Program Files (x86)\Microchip\xc8\v2.00\pic\include\pic18f4550.h"
   206                           TRISE equ 0F96h ;# 
   207  0000                     # 4230 "C:\Program Files (x86)\Microchip\xc8\v2.00\pic\include\pic18f4550.h"
   208                           DDRE equ 0F96h ;# 
   209  0000                     # 4327 "C:\Program Files (x86)\Microchip\xc8\v2.00\pic\include\pic18f4550.h"
   210                           OSCTUNE equ 0F9Bh ;# 
   211  0000                     # 4386 "C:\Program Files (x86)\Microchip\xc8\v2.00\pic\include\pic18f4550.h"
   212                           PIE1 equ 0F9Dh ;# 
   213  0000                     # 4470 "C:\Program Files (x86)\Microchip\xc8\v2.00\pic\include\pic18f4550.h"
   214                           PIR1 equ 0F9Eh ;# 
   215  0000                     # 4554 "C:\Program Files (x86)\Microchip\xc8\v2.00\pic\include\pic18f4550.h"
   216                           IPR1 equ 0F9Fh ;# 
   217  0000                     # 4638 "C:\Program Files (x86)\Microchip\xc8\v2.00\pic\include\pic18f4550.h"
   218                           PIE2 equ 0FA0h ;# 
   219  0000                     # 4709 "C:\Program Files (x86)\Microchip\xc8\v2.00\pic\include\pic18f4550.h"
   220                           PIR2 equ 0FA1h ;# 
   221  0000                     # 4780 "C:\Program Files (x86)\Microchip\xc8\v2.00\pic\include\pic18f4550.h"
   222                           IPR2 equ 0FA2h ;# 
   223  0000                     # 4851 "C:\Program Files (x86)\Microchip\xc8\v2.00\pic\include\pic18f4550.h"
   224                           EECON1 equ 0FA6h ;# 
   225  0000                     # 4917 "C:\Program Files (x86)\Microchip\xc8\v2.00\pic\include\pic18f4550.h"
   226                           EECON2 equ 0FA7h ;# 
   227  0000                     # 4924 "C:\Program Files (x86)\Microchip\xc8\v2.00\pic\include\pic18f4550.h"
   228                           EEDATA equ 0FA8h ;# 
   229  0000                     # 4931 "C:\Program Files (x86)\Microchip\xc8\v2.00\pic\include\pic18f4550.h"
   230                           EEADR equ 0FA9h ;# 
   231  0000                     # 4938 "C:\Program Files (x86)\Microchip\xc8\v2.00\pic\include\pic18f4550.h"
   232                           RCSTA equ 0FABh ;# 
   233  0000                     # 4943 "C:\Program Files (x86)\Microchip\xc8\v2.00\pic\include\pic18f4550.h"
   234                           RCSTA1 equ 0FABh ;# 
   235  0000                     # 5148 "C:\Program Files (x86)\Microchip\xc8\v2.00\pic\include\pic18f4550.h"
   236                           TXSTA equ 0FACh ;# 
   237  0000                     # 5153 "C:\Program Files (x86)\Microchip\xc8\v2.00\pic\include\pic18f4550.h"
   238                           TXSTA1 equ 0FACh ;# 
   239  0000                     # 5404 "C:\Program Files (x86)\Microchip\xc8\v2.00\pic\include\pic18f4550.h"
   240                           TXREG equ 0FADh ;# 
   241  0000                     # 5409 "C:\Program Files (x86)\Microchip\xc8\v2.00\pic\include\pic18f4550.h"
   242                           TXREG1 equ 0FADh ;# 
   243  0000                     # 5416 "C:\Program Files (x86)\Microchip\xc8\v2.00\pic\include\pic18f4550.h"
   244                           RCREG equ 0FAEh ;# 
   245  0000                     # 5421 "C:\Program Files (x86)\Microchip\xc8\v2.00\pic\include\pic18f4550.h"
   246                           RCREG1 equ 0FAEh ;# 
   247  0000                     # 5428 "C:\Program Files (x86)\Microchip\xc8\v2.00\pic\include\pic18f4550.h"
   248                           SPBRG equ 0FAFh ;# 
   249  0000                     # 5433 "C:\Program Files (x86)\Microchip\xc8\v2.00\pic\include\pic18f4550.h"
   250                           SPBRG1 equ 0FAFh ;# 
   251  0000                     # 5440 "C:\Program Files (x86)\Microchip\xc8\v2.00\pic\include\pic18f4550.h"
   252                           SPBRGH equ 0FB0h ;# 
   253  0000                     # 5447 "C:\Program Files (x86)\Microchip\xc8\v2.00\pic\include\pic18f4550.h"
   254                           T3CON equ 0FB1h ;# 
   255  0000                     # 5568 "C:\Program Files (x86)\Microchip\xc8\v2.00\pic\include\pic18f4550.h"
   256                           TMR3 equ 0FB2h ;# 
   257  0000                     # 5575 "C:\Program Files (x86)\Microchip\xc8\v2.00\pic\include\pic18f4550.h"
   258                           TMR3L equ 0FB2h ;# 
   259  0000                     # 5582 "C:\Program Files (x86)\Microchip\xc8\v2.00\pic\include\pic18f4550.h"
   260                           TMR3H equ 0FB3h ;# 
   261  0000                     # 5589 "C:\Program Files (x86)\Microchip\xc8\v2.00\pic\include\pic18f4550.h"
   262                           CMCON equ 0FB4h ;# 
   263  0000                     # 5679 "C:\Program Files (x86)\Microchip\xc8\v2.00\pic\include\pic18f4550.h"
   264                           CVRCON equ 0FB5h ;# 
   265  0000                     # 5764 "C:\Program Files (x86)\Microchip\xc8\v2.00\pic\include\pic18f4550.h"
   266                           ECCP1AS equ 0FB6h ;# 
   267  0000                     # 5769 "C:\Program Files (x86)\Microchip\xc8\v2.00\pic\include\pic18f4550.h"
   268                           CCP1AS equ 0FB6h ;# 
   269  0000                     # 5926 "C:\Program Files (x86)\Microchip\xc8\v2.00\pic\include\pic18f4550.h"
   270                           ECCP1DEL equ 0FB7h ;# 
   271  0000                     # 5931 "C:\Program Files (x86)\Microchip\xc8\v2.00\pic\include\pic18f4550.h"
   272                           CCP1DEL equ 0FB7h ;# 
   273  0000                     # 6064 "C:\Program Files (x86)\Microchip\xc8\v2.00\pic\include\pic18f4550.h"
   274                           BAUDCON equ 0FB8h ;# 
   275  0000                     # 6069 "C:\Program Files (x86)\Microchip\xc8\v2.00\pic\include\pic18f4550.h"
   276                           BAUDCTL equ 0FB8h ;# 
   277  0000                     # 6244 "C:\Program Files (x86)\Microchip\xc8\v2.00\pic\include\pic18f4550.h"
   278                           CCP2CON equ 0FBAh ;# 
   279  0000                     # 6308 "C:\Program Files (x86)\Microchip\xc8\v2.00\pic\include\pic18f4550.h"
   280                           CCPR2 equ 0FBBh ;# 
   281  0000                     # 6315 "C:\Program Files (x86)\Microchip\xc8\v2.00\pic\include\pic18f4550.h"
   282                           CCPR2L equ 0FBBh ;# 
   283  0000                     # 6322 "C:\Program Files (x86)\Microchip\xc8\v2.00\pic\include\pic18f4550.h"
   284                           CCPR2H equ 0FBCh ;# 
   285  0000                     # 6329 "C:\Program Files (x86)\Microchip\xc8\v2.00\pic\include\pic18f4550.h"
   286                           CCP1CON equ 0FBDh ;# 
   287  0000                     # 6334 "C:\Program Files (x86)\Microchip\xc8\v2.00\pic\include\pic18f4550.h"
   288                           ECCP1CON equ 0FBDh ;# 
   289  0000                     # 6491 "C:\Program Files (x86)\Microchip\xc8\v2.00\pic\include\pic18f4550.h"
   290                           CCPR1 equ 0FBEh ;# 
   291  0000                     # 6498 "C:\Program Files (x86)\Microchip\xc8\v2.00\pic\include\pic18f4550.h"
   292                           CCPR1L equ 0FBEh ;# 
   293  0000                     # 6505 "C:\Program Files (x86)\Microchip\xc8\v2.00\pic\include\pic18f4550.h"
   294                           CCPR1H equ 0FBFh ;# 
   295  0000                     # 6512 "C:\Program Files (x86)\Microchip\xc8\v2.00\pic\include\pic18f4550.h"
   296                           ADCON2 equ 0FC0h ;# 
   297  0000                     # 6583 "C:\Program Files (x86)\Microchip\xc8\v2.00\pic\include\pic18f4550.h"
   298                           ADCON1 equ 0FC1h ;# 
   299  0000                     # 6668 "C:\Program Files (x86)\Microchip\xc8\v2.00\pic\include\pic18f4550.h"
   300                           ADCON0 equ 0FC2h ;# 
   301  0000                     # 6787 "C:\Program Files (x86)\Microchip\xc8\v2.00\pic\include\pic18f4550.h"
   302                           ADRES equ 0FC3h ;# 
   303  0000                     # 6794 "C:\Program Files (x86)\Microchip\xc8\v2.00\pic\include\pic18f4550.h"
   304                           ADRESL equ 0FC3h ;# 
   305  0000                     # 6801 "C:\Program Files (x86)\Microchip\xc8\v2.00\pic\include\pic18f4550.h"
   306                           ADRESH equ 0FC4h ;# 
   307  0000                     # 6808 "C:\Program Files (x86)\Microchip\xc8\v2.00\pic\include\pic18f4550.h"
   308                           SSPCON2 equ 0FC5h ;# 
   309  0000                     # 6870 "C:\Program Files (x86)\Microchip\xc8\v2.00\pic\include\pic18f4550.h"
   310                           SSPCON1 equ 0FC6h ;# 
   311  0000                     # 6940 "C:\Program Files (x86)\Microchip\xc8\v2.00\pic\include\pic18f4550.h"
   312                           SSPSTAT equ 0FC7h ;# 
   313  0000                     # 7188 "C:\Program Files (x86)\Microchip\xc8\v2.00\pic\include\pic18f4550.h"
   314                           SSPADD equ 0FC8h ;# 
   315  0000                     # 7195 "C:\Program Files (x86)\Microchip\xc8\v2.00\pic\include\pic18f4550.h"
   316                           SSPBUF equ 0FC9h ;# 
   317  0000                     # 7202 "C:\Program Files (x86)\Microchip\xc8\v2.00\pic\include\pic18f4550.h"
   318                           T2CON equ 0FCAh ;# 
   319  0000                     # 7300 "C:\Program Files (x86)\Microchip\xc8\v2.00\pic\include\pic18f4550.h"
   320                           PR2 equ 0FCBh ;# 
   321  0000                     # 7305 "C:\Program Files (x86)\Microchip\xc8\v2.00\pic\include\pic18f4550.h"
   322                           MEMCON equ 0FCBh ;# 
   323  0000                     # 7410 "C:\Program Files (x86)\Microchip\xc8\v2.00\pic\include\pic18f4550.h"
   324                           TMR2 equ 0FCCh ;# 
   325  0000                     # 7417 "C:\Program Files (x86)\Microchip\xc8\v2.00\pic\include\pic18f4550.h"
   326                           T1CON equ 0FCDh ;# 
   327  0000                     # 7520 "C:\Program Files (x86)\Microchip\xc8\v2.00\pic\include\pic18f4550.h"
   328                           TMR1 equ 0FCEh ;# 
   329  0000                     # 7527 "C:\Program Files (x86)\Microchip\xc8\v2.00\pic\include\pic18f4550.h"
   330                           TMR1L equ 0FCEh ;# 
   331  0000                     # 7534 "C:\Program Files (x86)\Microchip\xc8\v2.00\pic\include\pic18f4550.h"
   332                           TMR1H equ 0FCFh ;# 
   333  0000                     # 7541 "C:\Program Files (x86)\Microchip\xc8\v2.00\pic\include\pic18f4550.h"
   334                           RCON equ 0FD0h ;# 
   335  0000                     # 7690 "C:\Program Files (x86)\Microchip\xc8\v2.00\pic\include\pic18f4550.h"
   336                           WDTCON equ 0FD1h ;# 
   337  0000                     # 7718 "C:\Program Files (x86)\Microchip\xc8\v2.00\pic\include\pic18f4550.h"
   338                           HLVDCON equ 0FD2h ;# 
   339  0000                     # 7723 "C:\Program Files (x86)\Microchip\xc8\v2.00\pic\include\pic18f4550.h"
   340                           LVDCON equ 0FD2h ;# 
   341  0000                     # 7988 "C:\Program Files (x86)\Microchip\xc8\v2.00\pic\include\pic18f4550.h"
   342                           OSCCON equ 0FD3h ;# 
   343  0000                     # 8071 "C:\Program Files (x86)\Microchip\xc8\v2.00\pic\include\pic18f4550.h"
   344                           T0CON equ 0FD5h ;# 
   345  0000                     # 8141 "C:\Program Files (x86)\Microchip\xc8\v2.00\pic\include\pic18f4550.h"
   346                           TMR0 equ 0FD6h ;# 
   347  0000                     # 8148 "C:\Program Files (x86)\Microchip\xc8\v2.00\pic\include\pic18f4550.h"
   348                           TMR0L equ 0FD6h ;# 
   349  0000                     # 8155 "C:\Program Files (x86)\Microchip\xc8\v2.00\pic\include\pic18f4550.h"
   350                           TMR0H equ 0FD7h ;# 
   351  0000                     # 8162 "C:\Program Files (x86)\Microchip\xc8\v2.00\pic\include\pic18f4550.h"
   352                           STATUS equ 0FD8h ;# 
   353  0000                     # 8233 "C:\Program Files (x86)\Microchip\xc8\v2.00\pic\include\pic18f4550.h"
   354                           FSR2 equ 0FD9h ;# 
   355  0000                     # 8240 "C:\Program Files (x86)\Microchip\xc8\v2.00\pic\include\pic18f4550.h"
   356                           FSR2L equ 0FD9h ;# 
   357  0000                     # 8247 "C:\Program Files (x86)\Microchip\xc8\v2.00\pic\include\pic18f4550.h"
   358                           FSR2H equ 0FDAh ;# 
   359  0000                     # 8254 "C:\Program Files (x86)\Microchip\xc8\v2.00\pic\include\pic18f4550.h"
   360                           PLUSW2 equ 0FDBh ;# 
   361  0000                     # 8261 "C:\Program Files (x86)\Microchip\xc8\v2.00\pic\include\pic18f4550.h"
   362                           PREINC2 equ 0FDCh ;# 
   363  0000                     # 8268 "C:\Program Files (x86)\Microchip\xc8\v2.00\pic\include\pic18f4550.h"
   364                           POSTDEC2 equ 0FDDh ;# 
   365  0000                     # 8275 "C:\Program Files (x86)\Microchip\xc8\v2.00\pic\include\pic18f4550.h"
   366                           POSTINC2 equ 0FDEh ;# 
   367  0000                     # 8282 "C:\Program Files (x86)\Microchip\xc8\v2.00\pic\include\pic18f4550.h"
   368                           INDF2 equ 0FDFh ;# 
   369  0000                     # 8289 "C:\Program Files (x86)\Microchip\xc8\v2.00\pic\include\pic18f4550.h"
   370                           BSR equ 0FE0h ;# 
   371  0000                     # 8296 "C:\Program Files (x86)\Microchip\xc8\v2.00\pic\include\pic18f4550.h"
   372                           FSR1 equ 0FE1h ;# 
   373  0000                     # 8303 "C:\Program Files (x86)\Microchip\xc8\v2.00\pic\include\pic18f4550.h"
   374                           FSR1L equ 0FE1h ;# 
   375  0000                     # 8310 "C:\Program Files (x86)\Microchip\xc8\v2.00\pic\include\pic18f4550.h"
   376                           FSR1H equ 0FE2h ;# 
   377  0000                     # 8317 "C:\Program Files (x86)\Microchip\xc8\v2.00\pic\include\pic18f4550.h"
   378                           PLUSW1 equ 0FE3h ;# 
   379  0000                     # 8324 "C:\Program Files (x86)\Microchip\xc8\v2.00\pic\include\pic18f4550.h"
   380                           PREINC1 equ 0FE4h ;# 
   381  0000                     # 8331 "C:\Program Files (x86)\Microchip\xc8\v2.00\pic\include\pic18f4550.h"
   382                           POSTDEC1 equ 0FE5h ;# 
   383  0000                     # 8338 "C:\Program Files (x86)\Microchip\xc8\v2.00\pic\include\pic18f4550.h"
   384                           POSTINC1 equ 0FE6h ;# 
   385  0000                     # 8345 "C:\Program Files (x86)\Microchip\xc8\v2.00\pic\include\pic18f4550.h"
   386                           INDF1 equ 0FE7h ;# 
   387  0000                     # 8352 "C:\Program Files (x86)\Microchip\xc8\v2.00\pic\include\pic18f4550.h"
   388                           WREG equ 0FE8h ;# 
   389  0000                     # 8359 "C:\Program Files (x86)\Microchip\xc8\v2.00\pic\include\pic18f4550.h"
   390                           FSR0 equ 0FE9h ;# 
   391  0000                     # 8366 "C:\Program Files (x86)\Microchip\xc8\v2.00\pic\include\pic18f4550.h"
   392                           FSR0L equ 0FE9h ;# 
   393  0000                     # 8373 "C:\Program Files (x86)\Microchip\xc8\v2.00\pic\include\pic18f4550.h"
   394                           FSR0H equ 0FEAh ;# 
   395  0000                     # 8380 "C:\Program Files (x86)\Microchip\xc8\v2.00\pic\include\pic18f4550.h"
   396                           PLUSW0 equ 0FEBh ;# 
   397  0000                     # 8387 "C:\Program Files (x86)\Microchip\xc8\v2.00\pic\include\pic18f4550.h"
   398                           PREINC0 equ 0FECh ;# 
   399  0000                     # 8394 "C:\Program Files (x86)\Microchip\xc8\v2.00\pic\include\pic18f4550.h"
   400                           POSTDEC0 equ 0FEDh ;# 
   401  0000                     # 8401 "C:\Program Files (x86)\Microchip\xc8\v2.00\pic\include\pic18f4550.h"
   402                           POSTINC0 equ 0FEEh ;# 
   403  0000                     # 8408 "C:\Program Files (x86)\Microchip\xc8\v2.00\pic\include\pic18f4550.h"
   404                           INDF0 equ 0FEFh ;# 
   405  0000                     # 8415 "C:\Program Files (x86)\Microchip\xc8\v2.00\pic\include\pic18f4550.h"
   406                           INTCON3 equ 0FF0h ;# 
   407  0000                     # 8507 "C:\Program Files (x86)\Microchip\xc8\v2.00\pic\include\pic18f4550.h"
   408                           INTCON2 equ 0FF1h ;# 
   409  0000                     # 8584 "C:\Program Files (x86)\Microchip\xc8\v2.00\pic\include\pic18f4550.h"
   410                           INTCON equ 0FF2h ;# 
   411  0000                     # 8701 "C:\Program Files (x86)\Microchip\xc8\v2.00\pic\include\pic18f4550.h"
   412                           PROD equ 0FF3h ;# 
   413  0000                     # 8708 "C:\Program Files (x86)\Microchip\xc8\v2.00\pic\include\pic18f4550.h"
   414                           PRODL equ 0FF3h ;# 
   415  0000                     # 8715 "C:\Program Files (x86)\Microchip\xc8\v2.00\pic\include\pic18f4550.h"
   416                           PRODH equ 0FF4h ;# 
   417  0000                     # 8722 "C:\Program Files (x86)\Microchip\xc8\v2.00\pic\include\pic18f4550.h"
   418                           TABLAT equ 0FF5h ;# 
   419  0000                     # 8731 "C:\Program Files (x86)\Microchip\xc8\v2.00\pic\include\pic18f4550.h"
   420                           TBLPTR equ 0FF6h ;# 
   421  0000                     # 8738 "C:\Program Files (x86)\Microchip\xc8\v2.00\pic\include\pic18f4550.h"
   422                           TBLPTRL equ 0FF6h ;# 
   423  0000                     # 8745 "C:\Program Files (x86)\Microchip\xc8\v2.00\pic\include\pic18f4550.h"
   424                           TBLPTRH equ 0FF7h ;# 
   425  0000                     # 8752 "C:\Program Files (x86)\Microchip\xc8\v2.00\pic\include\pic18f4550.h"
   426                           TBLPTRU equ 0FF8h ;# 
   427  0000                     # 8761 "C:\Program Files (x86)\Microchip\xc8\v2.00\pic\include\pic18f4550.h"
   428                           PCLAT equ 0FF9h ;# 
   429  0000                     # 8768 "C:\Program Files (x86)\Microchip\xc8\v2.00\pic\include\pic18f4550.h"
   430                           PC equ 0FF9h ;# 
   431  0000                     # 8775 "C:\Program Files (x86)\Microchip\xc8\v2.00\pic\include\pic18f4550.h"
   432                           PCL equ 0FF9h ;# 
   433  0000                     # 8782 "C:\Program Files (x86)\Microchip\xc8\v2.00\pic\include\pic18f4550.h"
   434                           PCLATH equ 0FFAh ;# 
   435  0000                     # 8789 "C:\Program Files (x86)\Microchip\xc8\v2.00\pic\include\pic18f4550.h"
   436                           PCLATU equ 0FFBh ;# 
   437  0000                     # 8796 "C:\Program Files (x86)\Microchip\xc8\v2.00\pic\include\pic18f4550.h"
   438                           STKPTR equ 0FFCh ;# 
   439  0000                     # 8872 "C:\Program Files (x86)\Microchip\xc8\v2.00\pic\include\pic18f4550.h"
   440                           TOS equ 0FFDh ;# 
   441  0000                     # 8879 "C:\Program Files (x86)\Microchip\xc8\v2.00\pic\include\pic18f4550.h"
   442                           TOSL equ 0FFDh ;# 
   443  0000                     # 8886 "C:\Program Files (x86)\Microchip\xc8\v2.00\pic\include\pic18f4550.h"
   444                           TOSH equ 0FFEh ;# 
   445  0000                     # 8893 "C:\Program Files (x86)\Microchip\xc8\v2.00\pic\include\pic18f4550.h"
   446                           TOSU equ 0FFFh ;# 
   447  0000                     # 54 "C:\Program Files (x86)\Microchip\xc8\v2.00\pic\include\pic18f4550.h"
   448                           SPPDATA equ 0F62h ;# 
   449  0000                     # 74 "C:\Program Files (x86)\Microchip\xc8\v2.00\pic\include\pic18f4550.h"
   450                           SPPCFG equ 0F63h ;# 
   451  0000                     # 151 "C:\Program Files (x86)\Microchip\xc8\v2.00\pic\include\pic18f4550.h"
   452                           SPPEPS equ 0F64h ;# 
   453  0000                     # 225 "C:\Program Files (x86)\Microchip\xc8\v2.00\pic\include\pic18f4550.h"
   454                           SPPCON equ 0F65h ;# 
   455  0000                     # 251 "C:\Program Files (x86)\Microchip\xc8\v2.00\pic\include\pic18f4550.h"
   456                           UFRM equ 0F66h ;# 
   457  0000                     # 258 "C:\Program Files (x86)\Microchip\xc8\v2.00\pic\include\pic18f4550.h"
   458                           UFRML equ 0F66h ;# 
   459  0000                     # 336 "C:\Program Files (x86)\Microchip\xc8\v2.00\pic\include\pic18f4550.h"
   460                           UFRMH equ 0F67h ;# 
   461  0000                     # 376 "C:\Program Files (x86)\Microchip\xc8\v2.00\pic\include\pic18f4550.h"
   462                           UIR equ 0F68h ;# 
   463  0000                     # 432 "C:\Program Files (x86)\Microchip\xc8\v2.00\pic\include\pic18f4550.h"
   464                           UIE equ 0F69h ;# 
   465  0000                     # 488 "C:\Program Files (x86)\Microchip\xc8\v2.00\pic\include\pic18f4550.h"
   466                           UEIR equ 0F6Ah ;# 
   467  0000                     # 539 "C:\Program Files (x86)\Microchip\xc8\v2.00\pic\include\pic18f4550.h"
   468                           UEIE equ 0F6Bh ;# 
   469  0000                     # 590 "C:\Program Files (x86)\Microchip\xc8\v2.00\pic\include\pic18f4550.h"
   470                           USTAT equ 0F6Ch ;# 
   471  0000                     # 650 "C:\Program Files (x86)\Microchip\xc8\v2.00\pic\include\pic18f4550.h"
   472                           UCON equ 0F6Dh ;# 
   473  0000                     # 701 "C:\Program Files (x86)\Microchip\xc8\v2.00\pic\include\pic18f4550.h"
   474                           UADDR equ 0F6Eh ;# 
   475  0000                     # 765 "C:\Program Files (x86)\Microchip\xc8\v2.00\pic\include\pic18f4550.h"
   476                           UCFG equ 0F6Fh ;# 
   477  0000                     # 844 "C:\Program Files (x86)\Microchip\xc8\v2.00\pic\include\pic18f4550.h"
   478                           UEP0 equ 0F70h ;# 
   479  0000                     # 952 "C:\Program Files (x86)\Microchip\xc8\v2.00\pic\include\pic18f4550.h"
   480                           UEP1 equ 0F71h ;# 
   481  0000                     # 1060 "C:\Program Files (x86)\Microchip\xc8\v2.00\pic\include\pic18f4550.h"
   482                           UEP2 equ 0F72h ;# 
   483  0000                     # 1168 "C:\Program Files (x86)\Microchip\xc8\v2.00\pic\include\pic18f4550.h"
   484                           UEP3 equ 0F73h ;# 
   485  0000                     # 1276 "C:\Program Files (x86)\Microchip\xc8\v2.00\pic\include\pic18f4550.h"
   486                           UEP4 equ 0F74h ;# 
   487  0000                     # 1384 "C:\Program Files (x86)\Microchip\xc8\v2.00\pic\include\pic18f4550.h"
   488                           UEP5 equ 0F75h ;# 
   489  0000                     # 1492 "C:\Program Files (x86)\Microchip\xc8\v2.00\pic\include\pic18f4550.h"
   490                           UEP6 equ 0F76h ;# 
   491  0000                     # 1600 "C:\Program Files (x86)\Microchip\xc8\v2.00\pic\include\pic18f4550.h"
   492                           UEP7 equ 0F77h ;# 
   493  0000                     # 1708 "C:\Program Files (x86)\Microchip\xc8\v2.00\pic\include\pic18f4550.h"
   494                           UEP8 equ 0F78h ;# 
   495  0000                     # 1784 "C:\Program Files (x86)\Microchip\xc8\v2.00\pic\include\pic18f4550.h"
   496                           UEP9 equ 0F79h ;# 
   497  0000                     # 1860 "C:\Program Files (x86)\Microchip\xc8\v2.00\pic\include\pic18f4550.h"
   498                           UEP10 equ 0F7Ah ;# 
   499  0000                     # 1936 "C:\Program Files (x86)\Microchip\xc8\v2.00\pic\include\pic18f4550.h"
   500                           UEP11 equ 0F7Bh ;# 
   501  0000                     # 2012 "C:\Program Files (x86)\Microchip\xc8\v2.00\pic\include\pic18f4550.h"
   502                           UEP12 equ 0F7Ch ;# 
   503  0000                     # 2088 "C:\Program Files (x86)\Microchip\xc8\v2.00\pic\include\pic18f4550.h"
   504                           UEP13 equ 0F7Dh ;# 
   505  0000                     # 2164 "C:\Program Files (x86)\Microchip\xc8\v2.00\pic\include\pic18f4550.h"
   506                           UEP14 equ 0F7Eh ;# 
   507  0000                     # 2240 "C:\Program Files (x86)\Microchip\xc8\v2.00\pic\include\pic18f4550.h"
   508                           UEP15 equ 0F7Fh ;# 
   509  0000                     # 2316 "C:\Program Files (x86)\Microchip\xc8\v2.00\pic\include\pic18f4550.h"
   510                           PORTA equ 0F80h ;# 
   511  0000                     # 2455 "C:\Program Files (x86)\Microchip\xc8\v2.00\pic\include\pic18f4550.h"
   512                           PORTB equ 0F81h ;# 
   513  0000                     # 2565 "C:\Program Files (x86)\Microchip\xc8\v2.00\pic\include\pic18f4550.h"
   514                           PORTC equ 0F82h ;# 
   515  0000                     # 2707 "C:\Program Files (x86)\Microchip\xc8\v2.00\pic\include\pic18f4550.h"
   516                           PORTD equ 0F83h ;# 
   517  0000                     # 2828 "C:\Program Files (x86)\Microchip\xc8\v2.00\pic\include\pic18f4550.h"
   518                           PORTE equ 0F84h ;# 
   519  0000                     # 2975 "C:\Program Files (x86)\Microchip\xc8\v2.00\pic\include\pic18f4550.h"
   520                           LATA equ 0F89h ;# 
   521  0000                     # 3075 "C:\Program Files (x86)\Microchip\xc8\v2.00\pic\include\pic18f4550.h"
   522                           LATB equ 0F8Ah ;# 
   523  0000                     # 3187 "C:\Program Files (x86)\Microchip\xc8\v2.00\pic\include\pic18f4550.h"
   524                           LATC equ 0F8Bh ;# 
   525  0000                     # 3265 "C:\Program Files (x86)\Microchip\xc8\v2.00\pic\include\pic18f4550.h"
   526                           LATD equ 0F8Ch ;# 
   527  0000                     # 3377 "C:\Program Files (x86)\Microchip\xc8\v2.00\pic\include\pic18f4550.h"
   528                           LATE equ 0F8Dh ;# 
   529  0000                     # 3429 "C:\Program Files (x86)\Microchip\xc8\v2.00\pic\include\pic18f4550.h"
   530                           TRISA equ 0F92h ;# 
   531  0000                     # 3434 "C:\Program Files (x86)\Microchip\xc8\v2.00\pic\include\pic18f4550.h"
   532                           DDRA equ 0F92h ;# 
   533  0000                     # 3627 "C:\Program Files (x86)\Microchip\xc8\v2.00\pic\include\pic18f4550.h"
   534                           TRISB equ 0F93h ;# 
   535  0000                     # 3632 "C:\Program Files (x86)\Microchip\xc8\v2.00\pic\include\pic18f4550.h"
   536                           DDRB equ 0F93h ;# 
   537  0000                     # 3849 "C:\Program Files (x86)\Microchip\xc8\v2.00\pic\include\pic18f4550.h"
   538                           TRISC equ 0F94h ;# 
   539  0000                     # 3854 "C:\Program Files (x86)\Microchip\xc8\v2.00\pic\include\pic18f4550.h"
   540                           DDRC equ 0F94h ;# 
   541  0000                     # 4003 "C:\Program Files (x86)\Microchip\xc8\v2.00\pic\include\pic18f4550.h"
   542                           TRISD equ 0F95h ;# 
   543  0000                     # 4008 "C:\Program Files (x86)\Microchip\xc8\v2.00\pic\include\pic18f4550.h"
   544                           DDRD equ 0F95h ;# 
   545  0000                     # 4225 "C:\Program Files (x86)\Microchip\xc8\v2.00\pic\include\pic18f4550.h"
   546                           TRISE equ 0F96h ;# 
   547  0000                     # 4230 "C:\Program Files (x86)\Microchip\xc8\v2.00\pic\include\pic18f4550.h"
   548                           DDRE equ 0F96h ;# 
   549  0000                     # 4327 "C:\Program Files (x86)\Microchip\xc8\v2.00\pic\include\pic18f4550.h"
   550                           OSCTUNE equ 0F9Bh ;# 
   551  0000                     # 4386 "C:\Program Files (x86)\Microchip\xc8\v2.00\pic\include\pic18f4550.h"
   552                           PIE1 equ 0F9Dh ;# 
   553  0000                     # 4470 "C:\Program Files (x86)\Microchip\xc8\v2.00\pic\include\pic18f4550.h"
   554                           PIR1 equ 0F9Eh ;# 
   555  0000                     # 4554 "C:\Program Files (x86)\Microchip\xc8\v2.00\pic\include\pic18f4550.h"
   556                           IPR1 equ 0F9Fh ;# 
   557  0000                     # 4638 "C:\Program Files (x86)\Microchip\xc8\v2.00\pic\include\pic18f4550.h"
   558                           PIE2 equ 0FA0h ;# 
   559  0000                     # 4709 "C:\Program Files (x86)\Microchip\xc8\v2.00\pic\include\pic18f4550.h"
   560                           PIR2 equ 0FA1h ;# 
   561  0000                     # 4780 "C:\Program Files (x86)\Microchip\xc8\v2.00\pic\include\pic18f4550.h"
   562                           IPR2 equ 0FA2h ;# 
   563  0000                     # 4851 "C:\Program Files (x86)\Microchip\xc8\v2.00\pic\include\pic18f4550.h"
   564                           EECON1 equ 0FA6h ;# 
   565  0000                     # 4917 "C:\Program Files (x86)\Microchip\xc8\v2.00\pic\include\pic18f4550.h"
   566                           EECON2 equ 0FA7h ;# 
   567  0000                     # 4924 "C:\Program Files (x86)\Microchip\xc8\v2.00\pic\include\pic18f4550.h"
   568                           EEDATA equ 0FA8h ;# 
   569  0000                     # 4931 "C:\Program Files (x86)\Microchip\xc8\v2.00\pic\include\pic18f4550.h"
   570                           EEADR equ 0FA9h ;# 
   571  0000                     # 4938 "C:\Program Files (x86)\Microchip\xc8\v2.00\pic\include\pic18f4550.h"
   572                           RCSTA equ 0FABh ;# 
   573  0000                     # 4943 "C:\Program Files (x86)\Microchip\xc8\v2.00\pic\include\pic18f4550.h"
   574                           RCSTA1 equ 0FABh ;# 
   575  0000                     # 5148 "C:\Program Files (x86)\Microchip\xc8\v2.00\pic\include\pic18f4550.h"
   576                           TXSTA equ 0FACh ;# 
   577  0000                     # 5153 "C:\Program Files (x86)\Microchip\xc8\v2.00\pic\include\pic18f4550.h"
   578                           TXSTA1 equ 0FACh ;# 
   579  0000                     # 5404 "C:\Program Files (x86)\Microchip\xc8\v2.00\pic\include\pic18f4550.h"
   580                           TXREG equ 0FADh ;# 
   581  0000                     # 5409 "C:\Program Files (x86)\Microchip\xc8\v2.00\pic\include\pic18f4550.h"
   582                           TXREG1 equ 0FADh ;# 
   583  0000                     # 5416 "C:\Program Files (x86)\Microchip\xc8\v2.00\pic\include\pic18f4550.h"
   584                           RCREG equ 0FAEh ;# 
   585  0000                     # 5421 "C:\Program Files (x86)\Microchip\xc8\v2.00\pic\include\pic18f4550.h"
   586                           RCREG1 equ 0FAEh ;# 
   587  0000                     # 5428 "C:\Program Files (x86)\Microchip\xc8\v2.00\pic\include\pic18f4550.h"
   588                           SPBRG equ 0FAFh ;# 
   589  0000                     # 5433 "C:\Program Files (x86)\Microchip\xc8\v2.00\pic\include\pic18f4550.h"
   590                           SPBRG1 equ 0FAFh ;# 
   591  0000                     # 5440 "C:\Program Files (x86)\Microchip\xc8\v2.00\pic\include\pic18f4550.h"
   592                           SPBRGH equ 0FB0h ;# 
   593  0000                     # 5447 "C:\Program Files (x86)\Microchip\xc8\v2.00\pic\include\pic18f4550.h"
   594                           T3CON equ 0FB1h ;# 
   595  0000                     # 5568 "C:\Program Files (x86)\Microchip\xc8\v2.00\pic\include\pic18f4550.h"
   596                           TMR3 equ 0FB2h ;# 
   597  0000                     # 5575 "C:\Program Files (x86)\Microchip\xc8\v2.00\pic\include\pic18f4550.h"
   598                           TMR3L equ 0FB2h ;# 
   599  0000                     # 5582 "C:\Program Files (x86)\Microchip\xc8\v2.00\pic\include\pic18f4550.h"
   600                           TMR3H equ 0FB3h ;# 
   601  0000                     # 5589 "C:\Program Files (x86)\Microchip\xc8\v2.00\pic\include\pic18f4550.h"
   602                           CMCON equ 0FB4h ;# 
   603  0000                     # 5679 "C:\Program Files (x86)\Microchip\xc8\v2.00\pic\include\pic18f4550.h"
   604                           CVRCON equ 0FB5h ;# 
   605  0000                     # 5764 "C:\Program Files (x86)\Microchip\xc8\v2.00\pic\include\pic18f4550.h"
   606                           ECCP1AS equ 0FB6h ;# 
   607  0000                     # 5769 "C:\Program Files (x86)\Microchip\xc8\v2.00\pic\include\pic18f4550.h"
   608                           CCP1AS equ 0FB6h ;# 
   609  0000                     # 5926 "C:\Program Files (x86)\Microchip\xc8\v2.00\pic\include\pic18f4550.h"
   610                           ECCP1DEL equ 0FB7h ;# 
   611  0000                     # 5931 "C:\Program Files (x86)\Microchip\xc8\v2.00\pic\include\pic18f4550.h"
   612                           CCP1DEL equ 0FB7h ;# 
   613  0000                     # 6064 "C:\Program Files (x86)\Microchip\xc8\v2.00\pic\include\pic18f4550.h"
   614                           BAUDCON equ 0FB8h ;# 
   615  0000                     # 6069 "C:\Program Files (x86)\Microchip\xc8\v2.00\pic\include\pic18f4550.h"
   616                           BAUDCTL equ 0FB8h ;# 
   617  0000                     # 6244 "C:\Program Files (x86)\Microchip\xc8\v2.00\pic\include\pic18f4550.h"
   618                           CCP2CON equ 0FBAh ;# 
   619  0000                     # 6308 "C:\Program Files (x86)\Microchip\xc8\v2.00\pic\include\pic18f4550.h"
   620                           CCPR2 equ 0FBBh ;# 
   621  0000                     # 6315 "C:\Program Files (x86)\Microchip\xc8\v2.00\pic\include\pic18f4550.h"
   622                           CCPR2L equ 0FBBh ;# 
   623  0000                     # 6322 "C:\Program Files (x86)\Microchip\xc8\v2.00\pic\include\pic18f4550.h"
   624                           CCPR2H equ 0FBCh ;# 
   625  0000                     # 6329 "C:\Program Files (x86)\Microchip\xc8\v2.00\pic\include\pic18f4550.h"
   626                           CCP1CON equ 0FBDh ;# 
   627  0000                     # 6334 "C:\Program Files (x86)\Microchip\xc8\v2.00\pic\include\pic18f4550.h"
   628                           ECCP1CON equ 0FBDh ;# 
   629  0000                     # 6491 "C:\Program Files (x86)\Microchip\xc8\v2.00\pic\include\pic18f4550.h"
   630                           CCPR1 equ 0FBEh ;# 
   631  0000                     # 6498 "C:\Program Files (x86)\Microchip\xc8\v2.00\pic\include\pic18f4550.h"
   632                           CCPR1L equ 0FBEh ;# 
   633  0000                     # 6505 "C:\Program Files (x86)\Microchip\xc8\v2.00\pic\include\pic18f4550.h"
   634                           CCPR1H equ 0FBFh ;# 
   635  0000                     # 6512 "C:\Program Files (x86)\Microchip\xc8\v2.00\pic\include\pic18f4550.h"
   636                           ADCON2 equ 0FC0h ;# 
   637  0000                     # 6583 "C:\Program Files (x86)\Microchip\xc8\v2.00\pic\include\pic18f4550.h"
   638                           ADCON1 equ 0FC1h ;# 
   639  0000                     # 6668 "C:\Program Files (x86)\Microchip\xc8\v2.00\pic\include\pic18f4550.h"
   640                           ADCON0 equ 0FC2h ;# 
   641  0000                     # 6787 "C:\Program Files (x86)\Microchip\xc8\v2.00\pic\include\pic18f4550.h"
   642                           ADRES equ 0FC3h ;# 
   643  0000                     # 6794 "C:\Program Files (x86)\Microchip\xc8\v2.00\pic\include\pic18f4550.h"
   644                           ADRESL equ 0FC3h ;# 
   645  0000                     # 6801 "C:\Program Files (x86)\Microchip\xc8\v2.00\pic\include\pic18f4550.h"
   646                           ADRESH equ 0FC4h ;# 
   647  0000                     # 6808 "C:\Program Files (x86)\Microchip\xc8\v2.00\pic\include\pic18f4550.h"
   648                           SSPCON2 equ 0FC5h ;# 
   649  0000                     # 6870 "C:\Program Files (x86)\Microchip\xc8\v2.00\pic\include\pic18f4550.h"
   650                           SSPCON1 equ 0FC6h ;# 
   651  0000                     # 6940 "C:\Program Files (x86)\Microchip\xc8\v2.00\pic\include\pic18f4550.h"
   652                           SSPSTAT equ 0FC7h ;# 
   653  0000                     # 7188 "C:\Program Files (x86)\Microchip\xc8\v2.00\pic\include\pic18f4550.h"
   654                           SSPADD equ 0FC8h ;# 
   655  0000                     # 7195 "C:\Program Files (x86)\Microchip\xc8\v2.00\pic\include\pic18f4550.h"
   656                           SSPBUF equ 0FC9h ;# 
   657  0000                     # 7202 "C:\Program Files (x86)\Microchip\xc8\v2.00\pic\include\pic18f4550.h"
   658                           T2CON equ 0FCAh ;# 
   659  0000                     # 7300 "C:\Program Files (x86)\Microchip\xc8\v2.00\pic\include\pic18f4550.h"
   660                           PR2 equ 0FCBh ;# 
   661  0000                     # 7305 "C:\Program Files (x86)\Microchip\xc8\v2.00\pic\include\pic18f4550.h"
   662                           MEMCON equ 0FCBh ;# 
   663  0000                     # 7410 "C:\Program Files (x86)\Microchip\xc8\v2.00\pic\include\pic18f4550.h"
   664                           TMR2 equ 0FCCh ;# 
   665  0000                     # 7417 "C:\Program Files (x86)\Microchip\xc8\v2.00\pic\include\pic18f4550.h"
   666                           T1CON equ 0FCDh ;# 
   667  0000                     # 7520 "C:\Program Files (x86)\Microchip\xc8\v2.00\pic\include\pic18f4550.h"
   668                           TMR1 equ 0FCEh ;# 
   669  0000                     # 7527 "C:\Program Files (x86)\Microchip\xc8\v2.00\pic\include\pic18f4550.h"
   670                           TMR1L equ 0FCEh ;# 
   671  0000                     # 7534 "C:\Program Files (x86)\Microchip\xc8\v2.00\pic\include\pic18f4550.h"
   672                           TMR1H equ 0FCFh ;# 
   673  0000                     # 7541 "C:\Program Files (x86)\Microchip\xc8\v2.00\pic\include\pic18f4550.h"
   674                           RCON equ 0FD0h ;# 
   675  0000                     # 7690 "C:\Program Files (x86)\Microchip\xc8\v2.00\pic\include\pic18f4550.h"
   676                           WDTCON equ 0FD1h ;# 
   677  0000                     # 7718 "C:\Program Files (x86)\Microchip\xc8\v2.00\pic\include\pic18f4550.h"
   678                           HLVDCON equ 0FD2h ;# 
   679  0000                     # 7723 "C:\Program Files (x86)\Microchip\xc8\v2.00\pic\include\pic18f4550.h"
   680                           LVDCON equ 0FD2h ;# 
   681  0000                     # 7988 "C:\Program Files (x86)\Microchip\xc8\v2.00\pic\include\pic18f4550.h"
   682                           OSCCON equ 0FD3h ;# 
   683  0000                     # 8071 "C:\Program Files (x86)\Microchip\xc8\v2.00\pic\include\pic18f4550.h"
   684                           T0CON equ 0FD5h ;# 
   685  0000                     # 8141 "C:\Program Files (x86)\Microchip\xc8\v2.00\pic\include\pic18f4550.h"
   686                           TMR0 equ 0FD6h ;# 
   687  0000                     # 8148 "C:\Program Files (x86)\Microchip\xc8\v2.00\pic\include\pic18f4550.h"
   688                           TMR0L equ 0FD6h ;# 
   689  0000                     # 8155 "C:\Program Files (x86)\Microchip\xc8\v2.00\pic\include\pic18f4550.h"
   690                           TMR0H equ 0FD7h ;# 
   691  0000                     # 8162 "C:\Program Files (x86)\Microchip\xc8\v2.00\pic\include\pic18f4550.h"
   692                           STATUS equ 0FD8h ;# 
   693  0000                     # 8233 "C:\Program Files (x86)\Microchip\xc8\v2.00\pic\include\pic18f4550.h"
   694                           FSR2 equ 0FD9h ;# 
   695  0000                     # 8240 "C:\Program Files (x86)\Microchip\xc8\v2.00\pic\include\pic18f4550.h"
   696                           FSR2L equ 0FD9h ;# 
   697  0000                     # 8247 "C:\Program Files (x86)\Microchip\xc8\v2.00\pic\include\pic18f4550.h"
   698                           FSR2H equ 0FDAh ;# 
   699  0000                     # 8254 "C:\Program Files (x86)\Microchip\xc8\v2.00\pic\include\pic18f4550.h"
   700                           PLUSW2 equ 0FDBh ;# 
   701  0000                     # 8261 "C:\Program Files (x86)\Microchip\xc8\v2.00\pic\include\pic18f4550.h"
   702                           PREINC2 equ 0FDCh ;# 
   703  0000                     # 8268 "C:\Program Files (x86)\Microchip\xc8\v2.00\pic\include\pic18f4550.h"
   704                           POSTDEC2 equ 0FDDh ;# 
   705  0000                     # 8275 "C:\Program Files (x86)\Microchip\xc8\v2.00\pic\include\pic18f4550.h"
   706                           POSTINC2 equ 0FDEh ;# 
   707  0000                     # 8282 "C:\Program Files (x86)\Microchip\xc8\v2.00\pic\include\pic18f4550.h"
   708                           INDF2 equ 0FDFh ;# 
   709  0000                     # 8289 "C:\Program Files (x86)\Microchip\xc8\v2.00\pic\include\pic18f4550.h"
   710                           BSR equ 0FE0h ;# 
   711  0000                     # 8296 "C:\Program Files (x86)\Microchip\xc8\v2.00\pic\include\pic18f4550.h"
   712                           FSR1 equ 0FE1h ;# 
   713  0000                     # 8303 "C:\Program Files (x86)\Microchip\xc8\v2.00\pic\include\pic18f4550.h"
   714                           FSR1L equ 0FE1h ;# 
   715  0000                     # 8310 "C:\Program Files (x86)\Microchip\xc8\v2.00\pic\include\pic18f4550.h"
   716                           FSR1H equ 0FE2h ;# 
   717  0000                     # 8317 "C:\Program Files (x86)\Microchip\xc8\v2.00\pic\include\pic18f4550.h"
   718                           PLUSW1 equ 0FE3h ;# 
   719  0000                     # 8324 "C:\Program Files (x86)\Microchip\xc8\v2.00\pic\include\pic18f4550.h"
   720                           PREINC1 equ 0FE4h ;# 
   721  0000                     # 8331 "C:\Program Files (x86)\Microchip\xc8\v2.00\pic\include\pic18f4550.h"
   722                           POSTDEC1 equ 0FE5h ;# 
   723  0000                     # 8338 "C:\Program Files (x86)\Microchip\xc8\v2.00\pic\include\pic18f4550.h"
   724                           POSTINC1 equ 0FE6h ;# 
   725  0000                     # 8345 "C:\Program Files (x86)\Microchip\xc8\v2.00\pic\include\pic18f4550.h"
   726                           INDF1 equ 0FE7h ;# 
   727  0000                     # 8352 "C:\Program Files (x86)\Microchip\xc8\v2.00\pic\include\pic18f4550.h"
   728                           WREG equ 0FE8h ;# 
   729  0000                     # 8359 "C:\Program Files (x86)\Microchip\xc8\v2.00\pic\include\pic18f4550.h"
   730                           FSR0 equ 0FE9h ;# 
   731  0000                     # 8366 "C:\Program Files (x86)\Microchip\xc8\v2.00\pic\include\pic18f4550.h"
   732                           FSR0L equ 0FE9h ;# 
   733  0000                     # 8373 "C:\Program Files (x86)\Microchip\xc8\v2.00\pic\include\pic18f4550.h"
   734                           FSR0H equ 0FEAh ;# 
   735  0000                     # 8380 "C:\Program Files (x86)\Microchip\xc8\v2.00\pic\include\pic18f4550.h"
   736                           PLUSW0 equ 0FEBh ;# 
   737  0000                     # 8387 "C:\Program Files (x86)\Microchip\xc8\v2.00\pic\include\pic18f4550.h"
   738                           PREINC0 equ 0FECh ;# 
   739  0000                     # 8394 "C:\Program Files (x86)\Microchip\xc8\v2.00\pic\include\pic18f4550.h"
   740                           POSTDEC0 equ 0FEDh ;# 
   741  0000                     # 8401 "C:\Program Files (x86)\Microchip\xc8\v2.00\pic\include\pic18f4550.h"
   742                           POSTINC0 equ 0FEEh ;# 
   743  0000                     # 8408 "C:\Program Files (x86)\Microchip\xc8\v2.00\pic\include\pic18f4550.h"
   744                           INDF0 equ 0FEFh ;# 
   745  0000                     # 8415 "C:\Program Files (x86)\Microchip\xc8\v2.00\pic\include\pic18f4550.h"
   746                           INTCON3 equ 0FF0h ;# 
   747  0000                     # 8507 "C:\Program Files (x86)\Microchip\xc8\v2.00\pic\include\pic18f4550.h"
   748                           INTCON2 equ 0FF1h ;# 
   749  0000                     # 8584 "C:\Program Files (x86)\Microchip\xc8\v2.00\pic\include\pic18f4550.h"
   750                           INTCON equ 0FF2h ;# 
   751  0000                     # 8701 "C:\Program Files (x86)\Microchip\xc8\v2.00\pic\include\pic18f4550.h"
   752                           PROD equ 0FF3h ;# 
   753  0000                     # 8708 "C:\Program Files (x86)\Microchip\xc8\v2.00\pic\include\pic18f4550.h"
   754                           PRODL equ 0FF3h ;# 
   755  0000                     # 8715 "C:\Program Files (x86)\Microchip\xc8\v2.00\pic\include\pic18f4550.h"
   756                           PRODH equ 0FF4h ;# 
   757  0000                     # 8722 "C:\Program Files (x86)\Microchip\xc8\v2.00\pic\include\pic18f4550.h"
   758                           TABLAT equ 0FF5h ;# 
   759  0000                     # 8731 "C:\Program Files (x86)\Microchip\xc8\v2.00\pic\include\pic18f4550.h"
   760                           TBLPTR equ 0FF6h ;# 
   761  0000                     # 8738 "C:\Program Files (x86)\Microchip\xc8\v2.00\pic\include\pic18f4550.h"
   762                           TBLPTRL equ 0FF6h ;# 
   763  0000                     # 8745 "C:\Program Files (x86)\Microchip\xc8\v2.00\pic\include\pic18f4550.h"
   764                           TBLPTRH equ 0FF7h ;# 
   765  0000                     # 8752 "C:\Program Files (x86)\Microchip\xc8\v2.00\pic\include\pic18f4550.h"
   766                           TBLPTRU equ 0FF8h ;# 
   767  0000                     # 8761 "C:\Program Files (x86)\Microchip\xc8\v2.00\pic\include\pic18f4550.h"
   768                           PCLAT equ 0FF9h ;# 
   769  0000                     # 8768 "C:\Program Files (x86)\Microchip\xc8\v2.00\pic\include\pic18f4550.h"
   770                           PC equ 0FF9h ;# 
   771  0000                     # 8775 "C:\Program Files (x86)\Microchip\xc8\v2.00\pic\include\pic18f4550.h"
   772                           PCL equ 0FF9h ;# 
   773  0000                     # 8782 "C:\Program Files (x86)\Microchip\xc8\v2.00\pic\include\pic18f4550.h"
   774                           PCLATH equ 0FFAh ;# 
   775  0000                     # 8789 "C:\Program Files (x86)\Microchip\xc8\v2.00\pic\include\pic18f4550.h"
   776                           PCLATU equ 0FFBh ;# 
   777  0000                     # 8796 "C:\Program Files (x86)\Microchip\xc8\v2.00\pic\include\pic18f4550.h"
   778                           STKPTR equ 0FFCh ;# 
   779  0000                     # 8872 "C:\Program Files (x86)\Microchip\xc8\v2.00\pic\include\pic18f4550.h"
   780                           TOS equ 0FFDh ;# 
   781  0000                     # 8879 "C:\Program Files (x86)\Microchip\xc8\v2.00\pic\include\pic18f4550.h"
   782                           TOSL equ 0FFDh ;# 
   783  0000                     # 8886 "C:\Program Files (x86)\Microchip\xc8\v2.00\pic\include\pic18f4550.h"
   784                           TOSH equ 0FFEh ;# 
   785  0000                     # 8893 "C:\Program Files (x86)\Microchip\xc8\v2.00\pic\include\pic18f4550.h"
   786                           TOSU equ 0FFFh ;# 
   787  0000                     # 54 "C:\Program Files (x86)\Microchip\xc8\v2.00\pic\include\pic18f4550.h"
   788                           SPPDATA equ 0F62h ;# 
   789  0000                     # 74 "C:\Program Files (x86)\Microchip\xc8\v2.00\pic\include\pic18f4550.h"
   790                           SPPCFG equ 0F63h ;# 
   791  0000                     # 151 "C:\Program Files (x86)\Microchip\xc8\v2.00\pic\include\pic18f4550.h"
   792                           SPPEPS equ 0F64h ;# 
   793  0000                     # 225 "C:\Program Files (x86)\Microchip\xc8\v2.00\pic\include\pic18f4550.h"
   794                           SPPCON equ 0F65h ;# 
   795  0000                     # 251 "C:\Program Files (x86)\Microchip\xc8\v2.00\pic\include\pic18f4550.h"
   796                           UFRM equ 0F66h ;# 
   797  0000                     # 258 "C:\Program Files (x86)\Microchip\xc8\v2.00\pic\include\pic18f4550.h"
   798                           UFRML equ 0F66h ;# 
   799  0000                     # 336 "C:\Program Files (x86)\Microchip\xc8\v2.00\pic\include\pic18f4550.h"
   800                           UFRMH equ 0F67h ;# 
   801  0000                     # 376 "C:\Program Files (x86)\Microchip\xc8\v2.00\pic\include\pic18f4550.h"
   802                           UIR equ 0F68h ;# 
   803  0000                     # 432 "C:\Program Files (x86)\Microchip\xc8\v2.00\pic\include\pic18f4550.h"
   804                           UIE equ 0F69h ;# 
   805  0000                     # 488 "C:\Program Files (x86)\Microchip\xc8\v2.00\pic\include\pic18f4550.h"
   806                           UEIR equ 0F6Ah ;# 
   807  0000                     # 539 "C:\Program Files (x86)\Microchip\xc8\v2.00\pic\include\pic18f4550.h"
   808                           UEIE equ 0F6Bh ;# 
   809  0000                     # 590 "C:\Program Files (x86)\Microchip\xc8\v2.00\pic\include\pic18f4550.h"
   810                           USTAT equ 0F6Ch ;# 
   811  0000                     # 650 "C:\Program Files (x86)\Microchip\xc8\v2.00\pic\include\pic18f4550.h"
   812                           UCON equ 0F6Dh ;# 
   813  0000                     # 701 "C:\Program Files (x86)\Microchip\xc8\v2.00\pic\include\pic18f4550.h"
   814                           UADDR equ 0F6Eh ;# 
   815  0000                     # 765 "C:\Program Files (x86)\Microchip\xc8\v2.00\pic\include\pic18f4550.h"
   816                           UCFG equ 0F6Fh ;# 
   817  0000                     # 844 "C:\Program Files (x86)\Microchip\xc8\v2.00\pic\include\pic18f4550.h"
   818                           UEP0 equ 0F70h ;# 
   819  0000                     # 952 "C:\Program Files (x86)\Microchip\xc8\v2.00\pic\include\pic18f4550.h"
   820                           UEP1 equ 0F71h ;# 
   821  0000                     # 1060 "C:\Program Files (x86)\Microchip\xc8\v2.00\pic\include\pic18f4550.h"
   822                           UEP2 equ 0F72h ;# 
   823  0000                     # 1168 "C:\Program Files (x86)\Microchip\xc8\v2.00\pic\include\pic18f4550.h"
   824                           UEP3 equ 0F73h ;# 
   825  0000                     # 1276 "C:\Program Files (x86)\Microchip\xc8\v2.00\pic\include\pic18f4550.h"
   826                           UEP4 equ 0F74h ;# 
   827  0000                     # 1384 "C:\Program Files (x86)\Microchip\xc8\v2.00\pic\include\pic18f4550.h"
   828                           UEP5 equ 0F75h ;# 
   829  0000                     # 1492 "C:\Program Files (x86)\Microchip\xc8\v2.00\pic\include\pic18f4550.h"
   830                           UEP6 equ 0F76h ;# 
   831  0000                     # 1600 "C:\Program Files (x86)\Microchip\xc8\v2.00\pic\include\pic18f4550.h"
   832                           UEP7 equ 0F77h ;# 
   833  0000                     # 1708 "C:\Program Files (x86)\Microchip\xc8\v2.00\pic\include\pic18f4550.h"
   834                           UEP8 equ 0F78h ;# 
   835  0000                     # 1784 "C:\Program Files (x86)\Microchip\xc8\v2.00\pic\include\pic18f4550.h"
   836                           UEP9 equ 0F79h ;# 
   837  0000                     # 1860 "C:\Program Files (x86)\Microchip\xc8\v2.00\pic\include\pic18f4550.h"
   838                           UEP10 equ 0F7Ah ;# 
   839  0000                     # 1936 "C:\Program Files (x86)\Microchip\xc8\v2.00\pic\include\pic18f4550.h"
   840                           UEP11 equ 0F7Bh ;# 
   841  0000                     # 2012 "C:\Program Files (x86)\Microchip\xc8\v2.00\pic\include\pic18f4550.h"
   842                           UEP12 equ 0F7Ch ;# 
   843  0000                     # 2088 "C:\Program Files (x86)\Microchip\xc8\v2.00\pic\include\pic18f4550.h"
   844                           UEP13 equ 0F7Dh ;# 
   845  0000                     # 2164 "C:\Program Files (x86)\Microchip\xc8\v2.00\pic\include\pic18f4550.h"
   846                           UEP14 equ 0F7Eh ;# 
   847  0000                     # 2240 "C:\Program Files (x86)\Microchip\xc8\v2.00\pic\include\pic18f4550.h"
   848                           UEP15 equ 0F7Fh ;# 
   849  0000                     # 2316 "C:\Program Files (x86)\Microchip\xc8\v2.00\pic\include\pic18f4550.h"
   850                           PORTA equ 0F80h ;# 
   851  0000                     # 2455 "C:\Program Files (x86)\Microchip\xc8\v2.00\pic\include\pic18f4550.h"
   852                           PORTB equ 0F81h ;# 
   853  0000                     # 2565 "C:\Program Files (x86)\Microchip\xc8\v2.00\pic\include\pic18f4550.h"
   854                           PORTC equ 0F82h ;# 
   855  0000                     # 2707 "C:\Program Files (x86)\Microchip\xc8\v2.00\pic\include\pic18f4550.h"
   856                           PORTD equ 0F83h ;# 
   857  0000                     # 2828 "C:\Program Files (x86)\Microchip\xc8\v2.00\pic\include\pic18f4550.h"
   858                           PORTE equ 0F84h ;# 
   859  0000                     # 2975 "C:\Program Files (x86)\Microchip\xc8\v2.00\pic\include\pic18f4550.h"
   860                           LATA equ 0F89h ;# 
   861  0000                     # 3075 "C:\Program Files (x86)\Microchip\xc8\v2.00\pic\include\pic18f4550.h"
   862                           LATB equ 0F8Ah ;# 
   863  0000                     # 3187 "C:\Program Files (x86)\Microchip\xc8\v2.00\pic\include\pic18f4550.h"
   864                           LATC equ 0F8Bh ;# 
   865  0000                     # 3265 "C:\Program Files (x86)\Microchip\xc8\v2.00\pic\include\pic18f4550.h"
   866                           LATD equ 0F8Ch ;# 
   867  0000                     # 3377 "C:\Program Files (x86)\Microchip\xc8\v2.00\pic\include\pic18f4550.h"
   868                           LATE equ 0F8Dh ;# 
   869  0000                     # 3429 "C:\Program Files (x86)\Microchip\xc8\v2.00\pic\include\pic18f4550.h"
   870                           TRISA equ 0F92h ;# 
   871  0000                     # 3434 "C:\Program Files (x86)\Microchip\xc8\v2.00\pic\include\pic18f4550.h"
   872                           DDRA equ 0F92h ;# 
   873  0000                     # 3627 "C:\Program Files (x86)\Microchip\xc8\v2.00\pic\include\pic18f4550.h"
   874                           TRISB equ 0F93h ;# 
   875  0000                     # 3632 "C:\Program Files (x86)\Microchip\xc8\v2.00\pic\include\pic18f4550.h"
   876                           DDRB equ 0F93h ;# 
   877  0000                     # 3849 "C:\Program Files (x86)\Microchip\xc8\v2.00\pic\include\pic18f4550.h"
   878                           TRISC equ 0F94h ;# 
   879  0000                     # 3854 "C:\Program Files (x86)\Microchip\xc8\v2.00\pic\include\pic18f4550.h"
   880                           DDRC equ 0F94h ;# 
   881  0000                     # 4003 "C:\Program Files (x86)\Microchip\xc8\v2.00\pic\include\pic18f4550.h"
   882                           TRISD equ 0F95h ;# 
   883  0000                     # 4008 "C:\Program Files (x86)\Microchip\xc8\v2.00\pic\include\pic18f4550.h"
   884                           DDRD equ 0F95h ;# 
   885  0000                     # 4225 "C:\Program Files (x86)\Microchip\xc8\v2.00\pic\include\pic18f4550.h"
   886                           TRISE equ 0F96h ;# 
   887  0000                     # 4230 "C:\Program Files (x86)\Microchip\xc8\v2.00\pic\include\pic18f4550.h"
   888                           DDRE equ 0F96h ;# 
   889  0000                     # 4327 "C:\Program Files (x86)\Microchip\xc8\v2.00\pic\include\pic18f4550.h"
   890                           OSCTUNE equ 0F9Bh ;# 
   891  0000                     # 4386 "C:\Program Files (x86)\Microchip\xc8\v2.00\pic\include\pic18f4550.h"
   892                           PIE1 equ 0F9Dh ;# 
   893  0000                     # 4470 "C:\Program Files (x86)\Microchip\xc8\v2.00\pic\include\pic18f4550.h"
   894                           PIR1 equ 0F9Eh ;# 
   895  0000                     # 4554 "C:\Program Files (x86)\Microchip\xc8\v2.00\pic\include\pic18f4550.h"
   896                           IPR1 equ 0F9Fh ;# 
   897  0000                     # 4638 "C:\Program Files (x86)\Microchip\xc8\v2.00\pic\include\pic18f4550.h"
   898                           PIE2 equ 0FA0h ;# 
   899  0000                     # 4709 "C:\Program Files (x86)\Microchip\xc8\v2.00\pic\include\pic18f4550.h"
   900                           PIR2 equ 0FA1h ;# 
   901  0000                     # 4780 "C:\Program Files (x86)\Microchip\xc8\v2.00\pic\include\pic18f4550.h"
   902                           IPR2 equ 0FA2h ;# 
   903  0000                     # 4851 "C:\Program Files (x86)\Microchip\xc8\v2.00\pic\include\pic18f4550.h"
   904                           EECON1 equ 0FA6h ;# 
   905  0000                     # 4917 "C:\Program Files (x86)\Microchip\xc8\v2.00\pic\include\pic18f4550.h"
   906                           EECON2 equ 0FA7h ;# 
   907  0000                     # 4924 "C:\Program Files (x86)\Microchip\xc8\v2.00\pic\include\pic18f4550.h"
   908                           EEDATA equ 0FA8h ;# 
   909  0000                     # 4931 "C:\Program Files (x86)\Microchip\xc8\v2.00\pic\include\pic18f4550.h"
   910                           EEADR equ 0FA9h ;# 
   911  0000                     # 4938 "C:\Program Files (x86)\Microchip\xc8\v2.00\pic\include\pic18f4550.h"
   912                           RCSTA equ 0FABh ;# 
   913  0000                     # 4943 "C:\Program Files (x86)\Microchip\xc8\v2.00\pic\include\pic18f4550.h"
   914                           RCSTA1 equ 0FABh ;# 
   915  0000                     # 5148 "C:\Program Files (x86)\Microchip\xc8\v2.00\pic\include\pic18f4550.h"
   916                           TXSTA equ 0FACh ;# 
   917  0000                     # 5153 "C:\Program Files (x86)\Microchip\xc8\v2.00\pic\include\pic18f4550.h"
   918                           TXSTA1 equ 0FACh ;# 
   919  0000                     # 5404 "C:\Program Files (x86)\Microchip\xc8\v2.00\pic\include\pic18f4550.h"
   920                           TXREG equ 0FADh ;# 
   921  0000                     # 5409 "C:\Program Files (x86)\Microchip\xc8\v2.00\pic\include\pic18f4550.h"
   922                           TXREG1 equ 0FADh ;# 
   923  0000                     # 5416 "C:\Program Files (x86)\Microchip\xc8\v2.00\pic\include\pic18f4550.h"
   924                           RCREG equ 0FAEh ;# 
   925  0000                     # 5421 "C:\Program Files (x86)\Microchip\xc8\v2.00\pic\include\pic18f4550.h"
   926                           RCREG1 equ 0FAEh ;# 
   927  0000                     # 5428 "C:\Program Files (x86)\Microchip\xc8\v2.00\pic\include\pic18f4550.h"
   928                           SPBRG equ 0FAFh ;# 
   929  0000                     # 5433 "C:\Program Files (x86)\Microchip\xc8\v2.00\pic\include\pic18f4550.h"
   930                           SPBRG1 equ 0FAFh ;# 
   931  0000                     # 5440 "C:\Program Files (x86)\Microchip\xc8\v2.00\pic\include\pic18f4550.h"
   932                           SPBRGH equ 0FB0h ;# 
   933  0000                     # 5447 "C:\Program Files (x86)\Microchip\xc8\v2.00\pic\include\pic18f4550.h"
   934                           T3CON equ 0FB1h ;# 
   935  0000                     # 5568 "C:\Program Files (x86)\Microchip\xc8\v2.00\pic\include\pic18f4550.h"
   936                           TMR3 equ 0FB2h ;# 
   937  0000                     # 5575 "C:\Program Files (x86)\Microchip\xc8\v2.00\pic\include\pic18f4550.h"
   938                           TMR3L equ 0FB2h ;# 
   939  0000                     # 5582 "C:\Program Files (x86)\Microchip\xc8\v2.00\pic\include\pic18f4550.h"
   940                           TMR3H equ 0FB3h ;# 
   941  0000                     # 5589 "C:\Program Files (x86)\Microchip\xc8\v2.00\pic\include\pic18f4550.h"
   942                           CMCON equ 0FB4h ;# 
   943  0000                     # 5679 "C:\Program Files (x86)\Microchip\xc8\v2.00\pic\include\pic18f4550.h"
   944                           CVRCON equ 0FB5h ;# 
   945  0000                     # 5764 "C:\Program Files (x86)\Microchip\xc8\v2.00\pic\include\pic18f4550.h"
   946                           ECCP1AS equ 0FB6h ;# 
   947  0000                     # 5769 "C:\Program Files (x86)\Microchip\xc8\v2.00\pic\include\pic18f4550.h"
   948                           CCP1AS equ 0FB6h ;# 
   949  0000                     # 5926 "C:\Program Files (x86)\Microchip\xc8\v2.00\pic\include\pic18f4550.h"
   950                           ECCP1DEL equ 0FB7h ;# 
   951  0000                     # 5931 "C:\Program Files (x86)\Microchip\xc8\v2.00\pic\include\pic18f4550.h"
   952                           CCP1DEL equ 0FB7h ;# 
   953  0000                     # 6064 "C:\Program Files (x86)\Microchip\xc8\v2.00\pic\include\pic18f4550.h"
   954                           BAUDCON equ 0FB8h ;# 
   955  0000                     # 6069 "C:\Program Files (x86)\Microchip\xc8\v2.00\pic\include\pic18f4550.h"
   956                           BAUDCTL equ 0FB8h ;# 
   957  0000                     # 6244 "C:\Program Files (x86)\Microchip\xc8\v2.00\pic\include\pic18f4550.h"
   958                           CCP2CON equ 0FBAh ;# 
   959  0000                     # 6308 "C:\Program Files (x86)\Microchip\xc8\v2.00\pic\include\pic18f4550.h"
   960                           CCPR2 equ 0FBBh ;# 
   961  0000                     # 6315 "C:\Program Files (x86)\Microchip\xc8\v2.00\pic\include\pic18f4550.h"
   962                           CCPR2L equ 0FBBh ;# 
   963  0000                     # 6322 "C:\Program Files (x86)\Microchip\xc8\v2.00\pic\include\pic18f4550.h"
   964                           CCPR2H equ 0FBCh ;# 
   965  0000                     # 6329 "C:\Program Files (x86)\Microchip\xc8\v2.00\pic\include\pic18f4550.h"
   966                           CCP1CON equ 0FBDh ;# 
   967  0000                     # 6334 "C:\Program Files (x86)\Microchip\xc8\v2.00\pic\include\pic18f4550.h"
   968                           ECCP1CON equ 0FBDh ;# 
   969  0000                     # 6491 "C:\Program Files (x86)\Microchip\xc8\v2.00\pic\include\pic18f4550.h"
   970                           CCPR1 equ 0FBEh ;# 
   971  0000                     # 6498 "C:\Program Files (x86)\Microchip\xc8\v2.00\pic\include\pic18f4550.h"
   972                           CCPR1L equ 0FBEh ;# 
   973  0000                     # 6505 "C:\Program Files (x86)\Microchip\xc8\v2.00\pic\include\pic18f4550.h"
   974                           CCPR1H equ 0FBFh ;# 
   975  0000                     # 6512 "C:\Program Files (x86)\Microchip\xc8\v2.00\pic\include\pic18f4550.h"
   976                           ADCON2 equ 0FC0h ;# 
   977  0000                     # 6583 "C:\Program Files (x86)\Microchip\xc8\v2.00\pic\include\pic18f4550.h"
   978                           ADCON1 equ 0FC1h ;# 
   979  0000                     # 6668 "C:\Program Files (x86)\Microchip\xc8\v2.00\pic\include\pic18f4550.h"
   980                           ADCON0 equ 0FC2h ;# 
   981  0000                     # 6787 "C:\Program Files (x86)\Microchip\xc8\v2.00\pic\include\pic18f4550.h"
   982                           ADRES equ 0FC3h ;# 
   983  0000                     # 6794 "C:\Program Files (x86)\Microchip\xc8\v2.00\pic\include\pic18f4550.h"
   984                           ADRESL equ 0FC3h ;# 
   985  0000                     # 6801 "C:\Program Files (x86)\Microchip\xc8\v2.00\pic\include\pic18f4550.h"
   986                           ADRESH equ 0FC4h ;# 
   987  0000                     # 6808 "C:\Program Files (x86)\Microchip\xc8\v2.00\pic\include\pic18f4550.h"
   988                           SSPCON2 equ 0FC5h ;# 
   989  0000                     # 6870 "C:\Program Files (x86)\Microchip\xc8\v2.00\pic\include\pic18f4550.h"
   990                           SSPCON1 equ 0FC6h ;# 
   991  0000                     # 6940 "C:\Program Files (x86)\Microchip\xc8\v2.00\pic\include\pic18f4550.h"
   992                           SSPSTAT equ 0FC7h ;# 
   993  0000                     # 7188 "C:\Program Files (x86)\Microchip\xc8\v2.00\pic\include\pic18f4550.h"
   994                           SSPADD equ 0FC8h ;# 
   995  0000                     # 7195 "C:\Program Files (x86)\Microchip\xc8\v2.00\pic\include\pic18f4550.h"
   996                           SSPBUF equ 0FC9h ;# 
   997  0000                     # 7202 "C:\Program Files (x86)\Microchip\xc8\v2.00\pic\include\pic18f4550.h"
   998                           T2CON equ 0FCAh ;# 
   999  0000                     # 7300 "C:\Program Files (x86)\Microchip\xc8\v2.00\pic\include\pic18f4550.h"
  1000                           PR2 equ 0FCBh ;# 
  1001  0000                     # 7305 "C:\Program Files (x86)\Microchip\xc8\v2.00\pic\include\pic18f4550.h"
  1002                           MEMCON equ 0FCBh ;# 
  1003  0000                     # 7410 "C:\Program Files (x86)\Microchip\xc8\v2.00\pic\include\pic18f4550.h"
  1004                           TMR2 equ 0FCCh ;# 
  1005  0000                     # 7417 "C:\Program Files (x86)\Microchip\xc8\v2.00\pic\include\pic18f4550.h"
  1006                           T1CON equ 0FCDh ;# 
  1007  0000                     # 7520 "C:\Program Files (x86)\Microchip\xc8\v2.00\pic\include\pic18f4550.h"
  1008                           TMR1 equ 0FCEh ;# 
  1009  0000                     # 7527 "C:\Program Files (x86)\Microchip\xc8\v2.00\pic\include\pic18f4550.h"
  1010                           TMR1L equ 0FCEh ;# 
  1011  0000                     # 7534 "C:\Program Files (x86)\Microchip\xc8\v2.00\pic\include\pic18f4550.h"
  1012                           TMR1H equ 0FCFh ;# 
  1013  0000                     # 7541 "C:\Program Files (x86)\Microchip\xc8\v2.00\pic\include\pic18f4550.h"
  1014                           RCON equ 0FD0h ;# 
  1015  0000                     # 7690 "C:\Program Files (x86)\Microchip\xc8\v2.00\pic\include\pic18f4550.h"
  1016                           WDTCON equ 0FD1h ;# 
  1017  0000                     # 7718 "C:\Program Files (x86)\Microchip\xc8\v2.00\pic\include\pic18f4550.h"
  1018                           HLVDCON equ 0FD2h ;# 
  1019  0000                     # 7723 "C:\Program Files (x86)\Microchip\xc8\v2.00\pic\include\pic18f4550.h"
  1020                           LVDCON equ 0FD2h ;# 
  1021  0000                     # 7988 "C:\Program Files (x86)\Microchip\xc8\v2.00\pic\include\pic18f4550.h"
  1022                           OSCCON equ 0FD3h ;# 
  1023  0000                     # 8071 "C:\Program Files (x86)\Microchip\xc8\v2.00\pic\include\pic18f4550.h"
  1024                           T0CON equ 0FD5h ;# 
  1025  0000                     # 8141 "C:\Program Files (x86)\Microchip\xc8\v2.00\pic\include\pic18f4550.h"
  1026                           TMR0 equ 0FD6h ;# 
  1027  0000                     # 8148 "C:\Program Files (x86)\Microchip\xc8\v2.00\pic\include\pic18f4550.h"
  1028                           TMR0L equ 0FD6h ;# 
  1029  0000                     # 8155 "C:\Program Files (x86)\Microchip\xc8\v2.00\pic\include\pic18f4550.h"
  1030                           TMR0H equ 0FD7h ;# 
  1031  0000                     # 8162 "C:\Program Files (x86)\Microchip\xc8\v2.00\pic\include\pic18f4550.h"
  1032                           STATUS equ 0FD8h ;# 
  1033  0000                     # 8233 "C:\Program Files (x86)\Microchip\xc8\v2.00\pic\include\pic18f4550.h"
  1034                           FSR2 equ 0FD9h ;# 
  1035  0000                     # 8240 "C:\Program Files (x86)\Microchip\xc8\v2.00\pic\include\pic18f4550.h"
  1036                           FSR2L equ 0FD9h ;# 
  1037  0000                     # 8247 "C:\Program Files (x86)\Microchip\xc8\v2.00\pic\include\pic18f4550.h"
  1038                           FSR2H equ 0FDAh ;# 
  1039  0000                     # 8254 "C:\Program Files (x86)\Microchip\xc8\v2.00\pic\include\pic18f4550.h"
  1040                           PLUSW2 equ 0FDBh ;# 
  1041  0000                     # 8261 "C:\Program Files (x86)\Microchip\xc8\v2.00\pic\include\pic18f4550.h"
  1042                           PREINC2 equ 0FDCh ;# 
  1043  0000                     # 8268 "C:\Program Files (x86)\Microchip\xc8\v2.00\pic\include\pic18f4550.h"
  1044                           POSTDEC2 equ 0FDDh ;# 
  1045  0000                     # 8275 "C:\Program Files (x86)\Microchip\xc8\v2.00\pic\include\pic18f4550.h"
  1046                           POSTINC2 equ 0FDEh ;# 
  1047  0000                     # 8282 "C:\Program Files (x86)\Microchip\xc8\v2.00\pic\include\pic18f4550.h"
  1048                           INDF2 equ 0FDFh ;# 
  1049  0000                     # 8289 "C:\Program Files (x86)\Microchip\xc8\v2.00\pic\include\pic18f4550.h"
  1050                           BSR equ 0FE0h ;# 
  1051  0000                     # 8296 "C:\Program Files (x86)\Microchip\xc8\v2.00\pic\include\pic18f4550.h"
  1052                           FSR1 equ 0FE1h ;# 
  1053  0000                     # 8303 "C:\Program Files (x86)\Microchip\xc8\v2.00\pic\include\pic18f4550.h"
  1054                           FSR1L equ 0FE1h ;# 
  1055  0000                     # 8310 "C:\Program Files (x86)\Microchip\xc8\v2.00\pic\include\pic18f4550.h"
  1056                           FSR1H equ 0FE2h ;# 
  1057  0000                     # 8317 "C:\Program Files (x86)\Microchip\xc8\v2.00\pic\include\pic18f4550.h"
  1058                           PLUSW1 equ 0FE3h ;# 
  1059  0000                     # 8324 "C:\Program Files (x86)\Microchip\xc8\v2.00\pic\include\pic18f4550.h"
  1060                           PREINC1 equ 0FE4h ;# 
  1061  0000                     # 8331 "C:\Program Files (x86)\Microchip\xc8\v2.00\pic\include\pic18f4550.h"
  1062                           POSTDEC1 equ 0FE5h ;# 
  1063  0000                     # 8338 "C:\Program Files (x86)\Microchip\xc8\v2.00\pic\include\pic18f4550.h"
  1064                           POSTINC1 equ 0FE6h ;# 
  1065  0000                     # 8345 "C:\Program Files (x86)\Microchip\xc8\v2.00\pic\include\pic18f4550.h"
  1066                           INDF1 equ 0FE7h ;# 
  1067  0000                     # 8352 "C:\Program Files (x86)\Microchip\xc8\v2.00\pic\include\pic18f4550.h"
  1068                           WREG equ 0FE8h ;# 
  1069  0000                     # 8359 "C:\Program Files (x86)\Microchip\xc8\v2.00\pic\include\pic18f4550.h"
  1070                           FSR0 equ 0FE9h ;# 
  1071  0000                     # 8366 "C:\Program Files (x86)\Microchip\xc8\v2.00\pic\include\pic18f4550.h"
  1072                           FSR0L equ 0FE9h ;# 
  1073  0000                     # 8373 "C:\Program Files (x86)\Microchip\xc8\v2.00\pic\include\pic18f4550.h"
  1074                           FSR0H equ 0FEAh ;# 
  1075  0000                     # 8380 "C:\Program Files (x86)\Microchip\xc8\v2.00\pic\include\pic18f4550.h"
  1076                           PLUSW0 equ 0FEBh ;# 
  1077  0000                     # 8387 "C:\Program Files (x86)\Microchip\xc8\v2.00\pic\include\pic18f4550.h"
  1078                           PREINC0 equ 0FECh ;# 
  1079  0000                     # 8394 "C:\Program Files (x86)\Microchip\xc8\v2.00\pic\include\pic18f4550.h"
  1080                           POSTDEC0 equ 0FEDh ;# 
  1081  0000                     # 8401 "C:\Program Files (x86)\Microchip\xc8\v2.00\pic\include\pic18f4550.h"
  1082                           POSTINC0 equ 0FEEh ;# 
  1083  0000                     # 8408 "C:\Program Files (x86)\Microchip\xc8\v2.00\pic\include\pic18f4550.h"
  1084                           INDF0 equ 0FEFh ;# 
  1085  0000                     # 8415 "C:\Program Files (x86)\Microchip\xc8\v2.00\pic\include\pic18f4550.h"
  1086                           INTCON3 equ 0FF0h ;# 
  1087  0000                     # 8507 "C:\Program Files (x86)\Microchip\xc8\v2.00\pic\include\pic18f4550.h"
  1088                           INTCON2 equ 0FF1h ;# 
  1089  0000                     # 8584 "C:\Program Files (x86)\Microchip\xc8\v2.00\pic\include\pic18f4550.h"
  1090                           INTCON equ 0FF2h ;# 
  1091  0000                     # 8701 "C:\Program Files (x86)\Microchip\xc8\v2.00\pic\include\pic18f4550.h"
  1092                           PROD equ 0FF3h ;# 
  1093  0000                     # 8708 "C:\Program Files (x86)\Microchip\xc8\v2.00\pic\include\pic18f4550.h"
  1094                           PRODL equ 0FF3h ;# 
  1095  0000                     # 8715 "C:\Program Files (x86)\Microchip\xc8\v2.00\pic\include\pic18f4550.h"
  1096                           PRODH equ 0FF4h ;# 
  1097  0000                     # 8722 "C:\Program Files (x86)\Microchip\xc8\v2.00\pic\include\pic18f4550.h"
  1098                           TABLAT equ 0FF5h ;# 
  1099  0000                     # 8731 "C:\Program Files (x86)\Microchip\xc8\v2.00\pic\include\pic18f4550.h"
  1100                           TBLPTR equ 0FF6h ;# 
  1101  0000                     # 8738 "C:\Program Files (x86)\Microchip\xc8\v2.00\pic\include\pic18f4550.h"
  1102                           TBLPTRL equ 0FF6h ;# 
  1103  0000                     # 8745 "C:\Program Files (x86)\Microchip\xc8\v2.00\pic\include\pic18f4550.h"
  1104                           TBLPTRH equ 0FF7h ;# 
  1105  0000                     # 8752 "C:\Program Files (x86)\Microchip\xc8\v2.00\pic\include\pic18f4550.h"
  1106                           TBLPTRU equ 0FF8h ;# 
  1107  0000                     # 8761 "C:\Program Files (x86)\Microchip\xc8\v2.00\pic\include\pic18f4550.h"
  1108                           PCLAT equ 0FF9h ;# 
  1109  0000                     # 8768 "C:\Program Files (x86)\Microchip\xc8\v2.00\pic\include\pic18f4550.h"
  1110                           PC equ 0FF9h ;# 
  1111  0000                     # 8775 "C:\Program Files (x86)\Microchip\xc8\v2.00\pic\include\pic18f4550.h"
  1112                           PCL equ 0FF9h ;# 
  1113  0000                     # 8782 "C:\Program Files (x86)\Microchip\xc8\v2.00\pic\include\pic18f4550.h"
  1114                           PCLATH equ 0FFAh ;# 
  1115  0000                     # 8789 "C:\Program Files (x86)\Microchip\xc8\v2.00\pic\include\pic18f4550.h"
  1116                           PCLATU equ 0FFBh ;# 
  1117  0000                     # 8796 "C:\Program Files (x86)\Microchip\xc8\v2.00\pic\include\pic18f4550.h"
  1118                           STKPTR equ 0FFCh ;# 
  1119  0000                     # 8872 "C:\Program Files (x86)\Microchip\xc8\v2.00\pic\include\pic18f4550.h"
  1120                           TOS equ 0FFDh ;# 
  1121  0000                     # 8879 "C:\Program Files (x86)\Microchip\xc8\v2.00\pic\include\pic18f4550.h"
  1122                           TOSL equ 0FFDh ;# 
  1123  0000                     # 8886 "C:\Program Files (x86)\Microchip\xc8\v2.00\pic\include\pic18f4550.h"
  1124                           TOSH equ 0FFEh ;# 
  1125  0000                     # 8893 "C:\Program Files (x86)\Microchip\xc8\v2.00\pic\include\pic18f4550.h"
  1126                           TOSU equ 0FFFh ;# 
  1127  0000                     	FNCALL	_main,_configuracionInicial
  1128                           	FNCALL	_main,_loop
  1129                           	FNCALL	_main,_setup
  1130                           	FNCALL	_setup,_pinMode
  1131                           	FNCALL	_loop,_RobotAdelante
  1132                           	FNCALL	_loop,_RobotCCW
  1133                           	FNCALL	_loop,_RobotCW
  1134                           	FNCALL	_loop,_digitalRead
  1135                           	FNCALL	_RobotCW,_M1Atras
  1136                           	FNCALL	_RobotCW,_M2Adelante
  1137                           	FNCALL	_RobotCW,_analogWrite
  1138                           	FNCALL	_M1Atras,_digitalWrite
  1139                           	FNCALL	_RobotCCW,_M1Adelante
  1140                           	FNCALL	_RobotCCW,_M2Atras
  1141                           	FNCALL	_RobotCCW,_analogWrite
  1142                           	FNCALL	_M2Atras,_digitalWrite
  1143                           	FNCALL	_RobotAdelante,_M1Adelante
  1144                           	FNCALL	_RobotAdelante,_M2Adelante
  1145                           	FNCALL	_RobotAdelante,_analogWrite
  1146                           	FNCALL	_analogWrite,_PWM_Max_Duty
  1147                           	FNCALL	_analogWrite,___fldiv
  1148                           	FNCALL	_analogWrite,___flmul
  1149                           	FNCALL	_analogWrite,___fltol
  1150                           	FNCALL	_analogWrite,___xxtofl
  1151                           	FNCALL	_PWM_Max_Duty,___aldiv
  1152                           	FNCALL	_M2Adelante,_digitalWrite
  1153                           	FNCALL	_M1Adelante,_digitalWrite
  1154                           	FNCALL	_configuracionInicial,_ADCConfig
  1155                           	FNCALL	_configuracionInicial,_CCPConfig
  1156                           	FNCALL	_configuracionInicial,_PORTSConfiguration
  1157                           	FNCALL	_configuracionInicial,_TMR0Config
  1158                           	FNCALL	_configuracionInicial,_TMR1Config
  1159                           	FNCALL	_CCPConfig,_PWM1_Init
  1160                           	FNCALL	_CCPConfig,_PWM1_Start
  1161                           	FNCALL	_CCPConfig,_PWM2_Init
  1162                           	FNCALL	_CCPConfig,_PWM2_Start
  1163                           	FNCALL	_PWM2_Init,___aldiv
  1164                           	FNCALL	_PWM1_Init,___aldiv
  1165                           	FNROOT	_main
  1166                           	FNCALL	intlevel2,_TimerOverflow
  1167                           	global	intlevel2
  1168                           	FNROOT	intlevel2
  1169                           	global	_SensorDer
  1170                           	global	_SensorIzq
  1171                           	global	_PWM
  1172                           	global	_control4
  1173                           	global	_control3
  1174                           	global	_control2
  1175                           	global	_control1
  1176                           psect	idataBANK0,class=CODE,space=0,delta=1,noexec
  1177                           global __pidataBANK0
  1178                           __pidataBANK0:
  1179  006241                     	file	"application.c"
  1180                           	line	11
  1181                           
  1182                           ;initializer for _SensorDer
  1183                           	db	low(015h)
  1184  006241  15                 	line	10
  1185                           
  1186                           ;initializer for _SensorIzq
  1187                           	db	low(016h)
  1188  006242  16                 	line	8
  1189                           
  1190                           ;initializer for _PWM
  1191                           	db	low(03h)
  1192  006243  03                 	line	7
  1193                           
  1194                           ;initializer for _control4
  1195                           	db	low(08h)
  1196  006244  08                 	line	6
  1197                           
  1198                           ;initializer for _control3
  1199                           	db	low(07h)
  1200  006245  07                 	line	5
  1201                           
  1202                           ;initializer for _control2
  1203                           	db	low(06h)
  1204  006246  06                 	line	4
  1205                           
  1206                           ;initializer for _control1
  1207                           	db	low(05h)
  1208  006247  05                 	global	_millis
  1209                           	global	_SPBRG_Register
  1210                           psect	nvBANK0,class=BANK0,space=1,noexec,lowdata
  1211                           global __pnvBANK0
  1212                           __pnvBANK0:
  1213  00006E                     	global	_SPBRG_Register
  1214                           _SPBRG_Register:
  1215  00006E                            ds      2
  1216  00006E                     	global	_freq
  1217                           	global	_freq
  1218                           _freq:
  1219  000070                            ds      4
  1220  000070                     	global	_TMR0
  1221                           _TMR0	set	0xFD6
  1222  0000                     	global	_RCREG
  1223                           _RCREG	set	0xFAE
  1224  0000                     	global	_TXREG
  1225                           _TXREG	set	0xFAD
  1226  0000                     	global	_PR2
  1227                           _PR2	set	0xFCB
  1228  0000                     	global	_PORTEbits
  1229                           _PORTEbits	set	0xF84
  1230  0000                     	global	_TRISEbits
  1231                           _TRISEbits	set	0xF96
  1232  0000                     	global	_TRISD
  1233                           _TRISD	set	0xF95
  1234  0000                     	global	_TRISC
  1235                           _TRISC	set	0xF94
  1236  0000                     	global	_TRISB
  1237                           _TRISB	set	0xF93
  1238  0000                     	global	_TRISA
  1239                           _TRISA	set	0xF92
  1240  0000                     	global	_TMR1H
  1241                           _TMR1H	set	0xFCF
  1242  0000                     	global	_TMR1L
  1243                           _TMR1L	set	0xFCE
  1244  0000                     	global	_T1CONbits
  1245                           _T1CONbits	set	0xFCD
  1246  0000                     	global	_T1CON
  1247                           _T1CON	set	0xFCD
  1248  0000                     	global	_TMR0H
  1249                           _TMR0H	set	0xFD7
  1250  0000                     	global	_TMR0L
  1251                           _TMR0L	set	0xFD6
  1252  0000                     	global	_INTCONbits
  1253                           _INTCONbits	set	0xFF2
  1254  0000                     	global	_CCPR2L
  1255                           _CCPR2L	set	0xFBB
  1256  0000                     	global	_CCP2CONbits
  1257                           _CCP2CONbits	set	0xFBA
  1258  0000                     	global	_CCPR1L
  1259                           _CCPR1L	set	0xFBE
  1260  0000                     	global	_CCP1CONbits
  1261                           _CCP1CONbits	set	0xFBD
  1262  0000                     	global	_ADCON2
  1263                           _ADCON2	set	0xFC0
  1264  0000                     	global	_ADCON1
  1265                           _ADCON1	set	0xFC1
  1266  0000                     	global	_ADRESL
  1267                           _ADRESL	set	0xFC3
  1268  0000                     	global	_ADRESH
  1269                           _ADRESH	set	0xFC4
  1270  0000                     	global	_ADCON0bits
  1271                           _ADCON0bits	set	0xFC2
  1272  0000                     	global	_ADCON0
  1273                           _ADCON0	set	0xFC2
  1274  0000                     	global	_PORTBbits
  1275                           _PORTBbits	set	0xF81
  1276  0000                     	global	_PORTDbits
  1277                           _PORTDbits	set	0xF83
  1278  0000                     	global	_PORTCbits
  1279                           _PORTCbits	set	0xF82
  1280  0000                     	global	_PORTAbits
  1281                           _PORTAbits	set	0xF80
  1282  0000                     	global	_LATBbits
  1283                           _LATBbits	set	0xF8A
  1284  0000                     	global	_LATDbits
  1285                           _LATDbits	set	0xF8C
  1286  0000                     	global	_LATCbits
  1287                           _LATCbits	set	0xF8B
  1288  0000                     	global	_LATAbits
  1289                           _LATAbits	set	0xF89
  1290  0000                     	global	_TRISBbits
  1291                           _TRISBbits	set	0xF93
  1292  0000                     	global	_TRISDbits
  1293                           _TRISDbits	set	0xF95
  1294  0000                     	global	_TRISCbits
  1295                           _TRISCbits	set	0xF94
  1296  0000                     	global	_TRISAbits
  1297                           _TRISAbits	set	0xF92
  1298  0000                     	global	_SPBRG
  1299                           _SPBRG	set	0xFAF
  1300  0000                     	global	_RCIF
  1301                           _RCIF	set	0x7CF5
  1302  0000                     	global	_RCIDL
  1303                           _RCIDL	set	0x7DC6
  1304  0000                     	global	_OERR
  1305                           _OERR	set	0x7D59
  1306  0000                     	global	_FERR
  1307                           _FERR	set	0x7D5A
  1308  0000                     	global	_TRMT
  1309                           _TRMT	set	0x7D61
  1310  0000                     	global	_BRGH
  1311                           _BRGH	set	0x7D62
  1312  0000                     	global	_TXEN
  1313                           _TXEN	set	0x7D65
  1314  0000                     	global	_CREN
  1315                           _CREN	set	0x7D5C
  1316  0000                     	global	_TRISC7
  1317                           _TRISC7	set	0x7CA7
  1318  0000                     	global	_TRISC6
  1319                           _TRISC6	set	0x7CA6
  1320  0000                     	global	_SPEN
  1321                           _SPEN	set	0x7D5F
  1322  0000                     	global	_SYNC
  1323                           _SYNC	set	0x7D64
  1324  0000                     	global	_CCP2M2
  1325                           _CCP2M2	set	0x7DD2
  1326  0000                     	global	_CCP2M3
  1327                           _CCP2M3	set	0x7DD3
  1328  0000                     	global	_TMR2ON
  1329                           _TMR2ON	set	0x7E52
  1330  0000                     	global	_T2CKPS1
  1331                           _T2CKPS1	set	0x7E51
  1332  0000                     	global	_T2CKPS0
  1333                           _T2CKPS0	set	0x7E50
  1334  0000                     	global	_CCP1M2
  1335                           _CCP1M2	set	0x7DEA
  1336  0000                     	global	_CCP1M3
  1337                           _CCP1M3	set	0x7DEB
  1338  0000                     ; #config settings
  1339                           global __CFG_PLLDIV$5
  1340                           __CFG_PLLDIV$5 equ 0x0
  1341  0000                     global __CFG_CPUDIV$OSC3_PLL4
  1342                           __CFG_CPUDIV$OSC3_PLL4 equ 0x0
  1343  0000                     global __CFG_USBDIV$1
  1344                           __CFG_USBDIV$1 equ 0x0
  1345  0000                     global __CFG_FOSC$HSPLL_HS
  1346                           __CFG_FOSC$HSPLL_HS equ 0x0
  1347  0000                     global __CFG_FCMEN$OFF
  1348                           __CFG_FCMEN$OFF equ 0x0
  1349  0000                     global __CFG_IESO$OFF
  1350                           __CFG_IESO$OFF equ 0x0
  1351  0000                     global __CFG_PWRT$OFF
  1352                           __CFG_PWRT$OFF equ 0x0
  1353  0000                     global __CFG_BOR$OFF
  1354                           __CFG_BOR$OFF equ 0x0
  1355  0000                     global __CFG_BORV$3
  1356                           __CFG_BORV$3 equ 0x0
  1357  0000                     global __CFG_VREGEN$OFF
  1358                           __CFG_VREGEN$OFF equ 0x0
  1359  0000                     global __CFG_WDT$OFF
  1360                           __CFG_WDT$OFF equ 0x0
  1361  0000                     global __CFG_WDTPS$32768
  1362                           __CFG_WDTPS$32768 equ 0x0
  1363  0000                     global __CFG_CCP2MX$ON
  1364                           __CFG_CCP2MX$ON equ 0x0
  1365  0000                     global __CFG_PBADEN$OFF
  1366                           __CFG_PBADEN$OFF equ 0x0
  1367  0000                     global __CFG_LPT1OSC$OFF
  1368                           __CFG_LPT1OSC$OFF equ 0x0
  1369  0000                     global __CFG_MCLRE$ON
  1370                           __CFG_MCLRE$ON equ 0x0
  1371  0000                     global __CFG_STVREN$ON
  1372                           __CFG_STVREN$ON equ 0x0
  1373  0000                     global __CFG_LVP$OFF
  1374                           __CFG_LVP$OFF equ 0x0
  1375  0000                     global __CFG_ICPRT$OFF
  1376                           __CFG_ICPRT$OFF equ 0x0
  1377  0000                     global __CFG_XINST$OFF
  1378                           __CFG_XINST$OFF equ 0x0
  1379  0000                     global __CFG_CP0$OFF
  1380                           __CFG_CP0$OFF equ 0x0
  1381  0000                     global __CFG_CP1$OFF
  1382                           __CFG_CP1$OFF equ 0x0
  1383  0000                     global __CFG_CP2$OFF
  1384                           __CFG_CP2$OFF equ 0x0
  1385  0000                     global __CFG_CP3$OFF
  1386                           __CFG_CP3$OFF equ 0x0
  1387  0000                     global __CFG_CPB$OFF
  1388                           __CFG_CPB$OFF equ 0x0
  1389  0000                     global __CFG_CPD$OFF
  1390                           __CFG_CPD$OFF equ 0x0
  1391  0000                     global __CFG_WRT0$OFF
  1392                           __CFG_WRT0$OFF equ 0x0
  1393  0000                     global __CFG_WRT1$OFF
  1394                           __CFG_WRT1$OFF equ 0x0
  1395  0000                     global __CFG_WRT2$OFF
  1396                           __CFG_WRT2$OFF equ 0x0
  1397  0000                     global __CFG_WRT3$OFF
  1398                           __CFG_WRT3$OFF equ 0x0
  1399  0000                     global __CFG_WRTC$OFF
  1400                           __CFG_WRTC$OFF equ 0x0
  1401  0000                     global __CFG_WRTB$OFF
  1402                           __CFG_WRTB$OFF equ 0x0
  1403  0000                     global __CFG_WRTD$OFF
  1404                           __CFG_WRTD$OFF equ 0x0
  1405  0000                     global __CFG_EBTR0$OFF
  1406                           __CFG_EBTR0$OFF equ 0x0
  1407  0000                     global __CFG_EBTR1$OFF
  1408                           __CFG_EBTR1$OFF equ 0x0
  1409  0000                     global __CFG_EBTR2$OFF
  1410                           __CFG_EBTR2$OFF equ 0x0
  1411  0000                     global __CFG_EBTR3$OFF
  1412                           __CFG_EBTR3$OFF equ 0x0
  1413  0000                     global __CFG_EBTRB$OFF
  1414                           __CFG_EBTRB$OFF equ 0x0
  1415  0000                     	file	"C:\Users\c4810\AppData\Local\Temp\s5r0."
  1416                           	line	#
  1417                           psect	cinit,class=CODE,delta=1,reloc=2
  1418                           global __pcinit
  1419                           __pcinit:
  1420  0063DC                     global start_initialization
  1421                           start_initialization:
  1422  0063DC                     
  1423                           global __initialization
  1424                           __initialization:
  1425  0063DC                     psect	bssBANK0,class=BANK0,space=1,noexec,lowdata
  1426                           global __pbssBANK0
  1427                           __pbssBANK0:
  1428  000074                     	global	_millis
  1429                           _millis:
  1430  000074                            ds      4
  1431  000074                     	global	_estado
  1432                           	global	_estado
  1433                           _estado:
  1434  000078                            ds      2
  1435  000078                     psect	dataBANK0,class=BANK0,space=1,noexec,lowdata
  1436                           global __pdataBANK0
  1437                           __pdataBANK0:
  1438  000060                     	file	"application.c"
  1439                           	line	11
  1440                           	global	_SensorDer
  1441                           _SensorDer:
  1442  000060                            ds      1
  1443  000060                     psect	dataBANK0
  1444                           	file	"application.c"
  1445                           	line	10
  1446                           	global	_SensorIzq
  1447                           _SensorIzq:
  1448  000061                            ds      1
  1449  000061                     psect	dataBANK0
  1450                           	file	"application.c"
  1451                           	line	8
  1452                           	global	_PWM
  1453                           _PWM:
  1454  000062                            ds      1
  1455  000062                     psect	dataBANK0
  1456                           	file	"application.c"
  1457                           	line	7
  1458                           	global	_control4
  1459                           _control4:
  1460  000063                            ds      1
  1461  000063                     psect	dataBANK0
  1462                           	file	"application.c"
  1463                           	line	6
  1464                           	global	_control3
  1465                           _control3:
  1466  000064                            ds      1
  1467  000064                     psect	dataBANK0
  1468                           	file	"application.c"
  1469                           	line	5
  1470                           	global	_control2
  1471                           _control2:
  1472  000065                            ds      1
  1473  000065                     psect	dataBANK0
  1474                           	file	"application.c"
  1475                           	line	4
  1476                           	global	_control1
  1477                           _control1:
  1478  000066                            ds      1
  1479  000066                     	file	"C:\Users\c4810\AppData\Local\Temp\s5r0."
  1480                           	line	#
  1481                           psect	cinit
  1482                           ; Initialize objects allocated to BANK0 (7 bytes)
  1483                           	global __pidataBANK0
  1484                           	; load TBLPTR registers with __pidataBANK0
  1485                           	movlw	low (__pidataBANK0)
  1486  0063DC  0E41               	movwf	tblptrl
  1487  0063DE  6EF6               	movlw	high(__pidataBANK0)
  1488  0063E0  0E62               	movwf	tblptrh
  1489  0063E2  6EF7               	movlw	low highword(__pidataBANK0)
  1490  0063E4  0E00               	movwf	tblptru
  1491  0063E6  6EF8               	lfsr	0,__pdataBANK0
  1492  0063E8  EE00  F060         	lfsr	1,7
  1493  0063EC  EE10 F007          	copy_data0:
  1494  0063F0                     	tblrd	*+
  1495  0063F0  0009               	movff	tablat, postinc0
  1496  0063F2  CFF5 FFEE          	movf	postdec1,w
  1497  0063F6  50E5               	movf	fsr1l,w
  1498  0063F8  50E1               	bnz	copy_data0
  1499  0063FA  E1FA               	line	#
  1500                           ; Clear objects allocated to BANK0 (6 bytes)
  1501                           	global __pbssBANK0
  1502                           movlb	0
  1503  0063FC  0100               clrf	(__pbssBANK0+5)&0xffh,b
  1504  0063FE  6B79               clrf	(__pbssBANK0+4)&0xffh,b
  1505  006400  6B78               clrf	(__pbssBANK0+3)&0xffh,b
  1506  006402  6B77               clrf	(__pbssBANK0+2)&0xffh,b
  1507  006404  6B76               clrf	(__pbssBANK0+1)&0xffh,b
  1508  006406  6B75               clrf	(__pbssBANK0+0)&0xffh,b
  1509  006408  6B74               psect cinit,class=CODE,delta=1
  1510                           global end_of_initialization,__end_of__initialization
  1511                           
  1512                           ;End of C runtime variable initialization code
  1513                           
  1514                           end_of_initialization:
  1515  00640A                     __end_of__initialization:
  1516  00640A                     	bcf int$flags,0,c ;clear compiler interrupt flag (level 1)
  1517  00640A  905F               	bcf int$flags,1,c ;clear compiler interrupt flag (level 2)
  1518  00640C  925F               	GLOBAL	__Lmediumconst
  1519                           	movlw	low highword(__Lmediumconst)
  1520  00640E  0E00               	movwf	tblptru
  1521  006410  6EF8               movlb 0
  1522  006412  0100               goto _main	;jump to C main() function
  1523  006414  EFAB  F031         psect	cstackBANK0,class=BANK0,space=1,noexec
  1524                           global __pcstackBANK0
  1525                           __pcstackBANK0:
  1526  000067                     ?_analogWrite:	; 1 bytes @ 0x0
  1527  000067                     	global	analogWrite@value
  1528                           analogWrite@value:	; 2 bytes @ 0x0
  1529  000067                     	ds   2
  1530  000067                     ??_analogWrite:	; 1 bytes @ 0x2
  1531  000069                     	ds   2
  1532  000069                     	global	analogWrite@pin
  1533                           analogWrite@pin:	; 1 bytes @ 0x4
  1534  00006B                     	ds   1
  1535  00006B                     ?_RobotAdelante:	; 1 bytes @ 0x5
  1536  00006C                     ?_RobotCW:	; 1 bytes @ 0x5
  1537  00006C                     ?_RobotCCW:	; 1 bytes @ 0x5
  1538  00006C                     	global	RobotAdelante@velocidad
  1539                           RobotAdelante@velocidad:	; 2 bytes @ 0x5
  1540  00006C                     	global	RobotCCW@velocidad
  1541                           RobotCCW@velocidad:	; 2 bytes @ 0x5
  1542  00006C                     	global	RobotCW@velocidad
  1543                           RobotCW@velocidad:	; 2 bytes @ 0x5
  1544  00006C                     	ds   2
  1545  00006C                     psect	cstackCOMRAM,class=COMRAM,space=1,noexec
  1546                           global __pcstackCOMRAM
  1547                           __pcstackCOMRAM:
  1548  000001                     ?_configuracionInicial:	; 1 bytes @ 0x0
  1549  000001                     ?_setup:	; 1 bytes @ 0x0
  1550  000001                     ?_loop:	; 1 bytes @ 0x0
  1551  000001                     ?_ADCConfig:	; 1 bytes @ 0x0
  1552  000001                     ??_ADCConfig:	; 1 bytes @ 0x0
  1553  000001                     ?_CCPConfig:	; 1 bytes @ 0x0
  1554  000001                     ?_PORTSConfiguration:	; 1 bytes @ 0x0
  1555  000001                     ??_PORTSConfiguration:	; 1 bytes @ 0x0
  1556  000001                     ?_TMR0Config:	; 1 bytes @ 0x0
  1557  000001                     ??_TMR0Config:	; 1 bytes @ 0x0
  1558  000001                     ?_TMR1Config:	; 1 bytes @ 0x0
  1559  000001                     ??_TMR1Config:	; 1 bytes @ 0x0
  1560  000001                     ?_PWM1_Start:	; 1 bytes @ 0x0
  1561  000001                     ??_PWM1_Start:	; 1 bytes @ 0x0
  1562  000001                     ?_PWM2_Start:	; 1 bytes @ 0x0
  1563  000001                     ??_PWM2_Start:	; 1 bytes @ 0x0
  1564  000001                     ?_pinMode:	; 1 bytes @ 0x0
  1565  000001                     ?_digitalWrite:	; 1 bytes @ 0x0
  1566  000001                     ?_digitalRead:	; 1 bytes @ 0x0
  1567  000001                     ??_digitalRead:	; 1 bytes @ 0x0
  1568  000001                     ?_TimerOverflow:	; 1 bytes @ 0x0
  1569  000001                     ??_TimerOverflow:	; 1 bytes @ 0x0
  1570  000001                     ?_M1Adelante:	; 1 bytes @ 0x0
  1571  000001                     ?_M1Atras:	; 1 bytes @ 0x0
  1572  000001                     ?_M2Adelante:	; 1 bytes @ 0x0
  1573  000001                     ?_M2Atras:	; 1 bytes @ 0x0
  1574  000001                     ?_main:	; 2 bytes @ 0x0
  1575  000001                     	global	?___aldiv
  1576                           ?___aldiv:	; 4 bytes @ 0x0
  1577  000001                     	global	pinMode@mode
  1578                           pinMode@mode:	; 1 bytes @ 0x0
  1579  000001                     	global	digitalWrite@mode
  1580                           digitalWrite@mode:	; 1 bytes @ 0x0
  1581  000001                     	global	___aldiv@dividend
  1582                           ___aldiv@dividend:	; 4 bytes @ 0x0
  1583  000001                     	ds   1
  1584  000001                     ??_pinMode:	; 1 bytes @ 0x1
  1585  000002                     ??_digitalWrite:	; 1 bytes @ 0x1
  1586  000002                     	ds   1
  1587  000002                     	global	digitalRead@pin
  1588                           digitalRead@pin:	; 1 bytes @ 0x2
  1589  000003                     	ds   1
  1590  000003                     	global	pinMode@pin
  1591                           pinMode@pin:	; 1 bytes @ 0x3
  1592  000004                     	global	digitalWrite@pin
  1593                           digitalWrite@pin:	; 1 bytes @ 0x3
  1594  000004                     	ds   1
  1595  000004                     ??_setup:	; 1 bytes @ 0x4
  1596  000005                     ??_M1Adelante:	; 1 bytes @ 0x4
  1597  000005                     ??_M1Atras:	; 1 bytes @ 0x4
  1598  000005                     ??_M2Adelante:	; 1 bytes @ 0x4
  1599  000005                     ??_M2Atras:	; 1 bytes @ 0x4
  1600  000005                     	global	___aldiv@divisor
  1601                           ___aldiv@divisor:	; 4 bytes @ 0x4
  1602  000005                     	ds   4
  1603  000005                     ??___aldiv:	; 1 bytes @ 0x8
  1604  000009                     	global	___aldiv@counter
  1605                           ___aldiv@counter:	; 1 bytes @ 0x8
  1606  000009                     	ds   1
  1607  000009                     	global	___aldiv@sign
  1608                           ___aldiv@sign:	; 1 bytes @ 0x9
  1609  00000A                     	ds   1
  1610  00000A                     	global	___aldiv@quotient
  1611                           ___aldiv@quotient:	; 4 bytes @ 0xA
  1612  00000B                     	ds   4
  1613  00000B                     ?_PWM1_Init:	; 1 bytes @ 0xE
  1614  00000F                     ?_PWM2_Init:	; 1 bytes @ 0xE
  1615  00000F                     	global	?_PWM_Max_Duty
  1616                           ?_PWM_Max_Duty:	; 2 bytes @ 0xE
  1617  00000F                     	global	PWM1_Init@fre
  1618                           PWM1_Init@fre:	; 4 bytes @ 0xE
  1619  00000F                     	global	PWM2_Init@fre
  1620                           PWM2_Init@fre:	; 4 bytes @ 0xE
  1621  00000F                     	ds   2
  1622  00000F                     ??_PWM_Max_Duty:	; 1 bytes @ 0x10
  1623  000011                     	ds   2
  1624  000011                     ??_PWM1_Init:	; 1 bytes @ 0x12
  1625  000013                     ??_PWM2_Init:	; 1 bytes @ 0x12
  1626  000013                     	ds   2
  1627  000013                     	global	?___xxtofl
  1628                           ?___xxtofl:	; 4 bytes @ 0x14
  1629  000015                     	global	___xxtofl@val
  1630                           ___xxtofl@val:	; 4 bytes @ 0x14
  1631  000015                     	ds   2
  1632  000015                     ??_configuracionInicial:	; 1 bytes @ 0x16
  1633  000017                     ??_CCPConfig:	; 1 bytes @ 0x16
  1634  000017                     	ds   2
  1635  000017                     ??___xxtofl:	; 1 bytes @ 0x18
  1636  000019                     	ds   4
  1637  000019                     	global	___xxtofl@sign
  1638                           ___xxtofl@sign:	; 1 bytes @ 0x1C
  1639  00001D                     	ds   1
  1640  00001D                     	global	___xxtofl@exp
  1641                           ___xxtofl@exp:	; 1 bytes @ 0x1D
  1642  00001E                     	ds   1
  1643  00001E                     	global	___xxtofl@arg
  1644                           ___xxtofl@arg:	; 4 bytes @ 0x1E
  1645  00001F                     	ds   4
  1646  00001F                     	global	?___fldiv
  1647                           ?___fldiv:	; 4 bytes @ 0x22
  1648  000023                     	global	___fldiv@b
  1649                           ___fldiv@b:	; 4 bytes @ 0x22
  1650  000023                     	ds   4
  1651  000023                     	global	___fldiv@a
  1652                           ___fldiv@a:	; 4 bytes @ 0x26
  1653  000027                     	ds   4
  1654  000027                     ??___fldiv:	; 1 bytes @ 0x2A
  1655  00002B                     	ds   4
  1656  00002B                     	global	___fldiv@rem
  1657                           ___fldiv@rem:	; 4 bytes @ 0x2E
  1658  00002F                     	ds   4
  1659  00002F                     	global	___fldiv@sign
  1660                           ___fldiv@sign:	; 1 bytes @ 0x32
  1661  000033                     	ds   1
  1662  000033                     	global	___fldiv@new_exp
  1663                           ___fldiv@new_exp:	; 2 bytes @ 0x33
  1664  000034                     	ds   2
  1665  000034                     	global	___fldiv@grs
  1666                           ___fldiv@grs:	; 4 bytes @ 0x35
  1667  000036                     	ds   4
  1668  000036                     	global	___fldiv@bexp
  1669                           ___fldiv@bexp:	; 1 bytes @ 0x39
  1670  00003A                     	ds   1
  1671  00003A                     	global	___fldiv@aexp
  1672                           ___fldiv@aexp:	; 1 bytes @ 0x3A
  1673  00003B                     	ds   1
  1674  00003B                     	global	?___flmul
  1675                           ?___flmul:	; 4 bytes @ 0x3B
  1676  00003C                     	global	___flmul@b
  1677                           ___flmul@b:	; 4 bytes @ 0x3B
  1678  00003C                     	ds   4
  1679  00003C                     	global	___flmul@a
  1680                           ___flmul@a:	; 4 bytes @ 0x3F
  1681  000040                     	ds   4
  1682  000040                     ??___flmul:	; 1 bytes @ 0x43
  1683  000044                     	ds   4
  1684  000044                     	global	___flmul@sign
  1685                           ___flmul@sign:	; 1 bytes @ 0x47
  1686  000048                     	ds   1
  1687  000048                     	global	___flmul@grs
  1688                           ___flmul@grs:	; 4 bytes @ 0x48
  1689  000049                     	ds   4
  1690  000049                     	global	___flmul@aexp
  1691                           ___flmul@aexp:	; 1 bytes @ 0x4C
  1692  00004D                     	ds   1
  1693  00004D                     	global	___flmul@bexp
  1694                           ___flmul@bexp:	; 1 bytes @ 0x4D
  1695  00004E                     	ds   1
  1696  00004E                     	global	___flmul@prod
  1697                           ___flmul@prod:	; 4 bytes @ 0x4E
  1698  00004F                     	ds   4
  1699  00004F                     	global	___flmul@temp
  1700                           ___flmul@temp:	; 2 bytes @ 0x52
  1701  000053                     	ds   2
  1702  000053                     	global	?___fltol
  1703                           ?___fltol:	; 4 bytes @ 0x54
  1704  000055                     	global	___fltol@f1
  1705                           ___fltol@f1:	; 4 bytes @ 0x54
  1706  000055                     	ds   4
  1707  000055                     ??___fltol:	; 1 bytes @ 0x58
  1708  000059                     	ds   4
  1709  000059                     	global	___fltol@sign1
  1710                           ___fltol@sign1:	; 1 bytes @ 0x5C
  1711  00005D                     	ds   1
  1712  00005D                     	global	___fltol@exp1
  1713                           ___fltol@exp1:	; 1 bytes @ 0x5D
  1714  00005E                     	ds   1
  1715  00005E                     ??_loop:	; 1 bytes @ 0x5E
  1716  00005F                     ??_RobotAdelante:	; 1 bytes @ 0x5E
  1717  00005F                     ??_RobotCW:	; 1 bytes @ 0x5E
  1718  00005F                     ??_RobotCCW:	; 1 bytes @ 0x5E
  1719  00005F                     ??_main:	; 1 bytes @ 0x5E
  1720  00005F                     ;!
  1721                           ;!Data Sizes:
  1722                           ;!    Strings     0
  1723                           ;!    Constant    0
  1724                           ;!    Data        7
  1725                           ;!    BSS         6
  1726                           ;!    Persistent  6
  1727                           ;!    Stack       0
  1728                           ;!
  1729                           ;!Auto Spaces:
  1730                           ;!    Space          Size  Autos    Used
  1731                           ;!    COMRAM           94     94      94
  1732                           ;!    BANK0           160      7      26
  1733                           ;!    BANK1           256      0       0
  1734                           ;!    BANK2           256      0       0
  1735                           ;!    BANK3           256      0       0
  1736                           ;!    BANK4           256      0       0
  1737                           ;!    BANK5           256      0       0
  1738                           ;!    BANK6           256      0       0
  1739                           ;!    BANK7           256      0       0
  1740                           
  1741                           ;!
  1742                           ;!Pointer List with Targets:
  1743                           ;!
  1744                           ;!    None.
  1745                           
  1746                           
  1747                           ;!
  1748                           ;!Critical Paths under _main in COMRAM
  1749                           ;!
  1750                           ;!    _setup->_pinMode
  1751                           ;!    _M1Atras->_digitalWrite
  1752                           ;!    _M2Atras->_digitalWrite
  1753                           ;!    _analogWrite->___fltol
  1754                           ;!    ___xxtofl->_PWM_Max_Duty
  1755                           ;!    ___fltol->___flmul
  1756                           ;!    ___flmul->___fldiv
  1757                           ;!    ___fldiv->___xxtofl
  1758                           ;!    _PWM_Max_Duty->___aldiv
  1759                           ;!    _M2Adelante->_digitalWrite
  1760                           ;!    _M1Adelante->_digitalWrite
  1761                           ;!    _CCPConfig->_PWM1_Init
  1762                           ;!    _CCPConfig->_PWM2_Init
  1763                           ;!    _PWM2_Init->___aldiv
  1764                           ;!    _PWM1_Init->___aldiv
  1765                           ;!
  1766                           ;!Critical Paths under _TimerOverflow in COMRAM
  1767                           ;!
  1768                           ;!    None.
  1769                           ;!
  1770                           ;!Critical Paths under _main in BANK0
  1771                           ;!
  1772                           ;!    _loop->_RobotAdelante
  1773                           ;!    _loop->_RobotCCW
  1774                           ;!    _loop->_RobotCW
  1775                           ;!    _RobotCW->_analogWrite
  1776                           ;!    _RobotCCW->_analogWrite
  1777                           ;!    _RobotAdelante->_analogWrite
  1778                           ;!
  1779                           ;!Critical Paths under _TimerOverflow in BANK0
  1780                           ;!
  1781                           ;!    None.
  1782                           ;!
  1783                           ;!Critical Paths under _main in BANK1
  1784                           ;!
  1785                           ;!    None.
  1786                           ;!
  1787                           ;!Critical Paths under _TimerOverflow in BANK1
  1788                           ;!
  1789                           ;!    None.
  1790                           ;!
  1791                           ;!Critical Paths under _main in BANK2
  1792                           ;!
  1793                           ;!    None.
  1794                           ;!
  1795                           ;!Critical Paths under _TimerOverflow in BANK2
  1796                           ;!
  1797                           ;!    None.
  1798                           ;!
  1799                           ;!Critical Paths under _main in BANK3
  1800                           ;!
  1801                           ;!    None.
  1802                           ;!
  1803                           ;!Critical Paths under _TimerOverflow in BANK3
  1804                           ;!
  1805                           ;!    None.
  1806                           ;!
  1807                           ;!Critical Paths under _main in BANK4
  1808                           ;!
  1809                           ;!    None.
  1810                           ;!
  1811                           ;!Critical Paths under _TimerOverflow in BANK4
  1812                           ;!
  1813                           ;!    None.
  1814                           ;!
  1815                           ;!Critical Paths under _main in BANK5
  1816                           ;!
  1817                           ;!    None.
  1818                           ;!
  1819                           ;!Critical Paths under _TimerOverflow in BANK5
  1820                           ;!
  1821                           ;!    None.
  1822                           ;!
  1823                           ;!Critical Paths under _main in BANK6
  1824                           ;!
  1825                           ;!    None.
  1826                           ;!
  1827                           ;!Critical Paths under _TimerOverflow in BANK6
  1828                           ;!
  1829                           ;!    None.
  1830                           ;!
  1831                           ;!Critical Paths under _main in BANK7
  1832                           ;!
  1833                           ;!    None.
  1834                           ;!
  1835                           ;!Critical Paths under _TimerOverflow in BANK7
  1836                           ;!
  1837                           ;!    None.
  1838                           
  1839 ;;
  1840 ;;Main: autosize = 0, tempsize = 0, incstack = 0, save=0
  1841 ;;
  1842                           
  1843                           ;!
  1844                           ;!Call Graph Tables:
  1845                           ;!
  1846                           ;! ---------------------------------------------------------------------------------
  1847                           ;! (Depth) Function   	        Calls       Base Space   Used Autos Params    Refs
  1848                           ;! ---------------------------------------------------------------------------------
  1849                           ;! (0) _main                                                 0     0      0   33678
  1850                           ;!               _configuracionInicial
  1851                           ;!                               _loop
  1852                           ;!                              _setup
  1853                           ;! ---------------------------------------------------------------------------------
  1854                           ;! (1) _setup                                                0     0      0    1136
  1855                           ;!                            _pinMode
  1856                           ;! ---------------------------------------------------------------------------------
  1857                           ;! (2) _pinMode                                              4     3      1    1136
  1858                           ;!                                              0 COMRAM     4     3      1
  1859                           ;! ---------------------------------------------------------------------------------
  1860                           ;! (1) _loop                                                 0     0      0   30182
  1861                           ;!                      _RobotAdelante
  1862                           ;!                           _RobotCCW
  1863                           ;!                            _RobotCW
  1864                           ;!                        _digitalRead
  1865                           ;! ---------------------------------------------------------------------------------
  1866                           ;! (2) _digitalRead                                          3     3      0      22
  1867                           ;!                                              0 COMRAM     3     3      0
  1868                           ;! ---------------------------------------------------------------------------------
  1869                           ;! (2) _RobotCW                                              2     0      2   10028
  1870                           ;!                                              5 BANK0      2     0      2
  1871                           ;!                            _M1Atras
  1872                           ;!                         _M2Adelante
  1873                           ;!                        _analogWrite
  1874                           ;! ---------------------------------------------------------------------------------
  1875                           ;! (3) _M1Atras                                              0     0      0    1288
  1876                           ;!                       _digitalWrite
  1877                           ;! ---------------------------------------------------------------------------------
  1878                           ;! (2) _RobotCCW                                             2     0      2   10028
  1879                           ;!                                              5 BANK0      2     0      2
  1880                           ;!                         _M1Adelante
  1881                           ;!                            _M2Atras
  1882                           ;!                        _analogWrite
  1883                           ;! ---------------------------------------------------------------------------------
  1884                           ;! (3) _M2Atras                                              0     0      0    1288
  1885                           ;!                       _digitalWrite
  1886                           ;! ---------------------------------------------------------------------------------
  1887                           ;! (2) _RobotAdelante                                        2     0      2   10104
  1888                           ;!                                              5 BANK0      2     0      2
  1889                           ;!                         _M1Adelante
  1890                           ;!                         _M2Adelante
  1891                           ;!                        _analogWrite
  1892                           ;! ---------------------------------------------------------------------------------
  1893                           ;! (3) _analogWrite                                          5     3      2    7354
  1894                           ;!                                              0 BANK0      5     3      2
  1895                           ;!                       _PWM_Max_Duty
  1896                           ;!                            ___fldiv
  1897                           ;!                            ___flmul
  1898                           ;!                            ___fltol
  1899                           ;!                           ___xxtofl
  1900                           ;! ---------------------------------------------------------------------------------
  1901                           ;! (4) ___xxtofl                                            14    10      4     854
  1902                           ;!                                             20 COMRAM    14    10      4
  1903                           ;!                       _PWM_Max_Duty (ARG)
  1904                           ;! ---------------------------------------------------------------------------------
  1905                           ;! (4) ___fltol                                             10     6      4     381
  1906                           ;!                                             84 COMRAM    10     6      4
  1907                           ;!                       _PWM_Max_Duty (ARG)
  1908                           ;!                            ___fldiv (ARG)
  1909                           ;!                            ___flmul (ARG)
  1910                           ;!                           ___xxtofl (ARG)
  1911                           ;! ---------------------------------------------------------------------------------
  1912                           ;! (4) ___flmul                                             25    17      8    2656
  1913                           ;!                                             59 COMRAM    25    17      8
  1914                           ;!                       _PWM_Max_Duty (ARG)
  1915                           ;!                            ___fldiv (ARG)
  1916                           ;!                           ___xxtofl (ARG)
  1917                           ;! ---------------------------------------------------------------------------------
  1918                           ;! (4) ___fldiv                                             25    17      8    1855
  1919                           ;!                                             34 COMRAM    25    17      8
  1920                           ;!                           ___xxtofl (ARG)
  1921                           ;! ---------------------------------------------------------------------------------
  1922                           ;! (4) _PWM_Max_Duty                                         6     4      2    1060
  1923                           ;!                                             14 COMRAM     6     4      2
  1924                           ;!                            ___aldiv
  1925                           ;! ---------------------------------------------------------------------------------
  1926                           ;! (3) _M2Adelante                                           0     0      0    1288
  1927                           ;!                       _digitalWrite
  1928                           ;! ---------------------------------------------------------------------------------
  1929                           ;! (3) _M1Adelante                                           0     0      0    1288
  1930                           ;!                       _digitalWrite
  1931                           ;! ---------------------------------------------------------------------------------
  1932                           ;! (4) _digitalWrite                                         4     3      1    1288
  1933                           ;!                                              0 COMRAM     4     3      1
  1934                           ;! ---------------------------------------------------------------------------------
  1935                           ;! (1) _configuracionInicial                                 0     0      0    2360
  1936                           ;!                          _ADCConfig
  1937                           ;!                          _CCPConfig
  1938                           ;!                 _PORTSConfiguration
  1939                           ;!                         _TMR0Config
  1940                           ;!                         _TMR1Config
  1941                           ;! ---------------------------------------------------------------------------------
  1942                           ;! (2) _TMR1Config                                           0     0      0       0
  1943                           ;! ---------------------------------------------------------------------------------
  1944                           ;! (2) _TMR0Config                                           0     0      0       0
  1945                           ;! ---------------------------------------------------------------------------------
  1946                           ;! (2) _PORTSConfiguration                                   0     0      0       0
  1947                           ;! ---------------------------------------------------------------------------------
  1948                           ;! (2) _CCPConfig                                            0     0      0    2360
  1949                           ;!                          _PWM1_Init
  1950                           ;!                         _PWM1_Start
  1951                           ;!                          _PWM2_Init
  1952                           ;!                         _PWM2_Start
  1953                           ;! ---------------------------------------------------------------------------------
  1954                           ;! (3) _PWM2_Start                                           0     0      0       0
  1955                           ;! ---------------------------------------------------------------------------------
  1956                           ;! (3) _PWM2_Init                                            8     4      4    1180
  1957                           ;!                                             14 COMRAM     8     4      4
  1958                           ;!                            ___aldiv
  1959                           ;! ---------------------------------------------------------------------------------
  1960                           ;! (3) _PWM1_Start                                           0     0      0       0
  1961                           ;! ---------------------------------------------------------------------------------
  1962                           ;! (3) _PWM1_Init                                            8     4      4    1180
  1963                           ;!                                             14 COMRAM     8     4      4
  1964                           ;!                            ___aldiv
  1965                           ;! ---------------------------------------------------------------------------------
  1966                           ;! (5) ___aldiv                                             14     6      8    1060
  1967                           ;!                                              0 COMRAM    14     6      8
  1968                           ;! ---------------------------------------------------------------------------------
  1969                           ;! (2) _ADCConfig                                            0     0      0       0
  1970                           ;! ---------------------------------------------------------------------------------
  1971                           ;! Estimated maximum stack depth 5
  1972                           ;! ---------------------------------------------------------------------------------
  1973                           ;! (Depth) Function   	        Calls       Base Space   Used Autos Params    Refs
  1974                           ;! ---------------------------------------------------------------------------------
  1975                           ;! (6) _TimerOverflow                                        0     0      0       0
  1976                           ;! ---------------------------------------------------------------------------------
  1977                           ;! Estimated maximum stack depth 6
  1978                           ;! ---------------------------------------------------------------------------------
  1979                           ;!
  1980                           ;! Call Graph Graphs:
  1981                           ;!
  1982                           ;! _main (ROOT)
  1983                           ;!   _configuracionInicial
  1984                           ;!     _ADCConfig
  1985                           ;!     _CCPConfig
  1986                           ;!       _PWM1_Init
  1987                           ;!         ___aldiv
  1988                           ;!       _PWM1_Start
  1989                           ;!       _PWM2_Init
  1990                           ;!         ___aldiv
  1991                           ;!       _PWM2_Start
  1992                           ;!     _PORTSConfiguration
  1993                           ;!     _TMR0Config
  1994                           ;!     _TMR1Config
  1995                           ;!   _loop
  1996                           ;!     _RobotAdelante
  1997                           ;!       _M1Adelante
  1998                           ;!         _digitalWrite
  1999                           ;!       _M2Adelante
  2000                           ;!         _digitalWrite
  2001                           ;!       _analogWrite
  2002                           ;!         _PWM_Max_Duty
  2003                           ;!           ___aldiv
  2004                           ;!         ___fldiv
  2005                           ;!           ___xxtofl (ARG)
  2006                           ;!             _PWM_Max_Duty (ARG)
  2007                           ;!               ___aldiv
  2008                           ;!         ___flmul
  2009                           ;!           _PWM_Max_Duty (ARG)
  2010                           ;!             ___aldiv
  2011                           ;!           ___fldiv (ARG)
  2012                           ;!             ___xxtofl (ARG)
  2013                           ;!               _PWM_Max_Duty (ARG)
  2014                           ;!                 ___aldiv
  2015                           ;!           ___xxtofl (ARG)
  2016                           ;!             _PWM_Max_Duty (ARG)
  2017                           ;!               ___aldiv
  2018                           ;!         ___fltol
  2019                           ;!           _PWM_Max_Duty (ARG)
  2020                           ;!             ___aldiv
  2021                           ;!           ___fldiv (ARG)
  2022                           ;!             ___xxtofl (ARG)
  2023                           ;!               _PWM_Max_Duty (ARG)
  2024                           ;!                 ___aldiv
  2025                           ;!           ___flmul (ARG)
  2026                           ;!             _PWM_Max_Duty (ARG)
  2027                           ;!               ___aldiv
  2028                           ;!             ___fldiv (ARG)
  2029                           ;!               ___xxtofl (ARG)
  2030                           ;!                 _PWM_Max_Duty (ARG)
  2031                           ;!                   ___aldiv
  2032                           ;!             ___xxtofl (ARG)
  2033                           ;!               _PWM_Max_Duty (ARG)
  2034                           ;!                 ___aldiv
  2035                           ;!           ___xxtofl (ARG)
  2036                           ;!             _PWM_Max_Duty (ARG)
  2037                           ;!               ___aldiv
  2038                           ;!         ___xxtofl
  2039                           ;!           _PWM_Max_Duty (ARG)
  2040                           ;!             ___aldiv
  2041                           ;!     _RobotCCW
  2042                           ;!       _M1Adelante
  2043                           ;!         _digitalWrite
  2044                           ;!       _M2Atras
  2045                           ;!         _digitalWrite
  2046                           ;!       _analogWrite
  2047                           ;!         _PWM_Max_Duty
  2048                           ;!           ___aldiv
  2049                           ;!         ___fldiv
  2050                           ;!           ___xxtofl (ARG)
  2051                           ;!             _PWM_Max_Duty (ARG)
  2052                           ;!               ___aldiv
  2053                           ;!         ___flmul
  2054                           ;!           _PWM_Max_Duty (ARG)
  2055                           ;!             ___aldiv
  2056                           ;!           ___fldiv (ARG)
  2057                           ;!             ___xxtofl (ARG)
  2058                           ;!               _PWM_Max_Duty (ARG)
  2059                           ;!                 ___aldiv
  2060                           ;!           ___xxtofl (ARG)
  2061                           ;!             _PWM_Max_Duty (ARG)
  2062                           ;!               ___aldiv
  2063                           ;!         ___fltol
  2064                           ;!           _PWM_Max_Duty (ARG)
  2065                           ;!             ___aldiv
  2066                           ;!           ___fldiv (ARG)
  2067                           ;!             ___xxtofl (ARG)
  2068                           ;!               _PWM_Max_Duty (ARG)
  2069                           ;!                 ___aldiv
  2070                           ;!           ___flmul (ARG)
  2071                           ;!             _PWM_Max_Duty (ARG)
  2072                           ;!               ___aldiv
  2073                           ;!             ___fldiv (ARG)
  2074                           ;!               ___xxtofl (ARG)
  2075                           ;!                 _PWM_Max_Duty (ARG)
  2076                           ;!                   ___aldiv
  2077                           ;!             ___xxtofl (ARG)
  2078                           ;!               _PWM_Max_Duty (ARG)
  2079                           ;!                 ___aldiv
  2080                           ;!           ___xxtofl (ARG)
  2081                           ;!             _PWM_Max_Duty (ARG)
  2082                           ;!               ___aldiv
  2083                           ;!         ___xxtofl
  2084                           ;!           _PWM_Max_Duty (ARG)
  2085                           ;!             ___aldiv
  2086                           ;!     _RobotCW
  2087                           ;!       _M1Atras
  2088                           ;!         _digitalWrite
  2089                           ;!       _M2Adelante
  2090                           ;!         _digitalWrite
  2091                           ;!       _analogWrite
  2092                           ;!         _PWM_Max_Duty
  2093                           ;!           ___aldiv
  2094                           ;!         ___fldiv
  2095                           ;!           ___xxtofl (ARG)
  2096                           ;!             _PWM_Max_Duty (ARG)
  2097                           ;!               ___aldiv
  2098                           ;!         ___flmul
  2099                           ;!           _PWM_Max_Duty (ARG)
  2100                           ;!             ___aldiv
  2101                           ;!           ___fldiv (ARG)
  2102                           ;!             ___xxtofl (ARG)
  2103                           ;!               _PWM_Max_Duty (ARG)
  2104                           ;!                 ___aldiv
  2105                           ;!           ___xxtofl (ARG)
  2106                           ;!             _PWM_Max_Duty (ARG)
  2107                           ;!               ___aldiv
  2108                           ;!         ___fltol
  2109                           ;!           _PWM_Max_Duty (ARG)
  2110                           ;!             ___aldiv
  2111                           ;!           ___fldiv (ARG)
  2112                           ;!             ___xxtofl (ARG)
  2113                           ;!               _PWM_Max_Duty (ARG)
  2114                           ;!                 ___aldiv
  2115                           ;!           ___flmul (ARG)
  2116                           ;!             _PWM_Max_Duty (ARG)
  2117                           ;!               ___aldiv
  2118                           ;!             ___fldiv (ARG)
  2119                           ;!               ___xxtofl (ARG)
  2120                           ;!                 _PWM_Max_Duty (ARG)
  2121                           ;!                   ___aldiv
  2122                           ;!             ___xxtofl (ARG)
  2123                           ;!               _PWM_Max_Duty (ARG)
  2124                           ;!                 ___aldiv
  2125                           ;!           ___xxtofl (ARG)
  2126                           ;!             _PWM_Max_Duty (ARG)
  2127                           ;!               ___aldiv
  2128                           ;!         ___xxtofl
  2129                           ;!           _PWM_Max_Duty (ARG)
  2130                           ;!             ___aldiv
  2131                           ;!     _digitalRead
  2132                           ;!   _setup
  2133                           ;!     _pinMode
  2134                           ;!
  2135                           ;! _TimerOverflow (ROOT)
  2136                           ;!
  2137                           
  2138                           ;! Address spaces:
  2139                           
  2140                           ;!Name               Size   Autos  Total    Cost      Usage
  2141                           ;!BIGRAM             7FF      0       0      21        0.0%
  2142                           ;!EEDATA             100      0       0       0        0.0%
  2143                           ;!BITBANK7           100      0       0      18        0.0%
  2144                           ;!BANK7              100      0       0      19        0.0%
  2145                           ;!BITBANK6           100      0       0      16        0.0%
  2146                           ;!BANK6              100      0       0      17        0.0%
  2147                           ;!BITBANK5           100      0       0      14        0.0%
  2148                           ;!BANK5              100      0       0      15        0.0%
  2149                           ;!BITBANK4           100      0       0      12        0.0%
  2150                           ;!BANK4              100      0       0      13        0.0%
  2151                           ;!BITBANK3           100      0       0      10        0.0%
  2152                           ;!BANK3              100      0       0      11        0.0%
  2153                           ;!BITBANK2           100      0       0       8        0.0%
  2154                           ;!BANK2              100      0       0       9        0.0%
  2155                           ;!BITBANK1           100      0       0       6        0.0%
  2156                           ;!BANK1              100      0       0       7        0.0%
  2157                           ;!BITBANK0            A0      0       0       4        0.0%
  2158                           ;!BANK0               A0      7      1A       5       16.3%
  2159                           ;!BITCOMRAM           5E      0       0       0        0.0%
  2160                           ;!COMRAM              5E     5E      5E       1      100.0%
  2161                           ;!BITSFR               0      0       0     200        0.0%
  2162                           ;!SFR                  0      0       0     200        0.0%
  2163                           ;!STACK                0      0       0       2        0.0%
  2164                           ;!NULL                 0      0       0       0        0.0%
  2165                           ;!ABS                  0      0      78      20        0.0%
  2166                           ;!DATA                 0      0      78       3        0.0%
  2167                           ;!CODE                 0      0       0       0        0.0%
  2168                           
  2169                           	global	_main
  2170                           
  2171 ;; *************** function _main *****************
  2172 ;; Defined at:
  2173 ;;		line 12 in file "main.c"
  2174 ;; Parameters:    Size  Location     Type
  2175 ;;		None
  2176 ;; Auto vars:     Size  Location     Type
  2177 ;;		None
  2178 ;; Return value:  Size  Location     Type
  2179 ;;                  2  154[None  ] int 
  2180 ;; Registers used:
  2181 ;;		wreg, status,2, status,0, prodl, prodh, cstack
  2182 ;; Tracked objects:
  2183 ;;		On entry : 0/0
  2184 ;;		On exit  : 0/0
  2185 ;;		Unchanged: 0/0
  2186 ;; Data sizes:     COMRAM   BANK0   BANK1   BANK2   BANK3   BANK4   BANK5   BANK6   BANK7
  2187 ;;      Params:         0       0       0       0       0       0       0       0       0
  2188 ;;      Locals:         0       0       0       0       0       0       0       0       0
  2189 ;;      Temps:          0       0       0       0       0       0       0       0       0
  2190 ;;      Totals:         0       0       0       0       0       0       0       0       0
  2191 ;;Total ram usage:        0 bytes
  2192 ;; Hardware stack levels required when called:    6
  2193 ;; This function calls:
  2194 ;;		_configuracionInicial
  2195 ;;		_loop
  2196 ;;		_setup
  2197 ;; This function is called by:
  2198 ;;		Startup code after reset
  2199 ;; This function uses a non-reentrant model
  2200 ;;
  2201                           psect	text0,class=CODE,space=0,reloc=2,group=0
  2202                           	file	"main.c"
  2203                           	line	12
  2204                           global __ptext0
  2205                           __ptext0:
  2206  006356                     psect	text0
  2207                           	file	"main.c"
  2208                           	line	12
  2209                           	global	__size_of_main
  2210                           	__size_of_main	equ	__end_of_main-_main
  2211  0000                     	
  2212                           _main:
  2213  006356                     ;incstack = 0
  2214                           	opt	stack 25
  2215                           	line	14
  2216                           	
  2217                           l2838:
  2218  006356                     ;main.c: 14:     SPBRG_Register = SPBRG;
  2219                           	movff	(c:4015),(_SPBRG_Register)	;volatile
  2220  006356  CFAF F06E          	movlb	0	; () banked
  2221  00635A  0100               	clrf	((_SPBRG_Register+1))&0ffh
  2222  00635C  6B6F               	line	16
  2223                           	
  2224                           l2840:; BSR set to: 0
  2225  00635E                     
  2226                           ;main.c: 16:     configuracionInicial();
  2227                           	call	_configuracionInicial	;wreg free
  2228  00635E  EC45  F031         	line	17
  2229                           ;main.c: 17:     setup();
  2230                           	call	_setup	;wreg free
  2231  006362  EC36  F032         	goto	l2842
  2232  006366  EFB5  F031         	line	18
  2233                           ;main.c: 18:     while(1)
  2234                           	
  2235                           l155:
  2236  00636A                     	line	20
  2237                           	
  2238                           l2842:
  2239  00636A                     ;main.c: 19:     {;main.c: 20:         loop();
  2240                           	call	_loop	;wreg free
  2241  00636A  ECCF  F032         	goto	l2842
  2242  00636E  EFB5  F031         	line	21
  2243                           ;main.c: 21:     }
  2244                           	
  2245                           l156:
  2246  006372                     	goto	l2842
  2247  006372  EFB5  F031         	
  2248                           l157:
  2249  006376                     	line	23
  2250                           ;main.c: 22:     return 0;;	Return value of _main is never used
  2251                           	
  2252                           l158:
  2253  006376                     	global	start
  2254                           	goto	start
  2255  006376  EF07  F000         	opt stack 0
  2256                           GLOBAL	__end_of_main
  2257                           	__end_of_main:
  2258  00637A                     	signat	_main,90
  2259                           	global	_setup
  2260                           
  2261 ;; *************** function _setup *****************
  2262 ;; Defined at:
  2263 ;;		line 15 in file "application.c"
  2264 ;; Parameters:    Size  Location     Type
  2265 ;;		None
  2266 ;; Auto vars:     Size  Location     Type
  2267 ;;		None
  2268 ;; Return value:  Size  Location     Type
  2269 ;;                  1    wreg      void 
  2270 ;; Registers used:
  2271 ;;		wreg, status,2, status,0, cstack
  2272 ;; Tracked objects:
  2273 ;;		On entry : 0/0
  2274 ;;		On exit  : 0/0
  2275 ;;		Unchanged: 0/0
  2276 ;; Data sizes:     COMRAM   BANK0   BANK1   BANK2   BANK3   BANK4   BANK5   BANK6   BANK7
  2277 ;;      Params:         0       0       0       0       0       0       0       0       0
  2278 ;;      Locals:         0       0       0       0       0       0       0       0       0
  2279 ;;      Temps:          0       0       0       0       0       0       0       0       0
  2280 ;;      Totals:         0       0       0       0       0       0       0       0       0
  2281 ;;Total ram usage:        0 bytes
  2282 ;; Hardware stack levels used:    1
  2283 ;; Hardware stack levels required when called:    2
  2284 ;; This function calls:
  2285 ;;		_pinMode
  2286 ;; This function is called by:
  2287 ;;		_main
  2288 ;; This function uses a non-reentrant model
  2289 ;;
  2290                           psect	text1,class=CODE,space=0,reloc=2,group=0
  2291                           	file	"application.c"
  2292                           	line	15
  2293                           global __ptext1
  2294                           __ptext1:
  2295  00646C                     psect	text1
  2296                           	file	"application.c"
  2297                           	line	15
  2298                           	global	__size_of_setup
  2299                           	__size_of_setup	equ	__end_of_setup-_setup
  2300  0000                     	
  2301                           _setup:
  2302  00646C                     ;incstack = 0
  2303                           	opt	stack 28
  2304                           	line	18
  2305                           	
  2306                           l2610:
  2307  00646C                     ;application.c: 18:  pinMode(control1,0);
  2308                           	movlw	low(0)
  2309  00646C  0E00               	movwf	((c:pinMode@mode)),c
  2310  00646E  6E01               	movlb	0	; () banked
  2311  006470  0100               	movf	((_control1))&0ffh,w
  2312  006472  5166               	
  2313                           	call	_pinMode
  2314  006474  EC8F  F037         	line	19
  2315                           ;application.c: 19:  pinMode(control2,0);
  2316                           	movlw	low(0)
  2317  006478  0E00               	movwf	((c:pinMode@mode)),c
  2318  00647A  6E01               	movlb	0	; () banked
  2319  00647C  0100               	movf	((_control2))&0ffh,w
  2320  00647E  5165               	
  2321                           	call	_pinMode
  2322  006480  EC8F  F037         	line	20
  2323                           ;application.c: 20:  pinMode(control3,0);
  2324                           	movlw	low(0)
  2325  006484  0E00               	movwf	((c:pinMode@mode)),c
  2326  006486  6E01               	movlb	0	; () banked
  2327  006488  0100               	movf	((_control3))&0ffh,w
  2328  00648A  5164               	
  2329                           	call	_pinMode
  2330  00648C  EC8F  F037         	line	21
  2331                           ;application.c: 21:  pinMode(control4,0);
  2332                           	movlw	low(0)
  2333  006490  0E00               	movwf	((c:pinMode@mode)),c
  2334  006492  6E01               	movlb	0	; () banked
  2335  006494  0100               	movf	((_control4))&0ffh,w
  2336  006496  5163               	
  2337                           	call	_pinMode
  2338  006498  EC8F  F037         	line	22
  2339                           ;application.c: 22:  pinMode(PWM,0);
  2340                           	movlw	low(0)
  2341  00649C  0E00               	movwf	((c:pinMode@mode)),c
  2342  00649E  6E01               	movlb	0	; () banked
  2343  0064A0  0100               	movf	((_PWM))&0ffh,w
  2344  0064A2  5162               	
  2345                           	call	_pinMode
  2346  0064A4  EC8F  F037         	line	24
  2347                           ;application.c: 24:     pinMode(SensorIzq,1);
  2348                           	movlw	low(01h)
  2349  0064A8  0E01               	movwf	((c:pinMode@mode)),c
  2350  0064AA  6E01               	movlb	0	; () banked
  2351  0064AC  0100               	movf	((_SensorIzq))&0ffh,w
  2352  0064AE  5161               	
  2353                           	call	_pinMode
  2354  0064B0  EC8F  F037         	line	25
  2355                           ;application.c: 25:     pinMode(SensorDer,1);
  2356                           	movlw	low(01h)
  2357  0064B4  0E01               	movwf	((c:pinMode@mode)),c
  2358  0064B6  6E01               	movlb	0	; () banked
  2359  0064B8  0100               	movf	((_SensorDer))&0ffh,w
  2360  0064BA  5160               	
  2361                           	call	_pinMode
  2362  0064BC  EC8F  F037         	line	26
  2363                           	
  2364                           l455:
  2365  0064C0                     	return	;funcret
  2366  0064C0  0012               	opt stack 0
  2367                           GLOBAL	__end_of_setup
  2368                           	__end_of_setup:
  2369  0064C2                     	signat	_setup,89
  2370                           	global	_pinMode
  2371                           
  2372 ;; *************** function _pinMode *****************
  2373 ;; Defined at:
  2374 ;;		line 55 in file "main.c"
  2375 ;; Parameters:    Size  Location     Type
  2376 ;;  pin             1    wreg     unsigned char 
  2377 ;;  mode            1    0[COMRAM] unsigned char 
  2378 ;; Auto vars:     Size  Location     Type
  2379 ;;  pin             1    3[COMRAM] unsigned char 
  2380 ;; Return value:  Size  Location     Type
  2381 ;;                  1    wreg      void 
  2382 ;; Registers used:
  2383 ;;		wreg, status,2, status,0
  2384 ;; Tracked objects:
  2385 ;;		On entry : 0/0
  2386 ;;		On exit  : 0/0
  2387 ;;		Unchanged: 0/0
  2388 ;; Data sizes:     COMRAM   BANK0   BANK1   BANK2   BANK3   BANK4   BANK5   BANK6   BANK7
  2389 ;;      Params:         1       0       0       0       0       0       0       0       0
  2390 ;;      Locals:         1       0       0       0       0       0       0       0       0
  2391 ;;      Temps:          2       0       0       0       0       0       0       0       0
  2392 ;;      Totals:         4       0       0       0       0       0       0       0       0
  2393 ;;Total ram usage:        4 bytes
  2394 ;; Hardware stack levels used:    1
  2395 ;; Hardware stack levels required when called:    1
  2396 ;; This function calls:
  2397 ;;		Nothing
  2398 ;; This function is called by:
  2399 ;;		_setup
  2400 ;;		_Hola_Mundo_Init
  2401 ;; This function uses a non-reentrant model
  2402 ;;
  2403                           psect	text2,class=CODE,space=0,reloc=2,group=0
  2404                           	file	"main.c"
  2405                           	line	55
  2406                           global __ptext2
  2407                           __ptext2:
  2408  006F1E                     psect	text2
  2409                           	file	"main.c"
  2410                           	line	55
  2411                           	global	__size_of_pinMode
  2412                           	__size_of_pinMode	equ	__end_of_pinMode-_pinMode
  2413  0000                     	
  2414                           _pinMode:
  2415  006F1E                     ;incstack = 0
  2416                           	opt	stack 28
  2417                           ;pinMode@pin stored from wreg
  2418                           	movwf	((c:pinMode@pin)),c
  2419  006F1E  6E04               	line	57
  2420                           	
  2421                           l2522:
  2422  006F20                     ;main.c: 55: void pinMode(char pin, char mode);main.c: 56: {;main.c: 57:     switch(pin)
                                 
  2423                           	goto	l2526
  2424  006F20  EF35  F038         	line	59
  2425                           ;main.c: 58:     {;main.c: 59:         case 0:
  2426                           	
  2427                           l177:
  2428  006F24                     	line	60
  2429                           ;main.c: 60:             TRISAbits.RA4 = mode;
  2430                           	btfsc	(c:pinMode@mode),c,0
  2431  006F24  B001               	bra	u2725
  2432  006F26  D002               	bcf	((c:3986)),c,4	;volatile
  2433  006F28  9892               	bra	u2726
  2434  006F2A  D001               	u2725:
  2435  006F2C                     	bsf	((c:3986)),c,4	;volatile
  2436  006F2C  8892               	u2726:
  2437  006F2E                     
  2438                           	line	61
  2439                           ;main.c: 61:             break;
  2440                           	goto	l201
  2441  006F2E  EF9E  F038         	line	62
  2442                           ;main.c: 62:         case 1:
  2443                           	
  2444                           l179:
  2445  006F32                     	line	63
  2446                           ;main.c: 63:             TRISAbits.RA5 = mode;
  2447                           	btfsc	(c:pinMode@mode),c,0
  2448  006F32  B001               	bra	u2735
  2449  006F34  D002               	bcf	((c:3986)),c,5	;volatile
  2450  006F36  9A92               	bra	u2736
  2451  006F38  D001               	u2735:
  2452  006F3A                     	bsf	((c:3986)),c,5	;volatile
  2453  006F3A  8A92               	u2736:
  2454  006F3C                     
  2455                           	line	64
  2456                           ;main.c: 64:             break;
  2457                           	goto	l201
  2458  006F3C  EF9E  F038         	line	65
  2459                           ;main.c: 65:         case 2:
  2460                           	
  2461                           l180:
  2462  006F40                     	line	66
  2463                           ;main.c: 66:             TRISCbits.RC0 = mode;
  2464                           	btfsc	(c:pinMode@mode),c,0
  2465  006F40  B001               	bra	u2745
  2466  006F42  D002               	bcf	((c:3988)),c,0	;volatile
  2467  006F44  9094               	bra	u2746
  2468  006F46  D001               	u2745:
  2469  006F48                     	bsf	((c:3988)),c,0	;volatile
  2470  006F48  8094               	u2746:
  2471  006F4A                     
  2472                           	line	67
  2473                           ;main.c: 67:             break;
  2474                           	goto	l201
  2475  006F4A  EF9E  F038         	line	68
  2476                           ;main.c: 68:         case 3:
  2477                           	
  2478                           l181:
  2479  006F4E                     	line	69
  2480                           ;main.c: 69:             TRISCbits.RC1 = mode;
  2481                           	btfsc	(c:pinMode@mode),c,0
  2482  006F4E  B001               	bra	u2755
  2483  006F50  D002               	bcf	((c:3988)),c,1	;volatile
  2484  006F52  9294               	bra	u2756
  2485  006F54  D001               	u2755:
  2486  006F56                     	bsf	((c:3988)),c,1	;volatile
  2487  006F56  8294               	u2756:
  2488  006F58                     
  2489                           	line	70
  2490                           ;main.c: 70:             break;
  2491                           	goto	l201
  2492  006F58  EF9E  F038         	line	71
  2493                           ;main.c: 71:         case 4:
  2494                           	
  2495                           l182:
  2496  006F5C                     	line	72
  2497                           ;main.c: 72:             TRISCbits.RC2 = mode;
  2498                           	btfsc	(c:pinMode@mode),c,0
  2499  006F5C  B001               	bra	u2765
  2500  006F5E  D002               	bcf	((c:3988)),c,2	;volatile
  2501  006F60  9494               	bra	u2766
  2502  006F62  D001               	u2765:
  2503  006F64                     	bsf	((c:3988)),c,2	;volatile
  2504  006F64  8494               	u2766:
  2505  006F66                     
  2506                           	line	73
  2507                           ;main.c: 73:             break;
  2508                           	goto	l201
  2509  006F66  EF9E  F038         	line	74
  2510                           ;main.c: 74:         case 5:
  2511                           	
  2512                           l183:
  2513  006F6A                     	line	75
  2514                           ;main.c: 75:             TRISDbits.RD0 = mode;
  2515                           	btfsc	(c:pinMode@mode),c,0
  2516  006F6A  B001               	bra	u2775
  2517  006F6C  D002               	bcf	((c:3989)),c,0	;volatile
  2518  006F6E  9095               	bra	u2776
  2519  006F70  D001               	u2775:
  2520  006F72                     	bsf	((c:3989)),c,0	;volatile
  2521  006F72  8095               	u2776:
  2522  006F74                     
  2523                           	line	76
  2524                           ;main.c: 76:             break;
  2525                           	goto	l201
  2526  006F74  EF9E  F038         	line	77
  2527                           ;main.c: 77:         case 6:
  2528                           	
  2529                           l184:
  2530  006F78                     	line	78
  2531                           ;main.c: 78:             TRISDbits.RD1 = mode;
  2532                           	btfsc	(c:pinMode@mode),c,0
  2533  006F78  B001               	bra	u2785
  2534  006F7A  D002               	bcf	((c:3989)),c,1	;volatile
  2535  006F7C  9295               	bra	u2786
  2536  006F7E  D001               	u2785:
  2537  006F80                     	bsf	((c:3989)),c,1	;volatile
  2538  006F80  8295               	u2786:
  2539  006F82                     
  2540                           	line	79
  2541                           ;main.c: 79:             break;
  2542                           	goto	l201
  2543  006F82  EF9E  F038         	line	80
  2544                           ;main.c: 80:         case 7:
  2545                           	
  2546                           l185:
  2547  006F86                     	line	81
  2548                           ;main.c: 81:             TRISDbits.RD2 = mode;
  2549                           	btfsc	(c:pinMode@mode),c,0
  2550  006F86  B001               	bra	u2795
  2551  006F88  D002               	bcf	((c:3989)),c,2	;volatile
  2552  006F8A  9495               	bra	u2796
  2553  006F8C  D001               	u2795:
  2554  006F8E                     	bsf	((c:3989)),c,2	;volatile
  2555  006F8E  8495               	u2796:
  2556  006F90                     
  2557                           	line	82
  2558                           ;main.c: 82:             break;
  2559                           	goto	l201
  2560  006F90  EF9E  F038         	line	83
  2561                           ;main.c: 83:         case 8:
  2562                           	
  2563                           l186:
  2564  006F94                     	line	84
  2565                           ;main.c: 84:             TRISDbits.RD3 = mode;
  2566                           	btfsc	(c:pinMode@mode),c,0
  2567  006F94  B001               	bra	u2805
  2568  006F96  D002               	bcf	((c:3989)),c,3	;volatile
  2569  006F98  9695               	bra	u2806
  2570  006F9A  D001               	u2805:
  2571  006F9C                     	bsf	((c:3989)),c,3	;volatile
  2572  006F9C  8695               	u2806:
  2573  006F9E                     
  2574                           	line	85
  2575                           ;main.c: 85:             break;
  2576                           	goto	l201
  2577  006F9E  EF9E  F038         	line	86
  2578                           ;main.c: 86:         case 9:
  2579                           	
  2580                           l187:
  2581  006FA2                     	line	87
  2582                           ;main.c: 87:             TRISCbits.RC6 = mode;
  2583                           	btfsc	(c:pinMode@mode),c,0
  2584  006FA2  B001               	bra	u2815
  2585  006FA4  D002               	bcf	((c:3988)),c,6	;volatile
  2586  006FA6  9C94               	bra	u2816
  2587  006FA8  D001               	u2815:
  2588  006FAA                     	bsf	((c:3988)),c,6	;volatile
  2589  006FAA  8C94               	u2816:
  2590  006FAC                     
  2591                           	line	88
  2592                           ;main.c: 88:             break;
  2593                           	goto	l201
  2594  006FAC  EF9E  F038         	line	89
  2595                           ;main.c: 89:         case 10:
  2596                           	
  2597                           l188:
  2598  006FB0                     	line	90
  2599                           ;main.c: 90:             TRISCbits.RC7 = mode;
  2600                           	btfsc	(c:pinMode@mode),c,0
  2601  006FB0  B001               	bra	u2825
  2602  006FB2  D002               	bcf	((c:3988)),c,7	;volatile
  2603  006FB4  9E94               	bra	u2826
  2604  006FB6  D001               	u2825:
  2605  006FB8                     	bsf	((c:3988)),c,7	;volatile
  2606  006FB8  8E94               	u2826:
  2607  006FBA                     
  2608                           	line	91
  2609                           ;main.c: 91:             break;
  2610                           	goto	l201
  2611  006FBA  EF9E  F038         	line	92
  2612                           ;main.c: 92:         case 11:
  2613                           	
  2614                           l189:
  2615  006FBE                     	line	93
  2616                           ;main.c: 93:             TRISDbits.RD4 = mode;
  2617                           	btfsc	(c:pinMode@mode),c,0
  2618  006FBE  B001               	bra	u2835
  2619  006FC0  D002               	bcf	((c:3989)),c,4	;volatile
  2620  006FC2  9895               	bra	u2836
  2621  006FC4  D001               	u2835:
  2622  006FC6                     	bsf	((c:3989)),c,4	;volatile
  2623  006FC6  8895               	u2836:
  2624  006FC8                     
  2625                           	line	94
  2626                           ;main.c: 94:             break;
  2627                           	goto	l201
  2628  006FC8  EF9E  F038         	line	95
  2629                           ;main.c: 95:         case 12:
  2630                           	
  2631                           l190:
  2632  006FCC                     	line	96
  2633                           ;main.c: 96:             TRISDbits.RD5 = mode;
  2634                           	btfsc	(c:pinMode@mode),c,0
  2635  006FCC  B001               	bra	u2845
  2636  006FCE  D002               	bcf	((c:3989)),c,5	;volatile
  2637  006FD0  9A95               	bra	u2846
  2638  006FD2  D001               	u2845:
  2639  006FD4                     	bsf	((c:3989)),c,5	;volatile
  2640  006FD4  8A95               	u2846:
  2641  006FD6                     
  2642                           	line	97
  2643                           ;main.c: 97:             break;
  2644                           	goto	l201
  2645  006FD6  EF9E  F038         	line	98
  2646                           ;main.c: 98:         case 13:
  2647                           	
  2648                           l191:
  2649  006FDA                     	line	99
  2650                           ;main.c: 99:             TRISDbits.RD6 = mode;
  2651                           	btfsc	(c:pinMode@mode),c,0
  2652  006FDA  B001               	bra	u2855
  2653  006FDC  D002               	bcf	((c:3989)),c,6	;volatile
  2654  006FDE  9C95               	bra	u2856
  2655  006FE0  D001               	u2855:
  2656  006FE2                     	bsf	((c:3989)),c,6	;volatile
  2657  006FE2  8C95               	u2856:
  2658  006FE4                     
  2659                           	line	100
  2660                           ;main.c: 100:             break;
  2661                           	goto	l201
  2662  006FE4  EF9E  F038         	line	101
  2663                           ;main.c: 101:         case 14:
  2664                           	
  2665                           l192:
  2666  006FE8                     	line	102
  2667                           ;main.c: 102:             TRISDbits.RD7 = mode;
  2668                           	btfsc	(c:pinMode@mode),c,0
  2669  006FE8  B001               	bra	u2865
  2670  006FEA  D002               	bcf	((c:3989)),c,7	;volatile
  2671  006FEC  9E95               	bra	u2866
  2672  006FEE  D001               	u2865:
  2673  006FF0                     	bsf	((c:3989)),c,7	;volatile
  2674  006FF0  8E95               	u2866:
  2675  006FF2                     
  2676                           	line	103
  2677                           ;main.c: 103:             break;
  2678                           	goto	l201
  2679  006FF2  EF9E  F038         	line	104
  2680                           ;main.c: 104:         case 15:
  2681                           	
  2682                           l193:
  2683  006FF6                     	line	105
  2684                           ;main.c: 105:             TRISBbits.RB0 = mode;
  2685                           	btfsc	(c:pinMode@mode),c,0
  2686  006FF6  B001               	bra	u2875
  2687  006FF8  D002               	bcf	((c:3987)),c,0	;volatile
  2688  006FFA  9093               	bra	u2876
  2689  006FFC  D001               	u2875:
  2690  006FFE                     	bsf	((c:3987)),c,0	;volatile
  2691  006FFE  8093               	u2876:
  2692  007000                     
  2693                           	line	106
  2694                           ;main.c: 106:             break;
  2695                           	goto	l201
  2696  007000  EF9E  F038         	line	107
  2697                           ;main.c: 107:         case 16:
  2698                           	
  2699                           l194:
  2700  007004                     	line	108
  2701                           ;main.c: 108:             TRISBbits.RB1 = mode;
  2702                           	btfsc	(c:pinMode@mode),c,0
  2703  007004  B001               	bra	u2885
  2704  007006  D002               	bcf	((c:3987)),c,1	;volatile
  2705  007008  9293               	bra	u2886
  2706  00700A  D001               	u2885:
  2707  00700C                     	bsf	((c:3987)),c,1	;volatile
  2708  00700C  8293               	u2886:
  2709  00700E                     
  2710                           	line	109
  2711                           ;main.c: 109:             break;
  2712                           	goto	l201
  2713  00700E  EF9E  F038         	line	110
  2714                           ;main.c: 110:         case 17:
  2715                           	
  2716                           l195:
  2717  007012                     	line	111
  2718                           ;main.c: 111:             TRISBbits.RB2 = mode;
  2719                           	btfsc	(c:pinMode@mode),c,0
  2720  007012  B001               	bra	u2895
  2721  007014  D002               	bcf	((c:3987)),c,2	;volatile
  2722  007016  9493               	bra	u2896
  2723  007018  D001               	u2895:
  2724  00701A                     	bsf	((c:3987)),c,2	;volatile
  2725  00701A  8493               	u2896:
  2726  00701C                     
  2727                           	line	112
  2728                           ;main.c: 112:             break;
  2729                           	goto	l201
  2730  00701C  EF9E  F038         	line	113
  2731                           ;main.c: 113:         case 18:
  2732                           	
  2733                           l196:
  2734  007020                     	line	114
  2735                           ;main.c: 114:             TRISBbits.RB3 = mode;
  2736                           	btfsc	(c:pinMode@mode),c,0
  2737  007020  B001               	bra	u2905
  2738  007022  D002               	bcf	((c:3987)),c,3	;volatile
  2739  007024  9693               	bra	u2906
  2740  007026  D001               	u2905:
  2741  007028                     	bsf	((c:3987)),c,3	;volatile
  2742  007028  8693               	u2906:
  2743  00702A                     
  2744                           	line	115
  2745                           ;main.c: 115:             break;
  2746                           	goto	l201
  2747  00702A  EF9E  F038         	line	116
  2748                           ;main.c: 116:         case 19:
  2749                           	
  2750                           l197:
  2751  00702E                     	line	117
  2752                           ;main.c: 117:             TRISBbits.RB4 = mode;
  2753                           	btfsc	(c:pinMode@mode),c,0
  2754  00702E  B001               	bra	u2915
  2755  007030  D002               	bcf	((c:3987)),c,4	;volatile
  2756  007032  9893               	bra	u2916
  2757  007034  D001               	u2915:
  2758  007036                     	bsf	((c:3987)),c,4	;volatile
  2759  007036  8893               	u2916:
  2760  007038                     
  2761                           	line	118
  2762                           ;main.c: 118:             break;
  2763                           	goto	l201
  2764  007038  EF9E  F038         	line	119
  2765                           ;main.c: 119:         case 20:
  2766                           	
  2767                           l198:
  2768  00703C                     	line	120
  2769                           ;main.c: 120:             TRISBbits.RB5 = mode;
  2770                           	btfsc	(c:pinMode@mode),c,0
  2771  00703C  B001               	bra	u2925
  2772  00703E  D002               	bcf	((c:3987)),c,5	;volatile
  2773  007040  9A93               	bra	u2926
  2774  007042  D001               	u2925:
  2775  007044                     	bsf	((c:3987)),c,5	;volatile
  2776  007044  8A93               	u2926:
  2777  007046                     
  2778                           	line	121
  2779                           ;main.c: 121:             break;
  2780                           	goto	l201
  2781  007046  EF9E  F038         	line	122
  2782                           ;main.c: 122:         case 21:
  2783                           	
  2784                           l199:
  2785  00704A                     	line	123
  2786                           ;main.c: 123:             TRISBbits.RB6 = mode;
  2787                           	btfsc	(c:pinMode@mode),c,0
  2788  00704A  B001               	bra	u2935
  2789  00704C  D002               	bcf	((c:3987)),c,6	;volatile
  2790  00704E  9C93               	bra	u2936
  2791  007050  D001               	u2935:
  2792  007052                     	bsf	((c:3987)),c,6	;volatile
  2793  007052  8C93               	u2936:
  2794  007054                     
  2795                           	line	124
  2796                           ;main.c: 124:             break;
  2797                           	goto	l201
  2798  007054  EF9E  F038         	line	125
  2799                           ;main.c: 125:         case 22:
  2800                           	
  2801                           l200:
  2802  007058                     	line	126
  2803                           ;main.c: 126:             TRISBbits.RB7 = mode;
  2804                           	btfsc	(c:pinMode@mode),c,0
  2805  007058  B001               	bra	u2945
  2806  00705A  D002               	bcf	((c:3987)),c,7	;volatile
  2807  00705C  9E93               	bra	u2946
  2808  00705E  D001               	u2945:
  2809  007060                     	bsf	((c:3987)),c,7	;volatile
  2810  007060  8E93               	u2946:
  2811  007062                     
  2812                           	line	127
  2813                           ;main.c: 127:             break;
  2814                           	goto	l201
  2815  007062  EF9E  F038         	line	128
  2816                           	
  2817                           l2524:
  2818  007066                     ;main.c: 128:     }
  2819                           	goto	l201
  2820  007066  EF9E  F038         	
  2821                           l176:
  2822  00706A                     	
  2823                           l2526:
  2824  00706A                     	movf	((c:pinMode@pin)),c,w
  2825  00706A  5004               	movwf	(??_pinMode+0+0)&0ffh,c
  2826  00706C  6E02               	clrf	(??_pinMode+0+0+1)&0ffh,c
  2827  00706E  6A03               
  2828                           	; Switch on 2 bytes has been partitioned into a top level switch of size 1, and 1 sub-s
                                 witches
  2829                           ; Switch size 1, requested type "space"
  2830                           ; Number of cases is 1, Range of values is 0 to 0
  2831                           ; switch strategies available:
  2832                           ; Name         Instructions Cycles
  2833                           ; simple_byte            4     3 (average)
  2834                           ;	Chosen strategy is simple_byte
  2835                           
  2836                           	movf ??_pinMode+0+1,c,w
  2837  007070  5003               	xorlw	0^0	; case 0
  2838  007072  0A00               	skipnz
  2839  007074  B4D8               	goto	l3016
  2840  007076  EF3F  F038         	goto	l201
  2841  00707A  EF9E  F038         	
  2842                           l3016:
  2843  00707E                     ; Switch size 1, requested type "space"
  2844                           ; Number of cases is 23, Range of values is 0 to 22
  2845                           ; switch strategies available:
  2846                           ; Name         Instructions Cycles
  2847                           ; simple_byte           70    36 (average)
  2848                           ;	Chosen strategy is simple_byte
  2849                           
  2850                           	movf ??_pinMode+0+0,c,w
  2851  00707E  5002               	xorlw	0^0	; case 0
  2852  007080  0A00               	skipnz
  2853  007082  B4D8               	goto	l177
  2854  007084  EF92  F037         	xorlw	1^0	; case 1
  2855  007088  0A01               	skipnz
  2856  00708A  B4D8               	goto	l179
  2857  00708C  EF99  F037         	xorlw	2^1	; case 2
  2858  007090  0A03               	skipnz
  2859  007092  B4D8               	goto	l180
  2860  007094  EFA0  F037         	xorlw	3^2	; case 3
  2861  007098  0A01               	skipnz
  2862  00709A  B4D8               	goto	l181
  2863  00709C  EFA7  F037         	xorlw	4^3	; case 4
  2864  0070A0  0A07               	skipnz
  2865  0070A2  B4D8               	goto	l182
  2866  0070A4  EFAE  F037         	xorlw	5^4	; case 5
  2867  0070A8  0A01               	skipnz
  2868  0070AA  B4D8               	goto	l183
  2869  0070AC  EFB5  F037         	xorlw	6^5	; case 6
  2870  0070B0  0A03               	skipnz
  2871  0070B2  B4D8               	goto	l184
  2872  0070B4  EFBC  F037         	xorlw	7^6	; case 7
  2873  0070B8  0A01               	skipnz
  2874  0070BA  B4D8               	goto	l185
  2875  0070BC  EFC3  F037         	xorlw	8^7	; case 8
  2876  0070C0  0A0F               	skipnz
  2877  0070C2  B4D8               	goto	l186
  2878  0070C4  EFCA  F037         	xorlw	9^8	; case 9
  2879  0070C8  0A01               	skipnz
  2880  0070CA  B4D8               	goto	l187
  2881  0070CC  EFD1  F037         	xorlw	10^9	; case 10
  2882  0070D0  0A03               	skipnz
  2883  0070D2  B4D8               	goto	l188
  2884  0070D4  EFD8  F037         	xorlw	11^10	; case 11
  2885  0070D8  0A01               	skipnz
  2886  0070DA  B4D8               	goto	l189
  2887  0070DC  EFDF  F037         	xorlw	12^11	; case 12
  2888  0070E0  0A07               	skipnz
  2889  0070E2  B4D8               	goto	l190
  2890  0070E4  EFE6  F037         	xorlw	13^12	; case 13
  2891  0070E8  0A01               	skipnz
  2892  0070EA  B4D8               	goto	l191
  2893  0070EC  EFED  F037         	xorlw	14^13	; case 14
  2894  0070F0  0A03               	skipnz
  2895  0070F2  B4D8               	goto	l192
  2896  0070F4  EFF4  F037         	xorlw	15^14	; case 15
  2897  0070F8  0A01               	skipnz
  2898  0070FA  B4D8               	goto	l193
  2899  0070FC  EFFB  F037         	xorlw	16^15	; case 16
  2900  007100  0A1F               	skipnz
  2901  007102  B4D8               	goto	l194
  2902  007104  EF02  F038         	xorlw	17^16	; case 17
  2903  007108  0A01               	skipnz
  2904  00710A  B4D8               	goto	l195
  2905  00710C  EF09  F038         	xorlw	18^17	; case 18
  2906  007110  0A03               	skipnz
  2907  007112  B4D8               	goto	l196
  2908  007114  EF10  F038         	xorlw	19^18	; case 19
  2909  007118  0A01               	skipnz
  2910  00711A  B4D8               	goto	l197
  2911  00711C  EF17  F038         	xorlw	20^19	; case 20
  2912  007120  0A07               	skipnz
  2913  007122  B4D8               	goto	l198
  2914  007124  EF1E  F038         	xorlw	21^20	; case 21
  2915  007128  0A01               	skipnz
  2916  00712A  B4D8               	goto	l199
  2917  00712C  EF25  F038         	xorlw	22^21	; case 22
  2918  007130  0A03               	skipnz
  2919  007132  B4D8               	goto	l200
  2920  007134  EF2C  F038         	goto	l201
  2921  007138  EF9E  F038         
  2922                           	
  2923                           l178:
  2924  00713C                     	line	129
  2925                           	
  2926                           l201:
  2927  00713C                     	return	;funcret
  2928  00713C  0012               	opt stack 0
  2929                           GLOBAL	__end_of_pinMode
  2930                           	__end_of_pinMode:
  2931  00713E                     	signat	_pinMode,8313
  2932                           	global	_loop
  2933                           
  2934 ;; *************** function _loop *****************
  2935 ;; Defined at:
  2936 ;;		line 28 in file "application.c"
  2937 ;; Parameters:    Size  Location     Type
  2938 ;;		None
  2939 ;; Auto vars:     Size  Location     Type
  2940 ;;		None
  2941 ;; Return value:  Size  Location     Type
  2942 ;;                  1    wreg      void 
  2943 ;; Registers used:
  2944 ;;		wreg, status,2, status,0, prodl, prodh, cstack
  2945 ;; Tracked objects:
  2946 ;;		On entry : 0/0
  2947 ;;		On exit  : 0/0
  2948 ;;		Unchanged: 0/0
  2949 ;; Data sizes:     COMRAM   BANK0   BANK1   BANK2   BANK3   BANK4   BANK5   BANK6   BANK7
  2950 ;;      Params:         0       0       0       0       0       0       0       0       0
  2951 ;;      Locals:         0       0       0       0       0       0       0       0       0
  2952 ;;      Temps:          0       0       0       0       0       0       0       0       0
  2953 ;;      Totals:         0       0       0       0       0       0       0       0       0
  2954 ;;Total ram usage:        0 bytes
  2955 ;; Hardware stack levels used:    1
  2956 ;; Hardware stack levels required when called:    5
  2957 ;; This function calls:
  2958 ;;		_RobotAdelante
  2959 ;;		_RobotCCW
  2960 ;;		_RobotCW
  2961 ;;		_digitalRead
  2962 ;; This function is called by:
  2963 ;;		_main
  2964 ;; This function uses a non-reentrant model
  2965 ;;
  2966                           psect	text3,class=CODE,space=0,reloc=2,group=0
  2967                           	file	"application.c"
  2968                           	line	28
  2969                           global __ptext3
  2970                           __ptext3:
  2971  00659E                     psect	text3
  2972                           	file	"application.c"
  2973                           	line	28
  2974                           	global	__size_of_loop
  2975                           	__size_of_loop	equ	__end_of_loop-_loop
  2976  0000                     	
  2977                           _loop:
  2978  00659E                     ;incstack = 0
  2979                           	opt	stack 25
  2980                           	line	30
  2981                           	
  2982                           l2612:
  2983  00659E                     ;application.c: 30:     if((digitalRead(SensorIzq) == 0) && (digitalRead(SensorDer) == 0
                                 ))
  2984                           	movlb	0	; () banked
  2985  00659E  0100               	movf	((_SensorIzq))&0ffh,w
  2986  0065A0  5161               	
  2987                           	call	_digitalRead
  2988  0065A2  EC9F  F038         	iorlw	0
  2989  0065A6  0900               	btfss	status,2
  2990  0065A8  A4D8               	goto	u3181
  2991  0065AA  EFD9  F032         	goto	u3180
  2992  0065AE  EFDB  F032         u3181:
  2993  0065B2                     	goto	l2618
  2994  0065B2  EFF0  F032         u3180:
  2995  0065B6                     	
  2996                           l2614:
  2997  0065B6                     	movlb	0	; () banked
  2998  0065B6  0100               	movf	((_SensorDer))&0ffh,w
  2999  0065B8  5160               	
  3000                           	call	_digitalRead
  3001  0065BA  EC9F  F038         	iorlw	0
  3002  0065BE  0900               	btfss	status,2
  3003  0065C0  A4D8               	goto	u3191
  3004  0065C2  EFE5  F032         	goto	u3190
  3005  0065C6  EFE7  F032         u3191:
  3006  0065CA                     	goto	l2618
  3007  0065CA  EFF0  F032         u3190:
  3008  0065CE                     	line	32
  3009                           	
  3010                           l2616:
  3011  0065CE                     ;application.c: 31:     {;application.c: 32:         RobotAdelante(750);
  3012                           	movlw	high(02EEh)
  3013  0065CE  0E02               	movlb	0	; () banked
  3014  0065D0  0100               	movwf	((RobotAdelante@velocidad+1))&0ffh
  3015  0065D2  6F6D               	movlw	low(02EEh)
  3016  0065D4  0EEE               	movwf	((RobotAdelante@velocidad))&0ffh
  3017  0065D6  6F6C               	call	_RobotAdelante	;wreg free
  3018  0065D8  EC6A  F031         	line	33
  3019                           ;application.c: 33:     }
  3020                           	goto	l464
  3021  0065DC  EF3F  F033         	line	34
  3022                           ;application.c: 34:     else if((digitalRead(SensorIzq) == 1) && (digitalRead(SensorDer)
                                  == 0))
  3023                           	
  3024                           l458:
  3025  0065E0                     	
  3026                           l2618:
  3027  0065E0                     	movlb	0	; () banked
  3028  0065E0  0100               	movf	((_SensorIzq))&0ffh,w
  3029  0065E2  5161               	
  3030                           	call	_digitalRead
  3031  0065E4  EC9F  F038         	decf	wreg
  3032  0065E8  06E8               	btfss	status,2
  3033  0065EA  A4D8               	goto	u3201
  3034  0065EC  EFFA  F032         	goto	u3200
  3035  0065F0  EFFC  F032         u3201:
  3036  0065F4                     	goto	l2624
  3037  0065F4  EF11  F033         u3200:
  3038  0065F8                     	
  3039                           l2620:
  3040  0065F8                     	movlb	0	; () banked
  3041  0065F8  0100               	movf	((_SensorDer))&0ffh,w
  3042  0065FA  5160               	
  3043                           	call	_digitalRead
  3044  0065FC  EC9F  F038         	iorlw	0
  3045  006600  0900               	btfss	status,2
  3046  006602  A4D8               	goto	u3211
  3047  006604  EF06  F033         	goto	u3210
  3048  006608  EF08  F033         u3211:
  3049  00660C                     	goto	l2624
  3050  00660C  EF11  F033         u3210:
  3051  006610                     	line	36
  3052                           	
  3053                           l2622:
  3054  006610                     ;application.c: 35:     {;application.c: 36:         RobotCW(500);
  3055                           	movlw	high(01F4h)
  3056  006610  0E01               	movlb	0	; () banked
  3057  006612  0100               	movwf	((RobotCW@velocidad+1))&0ffh
  3058  006614  6F6D               	movlw	low(01F4h)
  3059  006616  0EF4               	movwf	((RobotCW@velocidad))&0ffh
  3060  006618  6F6C               	call	_RobotCW	;wreg free
  3061  00661A  EC9E  F031         	line	37
  3062                           ;application.c: 37:     }
  3063                           	goto	l464
  3064  00661E  EF3F  F033         	line	38
  3065                           ;application.c: 38:     else if((digitalRead(SensorIzq) == 0) && (digitalRead(SensorDer)
                                  == 1))
  3066                           	
  3067                           l460:
  3068  006622                     	
  3069                           l2624:
  3070  006622                     	movlb	0	; () banked
  3071  006622  0100               	movf	((_SensorIzq))&0ffh,w
  3072  006624  5161               	
  3073                           	call	_digitalRead
  3074  006626  EC9F  F038         	iorlw	0
  3075  00662A  0900               	btfss	status,2
  3076  00662C  A4D8               	goto	u3221
  3077  00662E  EF1B  F033         	goto	u3220
  3078  006632  EF1D  F033         u3221:
  3079  006636                     	goto	l2630
  3080  006636  EF32  F033         u3220:
  3081  00663A                     	
  3082                           l2626:
  3083  00663A                     	movlb	0	; () banked
  3084  00663A  0100               	movf	((_SensorDer))&0ffh,w
  3085  00663C  5160               	
  3086                           	call	_digitalRead
  3087  00663E  EC9F  F038         	decf	wreg
  3088  006642  06E8               	btfss	status,2
  3089  006644  A4D8               	goto	u3231
  3090  006646  EF27  F033         	goto	u3230
  3091  00664A  EF29  F033         u3231:
  3092  00664E                     	goto	l2630
  3093  00664E  EF32  F033         u3230:
  3094  006652                     	line	40
  3095                           	
  3096                           l2628:
  3097  006652                     ;application.c: 39:     {;application.c: 40:         RobotCCW(500);
  3098                           	movlw	high(01F4h)
  3099  006652  0E01               	movlb	0	; () banked
  3100  006654  0100               	movwf	((RobotCCW@velocidad+1))&0ffh
  3101  006656  6F6D               	movlw	low(01F4h)
  3102  006658  0EF4               	movwf	((RobotCCW@velocidad))&0ffh
  3103  00665A  6F6C               	call	_RobotCCW	;wreg free
  3104  00665C  EC84  F031         	line	41
  3105                           ;application.c: 41:     }
  3106                           	goto	l464
  3107  006660  EF3F  F033         	line	42
  3108                           ;application.c: 42:     else
  3109                           	
  3110                           l462:
  3111  006664                     	line	44
  3112                           	
  3113                           l2630:
  3114  006664                     ;application.c: 43:     {;application.c: 44:         RobotAdelante(0);
  3115                           	movlw	high(0)
  3116  006664  0E00               	movlb	0	; () banked
  3117  006666  0100               	movwf	((RobotAdelante@velocidad+1))&0ffh
  3118  006668  6F6D               	movlw	low(0)
  3119  00666A  0E00               	movwf	((RobotAdelante@velocidad))&0ffh
  3120  00666C  6F6C               	call	_RobotAdelante	;wreg free
  3121  00666E  EC6A  F031         	goto	l464
  3122  006672  EF3F  F033         	line	45
  3123                           ;application.c: 45:     }
  3124                           	
  3125                           l463:
  3126  006676                     	goto	l464
  3127  006676  EF3F  F033         	
  3128                           l461:
  3129  00667A                     	goto	l464
  3130  00667A  EF3F  F033         	
  3131                           l459:
  3132  00667E                     	line	46
  3133                           	
  3134                           l464:
  3135  00667E                     	return	;funcret
  3136  00667E  0012               	opt stack 0
  3137                           GLOBAL	__end_of_loop
  3138                           	__end_of_loop:
  3139  006680                     	signat	_loop,89
  3140                           	global	_digitalRead
  3141                           
  3142 ;; *************** function _digitalRead *****************
  3143 ;; Defined at:
  3144 ;;		line 205 in file "main.c"
  3145 ;; Parameters:    Size  Location     Type
  3146 ;;  pin             1    wreg     unsigned char 
  3147 ;; Auto vars:     Size  Location     Type
  3148 ;;  pin             1    2[COMRAM] unsigned char 
  3149 ;; Return value:  Size  Location     Type
  3150 ;;                  1    wreg      unsigned char 
  3151 ;; Registers used:
  3152 ;;		wreg, status,2, status,0
  3153 ;; Tracked objects:
  3154 ;;		On entry : 0/0
  3155 ;;		On exit  : 0/0
  3156 ;;		Unchanged: 0/0
  3157 ;; Data sizes:     COMRAM   BANK0   BANK1   BANK2   BANK3   BANK4   BANK5   BANK6   BANK7
  3158 ;;      Params:         0       0       0       0       0       0       0       0       0
  3159 ;;      Locals:         1       0       0       0       0       0       0       0       0
  3160 ;;      Temps:          2       0       0       0       0       0       0       0       0
  3161 ;;      Totals:         3       0       0       0       0       0       0       0       0
  3162 ;;Total ram usage:        3 bytes
  3163 ;; Hardware stack levels used:    1
  3164 ;; Hardware stack levels required when called:    1
  3165 ;; This function calls:
  3166 ;;		Nothing
  3167 ;; This function is called by:
  3168 ;;		_loop
  3169 ;;		_PulseIn
  3170 ;; This function uses a non-reentrant model
  3171 ;;
  3172                           psect	text4,class=CODE,space=0,reloc=2,group=0
  3173                           	file	"main.c"
  3174                           	line	205
  3175                           global __ptext4
  3176                           __ptext4:
  3177  00713E                     psect	text4
  3178                           	file	"main.c"
  3179                           	line	205
  3180                           	global	__size_of_digitalRead
  3181                           	__size_of_digitalRead	equ	__end_of_digitalRead-_digitalRead
  3182  0000                     	
  3183                           _digitalRead:
  3184  00713E                     ;incstack = 0
  3185                           	opt	stack 28
  3186                           ;digitalRead@pin stored from wreg
  3187                           	movwf	((c:digitalRead@pin)),c
  3188  00713E  6E03               	line	207
  3189                           	
  3190                           l2532:
  3191  007140                     ;main.c: 205: char digitalRead(char pin);main.c: 206: {;main.c: 207:     switch(pin)
  3192                           	goto	l2582
  3193  007140  EFCF  F039         	line	209
  3194                           ;main.c: 208:     {;main.c: 209:        case 0:
  3195                           	
  3196                           l233:
  3197  007144                     	line	210
  3198                           ;main.c: 210:            return PORTAbits.RA4;
  3199                           	btfsc	((c:3968)),c,4	;volatile
  3200  007144  B880               	goto	u2951
  3201  007146  EFA7  F038         	goto	u2950
  3202  00714A  EFAA  F038         u2951:
  3203  00714E                     	movlw	1
  3204  00714E  0E01               	goto	u2956
  3205  007150  EFAB  F038         u2950:
  3206  007154                     	movlw	0
  3207  007154  0E00               u2956:
  3208  007156                     	goto	l234
  3209  007156  EF38  F03A         	line	211
  3210                           	
  3211                           l2534:
  3212  00715A                     ;main.c: 211:             break;
  3213                           	goto	l234
  3214  00715A  EF38  F03A         	line	212
  3215                           ;main.c: 212:         case 1:
  3216                           	
  3217                           l236:
  3218  00715E                     	line	213
  3219                           ;main.c: 213:             return PORTAbits.RA5;
  3220                           	btfsc	((c:3968)),c,5	;volatile
  3221  00715E  BA80               	goto	u2961
  3222  007160  EFB4  F038         	goto	u2960
  3223  007164  EFB7  F038         u2961:
  3224  007168                     	movlw	1
  3225  007168  0E01               	goto	u2966
  3226  00716A  EFB8  F038         u2960:
  3227  00716E                     	movlw	0
  3228  00716E  0E00               u2966:
  3229  007170                     	goto	l234
  3230  007170  EF38  F03A         	line	214
  3231                           	
  3232                           l2536:
  3233  007174                     ;main.c: 214:             break;
  3234                           	goto	l234
  3235  007174  EF38  F03A         	line	215
  3236                           ;main.c: 215:         case 2:
  3237                           	
  3238                           l237:
  3239  007178                     	line	216
  3240                           ;main.c: 216:             return PORTCbits.RC0;
  3241                           	btfsc	((c:3970)),c,0	;volatile
  3242  007178  B082               	goto	u2971
  3243  00717A  EFC1  F038         	goto	u2970
  3244  00717E  EFC4  F038         u2971:
  3245  007182                     	movlw	1
  3246  007182  0E01               	goto	u2976
  3247  007184  EFC5  F038         u2970:
  3248  007188                     	movlw	0
  3249  007188  0E00               u2976:
  3250  00718A                     	goto	l234
  3251  00718A  EF38  F03A         	line	217
  3252                           	
  3253                           l2538:
  3254  00718E                     ;main.c: 217:             break;
  3255                           	goto	l234
  3256  00718E  EF38  F03A         	line	218
  3257                           ;main.c: 218:         case 3:
  3258                           	
  3259                           l238:
  3260  007192                     	line	219
  3261                           ;main.c: 219:             return PORTCbits.RC1;
  3262                           	btfsc	((c:3970)),c,1	;volatile
  3263  007192  B282               	goto	u2981
  3264  007194  EFCE  F038         	goto	u2980
  3265  007198  EFD1  F038         u2981:
  3266  00719C                     	movlw	1
  3267  00719C  0E01               	goto	u2986
  3268  00719E  EFD2  F038         u2980:
  3269  0071A2                     	movlw	0
  3270  0071A2  0E00               u2986:
  3271  0071A4                     	goto	l234
  3272  0071A4  EF38  F03A         	line	220
  3273                           	
  3274                           l2540:
  3275  0071A8                     ;main.c: 220:             break;
  3276                           	goto	l234
  3277  0071A8  EF38  F03A         	line	221
  3278                           ;main.c: 221:         case 4:
  3279                           	
  3280                           l239:
  3281  0071AC                     	line	222
  3282                           ;main.c: 222:             return PORTCbits.RC2;
  3283                           	btfsc	((c:3970)),c,2	;volatile
  3284  0071AC  B482               	goto	u2991
  3285  0071AE  EFDB  F038         	goto	u2990
  3286  0071B2  EFDE  F038         u2991:
  3287  0071B6                     	movlw	1
  3288  0071B6  0E01               	goto	u2996
  3289  0071B8  EFDF  F038         u2990:
  3290  0071BC                     	movlw	0
  3291  0071BC  0E00               u2996:
  3292  0071BE                     	goto	l234
  3293  0071BE  EF38  F03A         	line	223
  3294                           	
  3295                           l2542:
  3296  0071C2                     ;main.c: 223:             break;
  3297                           	goto	l234
  3298  0071C2  EF38  F03A         	line	224
  3299                           ;main.c: 224:         case 5:
  3300                           	
  3301                           l240:
  3302  0071C6                     	line	225
  3303                           ;main.c: 225:             return PORTDbits.RD0;
  3304                           	btfsc	((c:3971)),c,0	;volatile
  3305  0071C6  B083               	goto	u3001
  3306  0071C8  EFE8  F038         	goto	u3000
  3307  0071CC  EFEB  F038         u3001:
  3308  0071D0                     	movlw	1
  3309  0071D0  0E01               	goto	u3006
  3310  0071D2  EFEC  F038         u3000:
  3311  0071D6                     	movlw	0
  3312  0071D6  0E00               u3006:
  3313  0071D8                     	goto	l234
  3314  0071D8  EF38  F03A         	line	226
  3315                           	
  3316                           l2544:
  3317  0071DC                     ;main.c: 226:             break;
  3318                           	goto	l234
  3319  0071DC  EF38  F03A         	line	227
  3320                           ;main.c: 227:         case 6:
  3321                           	
  3322                           l241:
  3323  0071E0                     	line	228
  3324                           ;main.c: 228:             return PORTDbits.RD1;
  3325                           	btfsc	((c:3971)),c,1	;volatile
  3326  0071E0  B283               	goto	u3011
  3327  0071E2  EFF5  F038         	goto	u3010
  3328  0071E6  EFF8  F038         u3011:
  3329  0071EA                     	movlw	1
  3330  0071EA  0E01               	goto	u3016
  3331  0071EC  EFF9  F038         u3010:
  3332  0071F0                     	movlw	0
  3333  0071F0  0E00               u3016:
  3334  0071F2                     	goto	l234
  3335  0071F2  EF38  F03A         	line	229
  3336                           	
  3337                           l2546:
  3338  0071F6                     ;main.c: 229:             break;
  3339                           	goto	l234
  3340  0071F6  EF38  F03A         	line	230
  3341                           ;main.c: 230:         case 7:
  3342                           	
  3343                           l242:
  3344  0071FA                     	line	231
  3345                           ;main.c: 231:             return PORTDbits.RD2;
  3346                           	btfsc	((c:3971)),c,2	;volatile
  3347  0071FA  B483               	goto	u3021
  3348  0071FC  EF02  F039         	goto	u3020
  3349  007200  EF05  F039         u3021:
  3350  007204                     	movlw	1
  3351  007204  0E01               	goto	u3026
  3352  007206  EF06  F039         u3020:
  3353  00720A                     	movlw	0
  3354  00720A  0E00               u3026:
  3355  00720C                     	goto	l234
  3356  00720C  EF38  F03A         	line	232
  3357                           	
  3358                           l2548:
  3359  007210                     ;main.c: 232:             break;
  3360                           	goto	l234
  3361  007210  EF38  F03A         	line	233
  3362                           ;main.c: 233:         case 8:
  3363                           	
  3364                           l243:
  3365  007214                     	line	234
  3366                           ;main.c: 234:             return PORTDbits.RD3;
  3367                           	btfsc	((c:3971)),c,3	;volatile
  3368  007214  B683               	goto	u3031
  3369  007216  EF0F  F039         	goto	u3030
  3370  00721A  EF12  F039         u3031:
  3371  00721E                     	movlw	1
  3372  00721E  0E01               	goto	u3036
  3373  007220  EF13  F039         u3030:
  3374  007224                     	movlw	0
  3375  007224  0E00               u3036:
  3376  007226                     	goto	l234
  3377  007226  EF38  F03A         	line	235
  3378                           	
  3379                           l2550:
  3380  00722A                     ;main.c: 235:             break;
  3381                           	goto	l234
  3382  00722A  EF38  F03A         	line	236
  3383                           ;main.c: 236:         case 9:
  3384                           	
  3385                           l244:
  3386  00722E                     	line	237
  3387                           ;main.c: 237:             return PORTCbits.RC6;
  3388                           	btfsc	((c:3970)),c,6	;volatile
  3389  00722E  BC82               	goto	u3041
  3390  007230  EF1C  F039         	goto	u3040
  3391  007234  EF1F  F039         u3041:
  3392  007238                     	movlw	1
  3393  007238  0E01               	goto	u3046
  3394  00723A  EF20  F039         u3040:
  3395  00723E                     	movlw	0
  3396  00723E  0E00               u3046:
  3397  007240                     	goto	l234
  3398  007240  EF38  F03A         	line	238
  3399                           	
  3400                           l2552:
  3401  007244                     ;main.c: 238:             break;
  3402                           	goto	l234
  3403  007244  EF38  F03A         	line	239
  3404                           ;main.c: 239:         case 10:
  3405                           	
  3406                           l245:
  3407  007248                     	line	240
  3408                           ;main.c: 240:             return PORTCbits.RC7;
  3409                           	btfsc	((c:3970)),c,7	;volatile
  3410  007248  BE82               	goto	u3051
  3411  00724A  EF29  F039         	goto	u3050
  3412  00724E  EF2C  F039         u3051:
  3413  007252                     	movlw	1
  3414  007252  0E01               	goto	u3056
  3415  007254  EF2D  F039         u3050:
  3416  007258                     	movlw	0
  3417  007258  0E00               u3056:
  3418  00725A                     	goto	l234
  3419  00725A  EF38  F03A         	line	241
  3420                           	
  3421                           l2554:
  3422  00725E                     ;main.c: 241:             break;
  3423                           	goto	l234
  3424  00725E  EF38  F03A         	line	242
  3425                           ;main.c: 242:         case 11:
  3426                           	
  3427                           l246:
  3428  007262                     	line	243
  3429                           ;main.c: 243:             return PORTDbits.RD4;
  3430                           	btfsc	((c:3971)),c,4	;volatile
  3431  007262  B883               	goto	u3061
  3432  007264  EF36  F039         	goto	u3060
  3433  007268  EF39  F039         u3061:
  3434  00726C                     	movlw	1
  3435  00726C  0E01               	goto	u3066
  3436  00726E  EF3A  F039         u3060:
  3437  007272                     	movlw	0
  3438  007272  0E00               u3066:
  3439  007274                     	goto	l234
  3440  007274  EF38  F03A         	line	244
  3441                           	
  3442                           l2556:
  3443  007278                     ;main.c: 244:             break;
  3444                           	goto	l234
  3445  007278  EF38  F03A         	line	245
  3446                           ;main.c: 245:         case 12:
  3447                           	
  3448                           l247:
  3449  00727C                     	line	246
  3450                           ;main.c: 246:             return PORTDbits.RD5;
  3451                           	btfsc	((c:3971)),c,5	;volatile
  3452  00727C  BA83               	goto	u3071
  3453  00727E  EF43  F039         	goto	u3070
  3454  007282  EF46  F039         u3071:
  3455  007286                     	movlw	1
  3456  007286  0E01               	goto	u3076
  3457  007288  EF47  F039         u3070:
  3458  00728C                     	movlw	0
  3459  00728C  0E00               u3076:
  3460  00728E                     	goto	l234
  3461  00728E  EF38  F03A         	line	247
  3462                           	
  3463                           l2558:
  3464  007292                     ;main.c: 247:             break;
  3465                           	goto	l234
  3466  007292  EF38  F03A         	line	248
  3467                           ;main.c: 248:         case 13:
  3468                           	
  3469                           l248:
  3470  007296                     	line	249
  3471                           ;main.c: 249:             return PORTDbits.RD6;
  3472                           	btfsc	((c:3971)),c,6	;volatile
  3473  007296  BC83               	goto	u3081
  3474  007298  EF50  F039         	goto	u3080
  3475  00729C  EF53  F039         u3081:
  3476  0072A0                     	movlw	1
  3477  0072A0  0E01               	goto	u3086
  3478  0072A2  EF54  F039         u3080:
  3479  0072A6                     	movlw	0
  3480  0072A6  0E00               u3086:
  3481  0072A8                     	goto	l234
  3482  0072A8  EF38  F03A         	line	250
  3483                           	
  3484                           l2560:
  3485  0072AC                     ;main.c: 250:             break;
  3486                           	goto	l234
  3487  0072AC  EF38  F03A         	line	251
  3488                           ;main.c: 251:         case 14:
  3489                           	
  3490                           l249:
  3491  0072B0                     	line	252
  3492                           ;main.c: 252:             return PORTDbits.RD7;
  3493                           	btfsc	((c:3971)),c,7	;volatile
  3494  0072B0  BE83               	goto	u3091
  3495  0072B2  EF5D  F039         	goto	u3090
  3496  0072B6  EF60  F039         u3091:
  3497  0072BA                     	movlw	1
  3498  0072BA  0E01               	goto	u3096
  3499  0072BC  EF61  F039         u3090:
  3500  0072C0                     	movlw	0
  3501  0072C0  0E00               u3096:
  3502  0072C2                     	goto	l234
  3503  0072C2  EF38  F03A         	line	253
  3504                           	
  3505                           l2562:
  3506  0072C6                     ;main.c: 253:             break;
  3507                           	goto	l234
  3508  0072C6  EF38  F03A         	line	254
  3509                           ;main.c: 254:         case 15:
  3510                           	
  3511                           l250:
  3512  0072CA                     	line	255
  3513                           ;main.c: 255:             return PORTBbits.RB0;
  3514                           	btfsc	((c:3969)),c,0	;volatile
  3515  0072CA  B081               	goto	u3101
  3516  0072CC  EF6A  F039         	goto	u3100
  3517  0072D0  EF6D  F039         u3101:
  3518  0072D4                     	movlw	1
  3519  0072D4  0E01               	goto	u3106
  3520  0072D6  EF6E  F039         u3100:
  3521  0072DA                     	movlw	0
  3522  0072DA  0E00               u3106:
  3523  0072DC                     	goto	l234
  3524  0072DC  EF38  F03A         	line	256
  3525                           	
  3526                           l2564:
  3527  0072E0                     ;main.c: 256:             break;
  3528                           	goto	l234
  3529  0072E0  EF38  F03A         	line	257
  3530                           ;main.c: 257:         case 16:
  3531                           	
  3532                           l251:
  3533  0072E4                     	line	258
  3534                           ;main.c: 258:             return PORTBbits.RB1;
  3535                           	btfsc	((c:3969)),c,1	;volatile
  3536  0072E4  B281               	goto	u3111
  3537  0072E6  EF77  F039         	goto	u3110
  3538  0072EA  EF7A  F039         u3111:
  3539  0072EE                     	movlw	1
  3540  0072EE  0E01               	goto	u3116
  3541  0072F0  EF7B  F039         u3110:
  3542  0072F4                     	movlw	0
  3543  0072F4  0E00               u3116:
  3544  0072F6                     	goto	l234
  3545  0072F6  EF38  F03A         	line	259
  3546                           	
  3547                           l2566:
  3548  0072FA                     ;main.c: 259:             break;
  3549                           	goto	l234
  3550  0072FA  EF38  F03A         	line	260
  3551                           ;main.c: 260:         case 17:
  3552                           	
  3553                           l252:
  3554  0072FE                     	line	261
  3555                           ;main.c: 261:             return PORTBbits.RB2;
  3556                           	btfsc	((c:3969)),c,2	;volatile
  3557  0072FE  B481               	goto	u3121
  3558  007300  EF84  F039         	goto	u3120
  3559  007304  EF87  F039         u3121:
  3560  007308                     	movlw	1
  3561  007308  0E01               	goto	u3126
  3562  00730A  EF88  F039         u3120:
  3563  00730E                     	movlw	0
  3564  00730E  0E00               u3126:
  3565  007310                     	goto	l234
  3566  007310  EF38  F03A         	line	262
  3567                           	
  3568                           l2568:
  3569  007314                     ;main.c: 262:             break;
  3570                           	goto	l234
  3571  007314  EF38  F03A         	line	263
  3572                           ;main.c: 263:         case 18:
  3573                           	
  3574                           l253:
  3575  007318                     	line	264
  3576                           ;main.c: 264:             return PORTBbits.RB3;
  3577                           	btfsc	((c:3969)),c,3	;volatile
  3578  007318  B681               	goto	u3131
  3579  00731A  EF91  F039         	goto	u3130
  3580  00731E  EF94  F039         u3131:
  3581  007322                     	movlw	1
  3582  007322  0E01               	goto	u3136
  3583  007324  EF95  F039         u3130:
  3584  007328                     	movlw	0
  3585  007328  0E00               u3136:
  3586  00732A                     	goto	l234
  3587  00732A  EF38  F03A         	line	265
  3588                           	
  3589                           l2570:
  3590  00732E                     ;main.c: 265:             break;
  3591                           	goto	l234
  3592  00732E  EF38  F03A         	line	266
  3593                           ;main.c: 266:         case 19:
  3594                           	
  3595                           l254:
  3596  007332                     	line	267
  3597                           ;main.c: 267:             return PORTBbits.RB4;
  3598                           	btfsc	((c:3969)),c,4	;volatile
  3599  007332  B881               	goto	u3141
  3600  007334  EF9E  F039         	goto	u3140
  3601  007338  EFA1  F039         u3141:
  3602  00733C                     	movlw	1
  3603  00733C  0E01               	goto	u3146
  3604  00733E  EFA2  F039         u3140:
  3605  007342                     	movlw	0
  3606  007342  0E00               u3146:
  3607  007344                     	goto	l234
  3608  007344  EF38  F03A         	line	268
  3609                           	
  3610                           l2572:
  3611  007348                     ;main.c: 268:             break;
  3612                           	goto	l234
  3613  007348  EF38  F03A         	line	269
  3614                           ;main.c: 269:         case 20:
  3615                           	
  3616                           l255:
  3617  00734C                     	line	270
  3618                           ;main.c: 270:             return PORTBbits.RB5;
  3619                           	btfsc	((c:3969)),c,5	;volatile
  3620  00734C  BA81               	goto	u3151
  3621  00734E  EFAB  F039         	goto	u3150
  3622  007352  EFAE  F039         u3151:
  3623  007356                     	movlw	1
  3624  007356  0E01               	goto	u3156
  3625  007358  EFAF  F039         u3150:
  3626  00735C                     	movlw	0
  3627  00735C  0E00               u3156:
  3628  00735E                     	goto	l234
  3629  00735E  EF38  F03A         	line	271
  3630                           	
  3631                           l2574:
  3632  007362                     ;main.c: 271:             break;
  3633                           	goto	l234
  3634  007362  EF38  F03A         	line	272
  3635                           ;main.c: 272:         case 21:
  3636                           	
  3637                           l256:
  3638  007366                     	line	273
  3639                           ;main.c: 273:             return PORTBbits.RB6;
  3640                           	btfsc	((c:3969)),c,6	;volatile
  3641  007366  BC81               	goto	u3161
  3642  007368  EFB8  F039         	goto	u3160
  3643  00736C  EFBB  F039         u3161:
  3644  007370                     	movlw	1
  3645  007370  0E01               	goto	u3166
  3646  007372  EFBC  F039         u3160:
  3647  007376                     	movlw	0
  3648  007376  0E00               u3166:
  3649  007378                     	goto	l234
  3650  007378  EF38  F03A         	line	274
  3651                           	
  3652                           l2576:
  3653  00737C                     ;main.c: 274:             break;
  3654                           	goto	l234
  3655  00737C  EF38  F03A         	line	275
  3656                           ;main.c: 275:         case 22:
  3657                           	
  3658                           l257:
  3659  007380                     	line	276
  3660                           ;main.c: 276:             return PORTBbits.RB7;
  3661                           	btfsc	((c:3969)),c,7	;volatile
  3662  007380  BE81               	goto	u3171
  3663  007382  EFC5  F039         	goto	u3170
  3664  007386  EFC8  F039         u3171:
  3665  00738A                     	movlw	1
  3666  00738A  0E01               	goto	u3176
  3667  00738C  EFC9  F039         u3170:
  3668  007390                     	movlw	0
  3669  007390  0E00               u3176:
  3670  007392                     	goto	l234
  3671  007392  EF38  F03A         	line	277
  3672                           	
  3673                           l2578:
  3674  007396                     ;main.c: 277:             break;
  3675                           	goto	l234
  3676  007396  EF38  F03A         	line	278
  3677                           	
  3678                           l2580:
  3679  00739A                     ;main.c: 278:     }
  3680                           	goto	l234
  3681  00739A  EF38  F03A         	
  3682                           l232:
  3683  00739E                     	
  3684                           l2582:
  3685  00739E                     	movf	((c:digitalRead@pin)),c,w
  3686  00739E  5003               	movwf	(??_digitalRead+0+0)&0ffh,c
  3687  0073A0  6E01               	clrf	(??_digitalRead+0+0+1)&0ffh,c
  3688  0073A2  6A02               
  3689                           	; Switch on 2 bytes has been partitioned into a top level switch of size 1, and 1 sub-s
                                 witches
  3690                           ; Switch size 1, requested type "space"
  3691                           ; Number of cases is 1, Range of values is 0 to 0
  3692                           ; switch strategies available:
  3693                           ; Name         Instructions Cycles
  3694                           ; simple_byte            4     3 (average)
  3695                           ;	Chosen strategy is simple_byte
  3696                           
  3697                           	movf ??_digitalRead+0+1,c,w
  3698  0073A4  5002               	xorlw	0^0	; case 0
  3699  0073A6  0A00               	skipnz
  3700  0073A8  B4D8               	goto	l3018
  3701  0073AA  EFD9  F039         	goto	l234
  3702  0073AE  EF38  F03A         	
  3703                           l3018:
  3704  0073B2                     ; Switch size 1, requested type "space"
  3705                           ; Number of cases is 23, Range of values is 0 to 22
  3706                           ; switch strategies available:
  3707                           ; Name         Instructions Cycles
  3708                           ; simple_byte           70    36 (average)
  3709                           ;	Chosen strategy is simple_byte
  3710                           
  3711                           	movf ??_digitalRead+0+0,c,w
  3712  0073B2  5001               	xorlw	0^0	; case 0
  3713  0073B4  0A00               	skipnz
  3714  0073B6  B4D8               	goto	l233
  3715  0073B8  EFA2  F038         	xorlw	1^0	; case 1
  3716  0073BC  0A01               	skipnz
  3717  0073BE  B4D8               	goto	l236
  3718  0073C0  EFAF  F038         	xorlw	2^1	; case 2
  3719  0073C4  0A03               	skipnz
  3720  0073C6  B4D8               	goto	l237
  3721  0073C8  EFBC  F038         	xorlw	3^2	; case 3
  3722  0073CC  0A01               	skipnz
  3723  0073CE  B4D8               	goto	l238
  3724  0073D0  EFC9  F038         	xorlw	4^3	; case 4
  3725  0073D4  0A07               	skipnz
  3726  0073D6  B4D8               	goto	l239
  3727  0073D8  EFD6  F038         	xorlw	5^4	; case 5
  3728  0073DC  0A01               	skipnz
  3729  0073DE  B4D8               	goto	l240
  3730  0073E0  EFE3  F038         	xorlw	6^5	; case 6
  3731  0073E4  0A03               	skipnz
  3732  0073E6  B4D8               	goto	l241
  3733  0073E8  EFF0  F038         	xorlw	7^6	; case 7
  3734  0073EC  0A01               	skipnz
  3735  0073EE  B4D8               	goto	l242
  3736  0073F0  EFFD  F038         	xorlw	8^7	; case 8
  3737  0073F4  0A0F               	skipnz
  3738  0073F6  B4D8               	goto	l243
  3739  0073F8  EF0A  F039         	xorlw	9^8	; case 9
  3740  0073FC  0A01               	skipnz
  3741  0073FE  B4D8               	goto	l244
  3742  007400  EF17  F039         	xorlw	10^9	; case 10
  3743  007404  0A03               	skipnz
  3744  007406  B4D8               	goto	l245
  3745  007408  EF24  F039         	xorlw	11^10	; case 11
  3746  00740C  0A01               	skipnz
  3747  00740E  B4D8               	goto	l246
  3748  007410  EF31  F039         	xorlw	12^11	; case 12
  3749  007414  0A07               	skipnz
  3750  007416  B4D8               	goto	l247
  3751  007418  EF3E  F039         	xorlw	13^12	; case 13
  3752  00741C  0A01               	skipnz
  3753  00741E  B4D8               	goto	l248
  3754  007420  EF4B  F039         	xorlw	14^13	; case 14
  3755  007424  0A03               	skipnz
  3756  007426  B4D8               	goto	l249
  3757  007428  EF58  F039         	xorlw	15^14	; case 15
  3758  00742C  0A01               	skipnz
  3759  00742E  B4D8               	goto	l250
  3760  007430  EF65  F039         	xorlw	16^15	; case 16
  3761  007434  0A1F               	skipnz
  3762  007436  B4D8               	goto	l251
  3763  007438  EF72  F039         	xorlw	17^16	; case 17
  3764  00743C  0A01               	skipnz
  3765  00743E  B4D8               	goto	l252
  3766  007440  EF7F  F039         	xorlw	18^17	; case 18
  3767  007444  0A03               	skipnz
  3768  007446  B4D8               	goto	l253
  3769  007448  EF8C  F039         	xorlw	19^18	; case 19
  3770  00744C  0A01               	skipnz
  3771  00744E  B4D8               	goto	l254
  3772  007450  EF99  F039         	xorlw	20^19	; case 20
  3773  007454  0A07               	skipnz
  3774  007456  B4D8               	goto	l255
  3775  007458  EFA6  F039         	xorlw	21^20	; case 21
  3776  00745C  0A01               	skipnz
  3777  00745E  B4D8               	goto	l256
  3778  007460  EFB3  F039         	xorlw	22^21	; case 22
  3779  007464  0A03               	skipnz
  3780  007466  B4D8               	goto	l257
  3781  007468  EFC0  F039         	goto	l234
  3782  00746C  EF38  F03A         
  3783                           	
  3784                           l235:
  3785  007470                     	line	279
  3786                           	
  3787                           l234:
  3788  007470                     	return	;funcret
  3789  007470  0012               	opt stack 0
  3790                           GLOBAL	__end_of_digitalRead
  3791                           	__end_of_digitalRead:
  3792  007472                     	signat	_digitalRead,4217
  3793                           	global	_RobotCW
  3794                           
  3795 ;; *************** function _RobotCW *****************
  3796 ;; Defined at:
  3797 ;;		line 93 in file "application.c"
  3798 ;; Parameters:    Size  Location     Type
  3799 ;;  velocidad       2    5[BANK0 ] int 
  3800 ;; Auto vars:     Size  Location     Type
  3801 ;;		None
  3802 ;; Return value:  Size  Location     Type
  3803 ;;                  1    wreg      void 
  3804 ;; Registers used:
  3805 ;;		wreg, status,2, status,0, prodl, prodh, cstack
  3806 ;; Tracked objects:
  3807 ;;		On entry : 0/0
  3808 ;;		On exit  : 0/0
  3809 ;;		Unchanged: 0/0
  3810 ;; Data sizes:     COMRAM   BANK0   BANK1   BANK2   BANK3   BANK4   BANK5   BANK6   BANK7
  3811 ;;      Params:         0       2       0       0       0       0       0       0       0
  3812 ;;      Locals:         0       0       0       0       0       0       0       0       0
  3813 ;;      Temps:          0       0       0       0       0       0       0       0       0
  3814 ;;      Totals:         0       2       0       0       0       0       0       0       0
  3815 ;;Total ram usage:        2 bytes
  3816 ;; Hardware stack levels used:    1
  3817 ;; Hardware stack levels required when called:    4
  3818 ;; This function calls:
  3819 ;;		_M1Atras
  3820 ;;		_M2Adelante
  3821 ;;		_analogWrite
  3822 ;; This function is called by:
  3823 ;;		_loop
  3824 ;; This function uses a non-reentrant model
  3825 ;;
  3826                           psect	text5,class=CODE,space=0,reloc=2,group=0
  3827                           	file	"application.c"
  3828                           	line	93
  3829                           global __ptext5
  3830                           __ptext5:
  3831  00633C                     psect	text5
  3832                           	file	"application.c"
  3833                           	line	93
  3834                           	global	__size_of_RobotCW
  3835                           	__size_of_RobotCW	equ	__end_of_RobotCW-_RobotCW
  3836  0000                     	
  3837                           _RobotCW:
  3838  00633C                     ;incstack = 0
  3839                           	opt	stack 25
  3840                           	line	95
  3841                           	
  3842                           l2592:
  3843  00633C                     ;application.c: 93: void RobotCW(int velocidad);application.c: 94: {;application.c: 95: 
                                  M1Atras();
  3844                           	call	_M1Atras	;wreg free
  3845  00633C  EC91  F031         	line	96
  3846                           ;application.c: 96:  M2Adelante();
  3847                           	call	_M2Adelante	;wreg free
  3848  006340  EC5D  F031         	line	97
  3849                           	
  3850                           l2594:
  3851  006344                     ;application.c: 97:  analogWrite(PWM,velocidad);
  3852                           	movff	(RobotCW@velocidad),(analogWrite@value)
  3853  006344  C06C  F067         	movff	(RobotCW@velocidad+1),(analogWrite@value+1)
  3854  006348  C06D  F068         	movlb	0	; () banked
  3855  00634C  0100               	movf	((_PWM))&0ffh,w
  3856  00634E  5162               	
  3857                           	call	_analogWrite
  3858  006350  EC71  F035         	line	98
  3859                           	
  3860                           l488:
  3861  006354                     	return	;funcret
  3862  006354  0012               	opt stack 0
  3863                           GLOBAL	__end_of_RobotCW
  3864                           	__end_of_RobotCW:
  3865  006356                     	signat	_RobotCW,4217
  3866                           	global	_M1Atras
  3867                           
  3868 ;; *************** function _M1Atras *****************
  3869 ;; Defined at:
  3870 ;;		line 54 in file "application.c"
  3871 ;; Parameters:    Size  Location     Type
  3872 ;;		None
  3873 ;; Auto vars:     Size  Location     Type
  3874 ;;		None
  3875 ;; Return value:  Size  Location     Type
  3876 ;;                  1    wreg      void 
  3877 ;; Registers used:
  3878 ;;		wreg, status,2, status,0, cstack
  3879 ;; Tracked objects:
  3880 ;;		On entry : 0/0
  3881 ;;		On exit  : 0/0
  3882 ;;		Unchanged: 0/0
  3883 ;; Data sizes:     COMRAM   BANK0   BANK1   BANK2   BANK3   BANK4   BANK5   BANK6   BANK7
  3884 ;;      Params:         0       0       0       0       0       0       0       0       0
  3885 ;;      Locals:         0       0       0       0       0       0       0       0       0
  3886 ;;      Temps:          0       0       0       0       0       0       0       0       0
  3887 ;;      Totals:         0       0       0       0       0       0       0       0       0
  3888 ;;Total ram usage:        0 bytes
  3889 ;; Hardware stack levels used:    1
  3890 ;; Hardware stack levels required when called:    2
  3891 ;; This function calls:
  3892 ;;		_digitalWrite
  3893 ;; This function is called by:
  3894 ;;		_RobotCW
  3895 ;;		_RobotAtras
  3896 ;; This function uses a non-reentrant model
  3897 ;;
  3898                           psect	text6,class=CODE,space=0,reloc=2,group=0
  3899                           	line	54
  3900                           global __ptext6
  3901                           __ptext6:
  3902  006322                     psect	text6
  3903                           	file	"application.c"
  3904                           	line	54
  3905                           	global	__size_of_M1Atras
  3906                           	__size_of_M1Atras	equ	__end_of_M1Atras-_M1Atras
  3907  0000                     	
  3908                           _M1Atras:
  3909  006322                     ;incstack = 0
  3910                           	opt	stack 26
  3911                           	line	56
  3912                           	
  3913                           l2492:
  3914  006322                     ;application.c: 56:  digitalWrite(control1,0);
  3915                           	movlw	low(0)
  3916  006322  0E00               	movwf	((c:digitalWrite@mode)),c
  3917  006324  6E01               	movlb	0	; () banked
  3918  006326  0100               	movf	((_control1))&0ffh,w
  3919  006328  5166               	
  3920                           	call	_digitalWrite
  3921  00632A  EC7F  F036         	line	57
  3922                           ;application.c: 57:  digitalWrite(control2,1);
  3923                           	movlw	low(01h)
  3924  00632E  0E01               	movwf	((c:digitalWrite@mode)),c
  3925  006330  6E01               	movlb	0	; () banked
  3926  006332  0100               	movf	((_control2))&0ffh,w
  3927  006334  5165               	
  3928                           	call	_digitalWrite
  3929  006336  EC7F  F036         	line	58
  3930                           	
  3931                           l470:
  3932  00633A                     	return	;funcret
  3933  00633A  0012               	opt stack 0
  3934                           GLOBAL	__end_of_M1Atras
  3935                           	__end_of_M1Atras:
  3936  00633C                     	signat	_M1Atras,89
  3937                           	global	_RobotCCW
  3938                           
  3939 ;; *************** function _RobotCCW *****************
  3940 ;; Defined at:
  3941 ;;		line 86 in file "application.c"
  3942 ;; Parameters:    Size  Location     Type
  3943 ;;  velocidad       2    5[BANK0 ] int 
  3944 ;; Auto vars:     Size  Location     Type
  3945 ;;		None
  3946 ;; Return value:  Size  Location     Type
  3947 ;;                  1    wreg      void 
  3948 ;; Registers used:
  3949 ;;		wreg, status,2, status,0, prodl, prodh, cstack
  3950 ;; Tracked objects:
  3951 ;;		On entry : 0/0
  3952 ;;		On exit  : 0/0
  3953 ;;		Unchanged: 0/0
  3954 ;; Data sizes:     COMRAM   BANK0   BANK1   BANK2   BANK3   BANK4   BANK5   BANK6   BANK7
  3955 ;;      Params:         0       2       0       0       0       0       0       0       0
  3956 ;;      Locals:         0       0       0       0       0       0       0       0       0
  3957 ;;      Temps:          0       0       0       0       0       0       0       0       0
  3958 ;;      Totals:         0       2       0       0       0       0       0       0       0
  3959 ;;Total ram usage:        2 bytes
  3960 ;; Hardware stack levels used:    1
  3961 ;; Hardware stack levels required when called:    4
  3962 ;; This function calls:
  3963 ;;		_M1Adelante
  3964 ;;		_M2Atras
  3965 ;;		_analogWrite
  3966 ;; This function is called by:
  3967 ;;		_loop
  3968 ;; This function uses a non-reentrant model
  3969 ;;
  3970                           psect	text7,class=CODE,space=0,reloc=2,group=0
  3971                           	line	86
  3972                           global __ptext7
  3973                           __ptext7:
  3974  006308                     psect	text7
  3975                           	file	"application.c"
  3976                           	line	86
  3977                           	global	__size_of_RobotCCW
  3978                           	__size_of_RobotCCW	equ	__end_of_RobotCCW-_RobotCCW
  3979  0000                     	
  3980                           _RobotCCW:
  3981  006308                     ;incstack = 0
  3982                           	opt	stack 25
  3983                           	line	88
  3984                           	
  3985                           l2596:
  3986  006308                     ;application.c: 86: void RobotCCW(int velocidad);application.c: 87: {;application.c: 88:
                                   M1Adelante();
  3987                           	call	_M1Adelante	;wreg free
  3988  006308  EC50  F031         	line	89
  3989                           ;application.c: 89:  M2Atras();
  3990                           	call	_M2Atras	;wreg free
  3991  00630C  EC77  F031         	line	90
  3992                           	
  3993                           l2598:
  3994  006310                     ;application.c: 90:  analogWrite(PWM,velocidad);
  3995                           	movff	(RobotCCW@velocidad),(analogWrite@value)
  3996  006310  C06C  F067         	movff	(RobotCCW@velocidad+1),(analogWrite@value+1)
  3997  006314  C06D  F068         	movlb	0	; () banked
  3998  006318  0100               	movf	((_PWM))&0ffh,w
  3999  00631A  5162               	
  4000                           	call	_analogWrite
  4001  00631C  EC71  F035         	line	91
  4002                           	
  4003                           l485:
  4004  006320                     	return	;funcret
  4005  006320  0012               	opt stack 0
  4006                           GLOBAL	__end_of_RobotCCW
  4007                           	__end_of_RobotCCW:
  4008  006322                     	signat	_RobotCCW,4217
  4009                           	global	_M2Atras
  4010                           
  4011 ;; *************** function _M2Atras *****************
  4012 ;; Defined at:
  4013 ;;		line 66 in file "application.c"
  4014 ;; Parameters:    Size  Location     Type
  4015 ;;		None
  4016 ;; Auto vars:     Size  Location     Type
  4017 ;;		None
  4018 ;; Return value:  Size  Location     Type
  4019 ;;                  1    wreg      void 
  4020 ;; Registers used:
  4021 ;;		wreg, status,2, status,0, cstack
  4022 ;; Tracked objects:
  4023 ;;		On entry : 0/0
  4024 ;;		On exit  : 0/0
  4025 ;;		Unchanged: 0/0
  4026 ;; Data sizes:     COMRAM   BANK0   BANK1   BANK2   BANK3   BANK4   BANK5   BANK6   BANK7
  4027 ;;      Params:         0       0       0       0       0       0       0       0       0
  4028 ;;      Locals:         0       0       0       0       0       0       0       0       0
  4029 ;;      Temps:          0       0       0       0       0       0       0       0       0
  4030 ;;      Totals:         0       0       0       0       0       0       0       0       0
  4031 ;;Total ram usage:        0 bytes
  4032 ;; Hardware stack levels used:    1
  4033 ;; Hardware stack levels required when called:    2
  4034 ;; This function calls:
  4035 ;;		_digitalWrite
  4036 ;; This function is called by:
  4037 ;;		_RobotCCW
  4038 ;;		_RobotAtras
  4039 ;; This function uses a non-reentrant model
  4040 ;;
  4041                           psect	text8,class=CODE,space=0,reloc=2,group=0
  4042                           	line	66
  4043                           global __ptext8
  4044                           __ptext8:
  4045  0062EE                     psect	text8
  4046                           	file	"application.c"
  4047                           	line	66
  4048                           	global	__size_of_M2Atras
  4049                           	__size_of_M2Atras	equ	__end_of_M2Atras-_M2Atras
  4050  0000                     	
  4051                           _M2Atras:
  4052  0062EE                     ;incstack = 0
  4053                           	opt	stack 26
  4054                           	line	68
  4055                           	
  4056                           l2496:
  4057  0062EE                     ;application.c: 68:  digitalWrite(control3,0);
  4058                           	movlw	low(0)
  4059  0062EE  0E00               	movwf	((c:digitalWrite@mode)),c
  4060  0062F0  6E01               	movlb	0	; () banked
  4061  0062F2  0100               	movf	((_control3))&0ffh,w
  4062  0062F4  5164               	
  4063                           	call	_digitalWrite
  4064  0062F6  EC7F  F036         	line	69
  4065                           ;application.c: 69:  digitalWrite(control4,1);
  4066                           	movlw	low(01h)
  4067  0062FA  0E01               	movwf	((c:digitalWrite@mode)),c
  4068  0062FC  6E01               	movlb	0	; () banked
  4069  0062FE  0100               	movf	((_control4))&0ffh,w
  4070  006300  5163               	
  4071                           	call	_digitalWrite
  4072  006302  EC7F  F036         	line	70
  4073                           	
  4074                           l476:
  4075  006306                     	return	;funcret
  4076  006306  0012               	opt stack 0
  4077                           GLOBAL	__end_of_M2Atras
  4078                           	__end_of_M2Atras:
  4079  006308                     	signat	_M2Atras,89
  4080                           	global	_RobotAdelante
  4081                           
  4082 ;; *************** function _RobotAdelante *****************
  4083 ;; Defined at:
  4084 ;;		line 72 in file "application.c"
  4085 ;; Parameters:    Size  Location     Type
  4086 ;;  velocidad       2    5[BANK0 ] int 
  4087 ;; Auto vars:     Size  Location     Type
  4088 ;;		None
  4089 ;; Return value:  Size  Location     Type
  4090 ;;                  1    wreg      void 
  4091 ;; Registers used:
  4092 ;;		wreg, status,2, status,0, prodl, prodh, cstack
  4093 ;; Tracked objects:
  4094 ;;		On entry : 0/0
  4095 ;;		On exit  : 0/0
  4096 ;;		Unchanged: 0/0
  4097 ;; Data sizes:     COMRAM   BANK0   BANK1   BANK2   BANK3   BANK4   BANK5   BANK6   BANK7
  4098 ;;      Params:         0       2       0       0       0       0       0       0       0
  4099 ;;      Locals:         0       0       0       0       0       0       0       0       0
  4100 ;;      Temps:          0       0       0       0       0       0       0       0       0
  4101 ;;      Totals:         0       2       0       0       0       0       0       0       0
  4102 ;;Total ram usage:        2 bytes
  4103 ;; Hardware stack levels used:    1
  4104 ;; Hardware stack levels required when called:    4
  4105 ;; This function calls:
  4106 ;;		_M1Adelante
  4107 ;;		_M2Adelante
  4108 ;;		_analogWrite
  4109 ;; This function is called by:
  4110 ;;		_loop
  4111 ;; This function uses a non-reentrant model
  4112 ;;
  4113                           psect	text9,class=CODE,space=0,reloc=2,group=0
  4114                           	line	72
  4115                           global __ptext9
  4116                           __ptext9:
  4117  0062D4                     psect	text9
  4118                           	file	"application.c"
  4119                           	line	72
  4120                           	global	__size_of_RobotAdelante
  4121                           	__size_of_RobotAdelante	equ	__end_of_RobotAdelante-_RobotAdelante
  4122  0000                     	
  4123                           _RobotAdelante:
  4124  0062D4                     ;incstack = 0
  4125                           	opt	stack 25
  4126                           	line	74
  4127                           	
  4128                           l2588:
  4129  0062D4                     ;application.c: 72: void RobotAdelante(int velocidad);application.c: 73: {;application.c
                                 : 74:  M1Adelante();
  4130                           	call	_M1Adelante	;wreg free
  4131  0062D4  EC50  F031         	line	75
  4132                           ;application.c: 75:  M2Adelante();
  4133                           	call	_M2Adelante	;wreg free
  4134  0062D8  EC5D  F031         	line	76
  4135                           	
  4136                           l2590:
  4137  0062DC                     ;application.c: 76:  analogWrite(PWM,velocidad);
  4138                           	movff	(RobotAdelante@velocidad),(analogWrite@value)
  4139  0062DC  C06C  F067         	movff	(RobotAdelante@velocidad+1),(analogWrite@value+1)
  4140  0062E0  C06D  F068         	movlb	0	; () banked
  4141  0062E4  0100               	movf	((_PWM))&0ffh,w
  4142  0062E6  5162               	
  4143                           	call	_analogWrite
  4144  0062E8  EC71  F035         	line	77
  4145                           	
  4146                           l479:
  4147  0062EC                     	return	;funcret
  4148  0062EC  0012               	opt stack 0
  4149                           GLOBAL	__end_of_RobotAdelante
  4150                           	__end_of_RobotAdelante:
  4151  0062EE                     	signat	_RobotAdelante,4217
  4152                           	global	_analogWrite
  4153                           
  4154 ;; *************** function _analogWrite *****************
  4155 ;; Defined at:
  4156 ;;		line 336 in file "main.c"
  4157 ;; Parameters:    Size  Location     Type
  4158 ;;  pin             1    wreg     unsigned char 
  4159 ;;  value           2    0[BANK0 ] unsigned int 
  4160 ;; Auto vars:     Size  Location     Type
  4161 ;;  pin             1    4[BANK0 ] unsigned char 
  4162 ;; Return value:  Size  Location     Type
  4163 ;;                  1    wreg      void 
  4164 ;; Registers used:
  4165 ;;		wreg, status,2, status,0, prodl, prodh, cstack
  4166 ;; Tracked objects:
  4167 ;;		On entry : 0/0
  4168 ;;		On exit  : 0/0
  4169 ;;		Unchanged: 0/0
  4170 ;; Data sizes:     COMRAM   BANK0   BANK1   BANK2   BANK3   BANK4   BANK5   BANK6   BANK7
  4171 ;;      Params:         0       2       0       0       0       0       0       0       0
  4172 ;;      Locals:         0       1       0       0       0       0       0       0       0
  4173 ;;      Temps:          0       2       0       0       0       0       0       0       0
  4174 ;;      Totals:         0       5       0       0       0       0       0       0       0
  4175 ;;Total ram usage:        5 bytes
  4176 ;; Hardware stack levels used:    1
  4177 ;; Hardware stack levels required when called:    3
  4178 ;; This function calls:
  4179 ;;		_PWM_Max_Duty
  4180 ;;		___fldiv
  4181 ;;		___flmul
  4182 ;;		___fltol
  4183 ;;		___xxtofl
  4184 ;; This function is called by:
  4185 ;;		_RobotAdelante
  4186 ;;		_RobotCCW
  4187 ;;		_RobotCW
  4188 ;;		_RobotAtras
  4189 ;; This function uses a non-reentrant model
  4190 ;;
  4191                           psect	text10,class=CODE,space=0,reloc=2,group=0
  4192                           	file	"main.c"
  4193                           	line	336
  4194                           global __ptext10
  4195                           __ptext10:
  4196  006AE2                     psect	text10
  4197                           	file	"main.c"
  4198                           	line	336
  4199                           	global	__size_of_analogWrite
  4200                           	__size_of_analogWrite	equ	__end_of_analogWrite-_analogWrite
  4201  0000                     	
  4202                           _analogWrite:
  4203  006AE2                     ;incstack = 0
  4204                           	opt	stack 25
  4205                           ;analogWrite@pin stored from wreg
  4206                           	movlb	0	; () banked
  4207  006AE2  0100               	movwf	((analogWrite@pin))&0ffh
  4208  006AE4  6F6B               	line	338
  4209                           	
  4210                           l2448:
  4211  006AE6                     ;main.c: 336: void analogWrite(char pin,unsigned int value);main.c: 337: {;main.c: 338: 
                                     switch(pin)
  4212                           	goto	l2472
  4213  006AE6  EF68  F036         	line	340
  4214                           ;main.c: 339:     {;main.c: 340:         case 4:
  4215                           	
  4216                           l293:
  4217  006AEA                     	line	342
  4218                           	
  4219                           l2450:
  4220  006AEA                     ;main.c: 342:             if(value <1024)
  4221                           		movlw	4
  4222  006AEA  0E04               	movlb	0	; () banked
  4223  006AEC  0100               	subwf	 ((analogWrite@value+1))&0ffh,w
  4224  006AEE  5D68               	btfsc	status,0
  4225  006AF0  B0D8               	goto	u2661
  4226  006AF2  EF7D  F035         	goto	u2660
  4227  006AF6  EF7F  F035         
  4228                           u2661:
  4229  006AFA                     	goto	l298
  4230  006AFA  EF7E  F036         u2660:
  4231  006AFE                     	line	344
  4232                           	
  4233                           l2452:; BSR set to: 0
  4234  006AFE                     
  4235                           ;main.c: 343:             {;main.c: 344:                 value = ((float)value / 1023) *
                                  PWM_Max_Duty();
  4236                           	call	_PWM_Max_Duty	;wreg free
  4237  006AFE  EC0C  F032         	movff	0+?_PWM_Max_Duty,(c:___xxtofl@val)
  4238  006B02  C00F  F015         	movff	1+?_PWM_Max_Duty,(c:___xxtofl@val+1)
  4239  006B06  C010  F016         	movlw	0
  4240  006B0A  0E00               	btfsc	((c:___xxtofl@val+1)),c,7
  4241  006B0C  BE16               	movlw	-1
  4242  006B0E  0EFF               	movwf	((c:___xxtofl@val+2)),c
  4243  006B10  6E17               	movwf	((c:___xxtofl@val+3)),c
  4244  006B12  6E18               	movlw	(01h)&0ffh
  4245  006B14  0E01               	
  4246                           	call	___xxtofl
  4247  006B16  EC83  F034         	movff	0+?___xxtofl,(c:___flmul@a)
  4248  006B1A  C015  F040         	movff	1+?___xxtofl,(c:___flmul@a+1)
  4249  006B1E  C016  F041         	movff	2+?___xxtofl,(c:___flmul@a+2)
  4250  006B22  C017  F042         	movff	3+?___xxtofl,(c:___flmul@a+3)
  4251  006B26  C018  F043         	
  4252                           	movlw	low(normalize32(0x447fc000))
  4253  006B2A  0E00               	movwf	((c:___fldiv@a)),c
  4254  006B2C  6E27               	movlw	high(normalize32(0x447fc000))
  4255  006B2E  0EC0               	movwf	((c:___fldiv@a+1)),c
  4256  006B30  6E28               	movlw	low highword(normalize32(0x447fc000))
  4257  006B32  0E7F               	movwf	((c:___fldiv@a+2)),c
  4258  006B34  6E29               	movlw	high highword(normalize32(0x447fc000))
  4259  006B36  0E44               	movwf	((c:___fldiv@a+3)),c
  4260  006B38  6E2A               	movff	(analogWrite@value),(c:___xxtofl@val)
  4261  006B3A  C067  F015         	movff	(analogWrite@value+1),(c:___xxtofl@val+1)
  4262  006B3E  C068  F016         	clrf	((c:___xxtofl@val+2)),c
  4263  006B42  6A17               	clrf	((c:___xxtofl@val+3)),c
  4264  006B44  6A18               
  4265                           	movlw	(0)&0ffh
  4266  006B46  0E00               	
  4267                           	call	___xxtofl
  4268  006B48  EC83  F034         	movff	0+?___xxtofl,(c:___fldiv@b)
  4269  006B4C  C015  F023         	movff	1+?___xxtofl,(c:___fldiv@b+1)
  4270  006B50  C016  F024         	movff	2+?___xxtofl,(c:___fldiv@b+2)
  4271  006B54  C017  F025         	movff	3+?___xxtofl,(c:___fldiv@b+3)
  4272  006B58  C018  F026         	
  4273                           	call	___fldiv	;wreg free
  4274  006B5C  EC39  F03A         	movff	0+?___fldiv,(c:___flmul@b)
  4275  006B60  C023  F03C         	movff	1+?___fldiv,(c:___flmul@b+1)
  4276  006B64  C024  F03D         	movff	2+?___fldiv,(c:___flmul@b+2)
  4277  006B68  C025  F03E         	movff	3+?___fldiv,(c:___flmul@b+3)
  4278  006B6C  C026  F03F         	
  4279                           	call	___flmul	;wreg free
  4280  006B70  EC49  F03C         	movff	0+?___flmul,(c:___fltol@f1)
  4281  006B74  C03C  F055         	movff	1+?___flmul,(c:___fltol@f1+1)
  4282  006B78  C03D  F056         	movff	2+?___flmul,(c:___fltol@f1+2)
  4283  006B7C  C03E  F057         	movff	3+?___flmul,(c:___fltol@f1+3)
  4284  006B80  C03F  F058         	
  4285                           	call	___fltol	;wreg free
  4286  006B84  ECDA  F033         	movff	0+?___fltol,(analogWrite@value)
  4287  006B88  C055  F067         	movff	1+?___fltol,(analogWrite@value+1)
  4288  006B8C  C056  F068         	line	345
  4289                           	
  4290                           l2454:
  4291  006B90                     ;main.c: 345:                 CCP1CONbits.DC1B1 = value & 2;
  4292                           	movff	(analogWrite@value),??_analogWrite+0+0
  4293  006B90  C067  F069         	movlw	02h
  4294  006B94  0E02               	movlb	0	; () banked
  4295  006B96  0100               	andwf	(??_analogWrite+0+0)&0ffh
  4296  006B98  1769               	swapf	(??_analogWrite+0+0)&0ffh
  4297  006B9A  3B69               	rlncf	(??_analogWrite+0+0)&0ffh
  4298  006B9C  4769               	movf	((c:4029)),c,w	;volatile
  4299  006B9E  50BD               	xorwf	(??_analogWrite+0+0)&0ffh,w
  4300  006BA0  1969               	andlw	not (((1<<1)-1)<<5)
  4301  006BA2  0BDF               	xorwf	(??_analogWrite+0+0)&0ffh,w
  4302  006BA4  1969               	movwf	((c:4029)),c	;volatile
  4303  006BA6  6EBD               	line	346
  4304                           	
  4305                           l2456:; BSR set to: 0
  4306  006BA8                     
  4307                           ;main.c: 346:                 CCP1CONbits.DC1B0 = value & 1;
  4308                           	movff	(analogWrite@value),??_analogWrite+0+0
  4309  006BA8  C067  F069         	movlw	01h
  4310  006BAC  0E01               	andwf	(??_analogWrite+0+0)&0ffh
  4311  006BAE  1769               	swapf	(??_analogWrite+0+0)&0ffh
  4312  006BB0  3B69               	movf	((c:4029)),c,w	;volatile
  4313  006BB2  50BD               	xorwf	(??_analogWrite+0+0)&0ffh,w
  4314  006BB4  1969               	andlw	not (((1<<1)-1)<<4)
  4315  006BB6  0BEF               	xorwf	(??_analogWrite+0+0)&0ffh,w
  4316  006BB8  1969               	movwf	((c:4029)),c	;volatile
  4317  006BBA  6EBD               	line	347
  4318                           	
  4319                           l2458:; BSR set to: 0
  4320  006BBC                     
  4321                           ;main.c: 347:                 CCPR1L = value >> 2;
  4322                           	movff	(analogWrite@value),??_analogWrite+0+0
  4323  006BBC  C067  F069         	movff	(analogWrite@value+1),??_analogWrite+0+0+1
  4324  006BC0  C068  F06A         	bcf	status,0
  4325  006BC4  90D8               	rrcf	(??_analogWrite+0+1)&0ffh
  4326  006BC6  336A               	rrcf	(??_analogWrite+0+0)&0ffh
  4327  006BC8  3369               	bcf	status,0
  4328  006BCA  90D8               	rrcf	(??_analogWrite+0+1)&0ffh
  4329  006BCC  336A               	rrcf	(??_analogWrite+0+0)&0ffh
  4330  006BCE  3369               	movf	(??_analogWrite+0+0)&0ffh,w
  4331  006BD0  5169               	movwf	((c:4030)),c	;volatile
  4332  006BD2  6EBE               	goto	l298
  4333  006BD4  EF7E  F036         	line	348
  4334                           ;main.c: 348:             }
  4335                           	
  4336                           l294:; BSR set to: 0
  4337  006BD8                     
  4338                           	line	349
  4339                           ;main.c: 349:             break;
  4340                           	goto	l298
  4341  006BD8  EF7E  F036         	line	350
  4342                           ;main.c: 350:         case 3:
  4343                           	
  4344                           l296:; BSR set to: 0
  4345  006BDC                     
  4346                           	line	352
  4347                           	
  4348                           l2460:; BSR set to: 0
  4349  006BDC                     
  4350                           ;main.c: 352:             if(value <1024)
  4351                           		movlw	4
  4352  006BDC  0E04               	subwf	 ((analogWrite@value+1))&0ffh,w
  4353  006BDE  5D68               	btfsc	status,0
  4354  006BE0  B0D8               	goto	u2671
  4355  006BE2  EFF5  F035         	goto	u2670
  4356  006BE6  EFF7  F035         
  4357                           u2671:
  4358  006BEA                     	goto	l298
  4359  006BEA  EF7E  F036         u2670:
  4360  006BEE                     	line	354
  4361                           	
  4362                           l2462:; BSR set to: 0
  4363  006BEE                     
  4364                           ;main.c: 353:             {;main.c: 354:                 value = ((float)value / 1023) *
                                  PWM_Max_Duty();
  4365                           	call	_PWM_Max_Duty	;wreg free
  4366  006BEE  EC0C  F032         	movff	0+?_PWM_Max_Duty,(c:___xxtofl@val)
  4367  006BF2  C00F  F015         	movff	1+?_PWM_Max_Duty,(c:___xxtofl@val+1)
  4368  006BF6  C010  F016         	movlw	0
  4369  006BFA  0E00               	btfsc	((c:___xxtofl@val+1)),c,7
  4370  006BFC  BE16               	movlw	-1
  4371  006BFE  0EFF               	movwf	((c:___xxtofl@val+2)),c
  4372  006C00  6E17               	movwf	((c:___xxtofl@val+3)),c
  4373  006C02  6E18               	movlw	(01h)&0ffh
  4374  006C04  0E01               	
  4375                           	call	___xxtofl
  4376  006C06  EC83  F034         	movff	0+?___xxtofl,(c:___flmul@a)
  4377  006C0A  C015  F040         	movff	1+?___xxtofl,(c:___flmul@a+1)
  4378  006C0E  C016  F041         	movff	2+?___xxtofl,(c:___flmul@a+2)
  4379  006C12  C017  F042         	movff	3+?___xxtofl,(c:___flmul@a+3)
  4380  006C16  C018  F043         	
  4381                           	movlw	low(normalize32(0x447fc000))
  4382  006C1A  0E00               	movwf	((c:___fldiv@a)),c
  4383  006C1C  6E27               	movlw	high(normalize32(0x447fc000))
  4384  006C1E  0EC0               	movwf	((c:___fldiv@a+1)),c
  4385  006C20  6E28               	movlw	low highword(normalize32(0x447fc000))
  4386  006C22  0E7F               	movwf	((c:___fldiv@a+2)),c
  4387  006C24  6E29               	movlw	high highword(normalize32(0x447fc000))
  4388  006C26  0E44               	movwf	((c:___fldiv@a+3)),c
  4389  006C28  6E2A               	movff	(analogWrite@value),(c:___xxtofl@val)
  4390  006C2A  C067  F015         	movff	(analogWrite@value+1),(c:___xxtofl@val+1)
  4391  006C2E  C068  F016         	clrf	((c:___xxtofl@val+2)),c
  4392  006C32  6A17               	clrf	((c:___xxtofl@val+3)),c
  4393  006C34  6A18               
  4394                           	movlw	(0)&0ffh
  4395  006C36  0E00               	
  4396                           	call	___xxtofl
  4397  006C38  EC83  F034         	movff	0+?___xxtofl,(c:___fldiv@b)
  4398  006C3C  C015  F023         	movff	1+?___xxtofl,(c:___fldiv@b+1)
  4399  006C40  C016  F024         	movff	2+?___xxtofl,(c:___fldiv@b+2)
  4400  006C44  C017  F025         	movff	3+?___xxtofl,(c:___fldiv@b+3)
  4401  006C48  C018  F026         	
  4402                           	call	___fldiv	;wreg free
  4403  006C4C  EC39  F03A         	movff	0+?___fldiv,(c:___flmul@b)
  4404  006C50  C023  F03C         	movff	1+?___fldiv,(c:___flmul@b+1)
  4405  006C54  C024  F03D         	movff	2+?___fldiv,(c:___flmul@b+2)
  4406  006C58  C025  F03E         	movff	3+?___fldiv,(c:___flmul@b+3)
  4407  006C5C  C026  F03F         	
  4408                           	call	___flmul	;wreg free
  4409  006C60  EC49  F03C         	movff	0+?___flmul,(c:___fltol@f1)
  4410  006C64  C03C  F055         	movff	1+?___flmul,(c:___fltol@f1+1)
  4411  006C68  C03D  F056         	movff	2+?___flmul,(c:___fltol@f1+2)
  4412  006C6C  C03E  F057         	movff	3+?___flmul,(c:___fltol@f1+3)
  4413  006C70  C03F  F058         	
  4414                           	call	___fltol	;wreg free
  4415  006C74  ECDA  F033         	movff	0+?___fltol,(analogWrite@value)
  4416  006C78  C055  F067         	movff	1+?___fltol,(analogWrite@value+1)
  4417  006C7C  C056  F068         	line	356
  4418                           	
  4419                           l2464:
  4420  006C80                     ;main.c: 356:                 CCP2CONbits.DC2B1 = value & 2;
  4421                           	movff	(analogWrite@value),??_analogWrite+0+0
  4422  006C80  C067  F069         	movlw	02h
  4423  006C84  0E02               	movlb	0	; () banked
  4424  006C86  0100               	andwf	(??_analogWrite+0+0)&0ffh
  4425  006C88  1769               	swapf	(??_analogWrite+0+0)&0ffh
  4426  006C8A  3B69               	rlncf	(??_analogWrite+0+0)&0ffh
  4427  006C8C  4769               	movf	((c:4026)),c,w	;volatile
  4428  006C8E  50BA               	xorwf	(??_analogWrite+0+0)&0ffh,w
  4429  006C90  1969               	andlw	not (((1<<1)-1)<<5)
  4430  006C92  0BDF               	xorwf	(??_analogWrite+0+0)&0ffh,w
  4431  006C94  1969               	movwf	((c:4026)),c	;volatile
  4432  006C96  6EBA               	line	357
  4433                           	
  4434                           l2466:; BSR set to: 0
  4435  006C98                     
  4436                           ;main.c: 357:                 CCP2CONbits.DC2B0 = value & 1;
  4437                           	movff	(analogWrite@value),??_analogWrite+0+0
  4438  006C98  C067  F069         	movlw	01h
  4439  006C9C  0E01               	andwf	(??_analogWrite+0+0)&0ffh
  4440  006C9E  1769               	swapf	(??_analogWrite+0+0)&0ffh
  4441  006CA0  3B69               	movf	((c:4026)),c,w	;volatile
  4442  006CA2  50BA               	xorwf	(??_analogWrite+0+0)&0ffh,w
  4443  006CA4  1969               	andlw	not (((1<<1)-1)<<4)
  4444  006CA6  0BEF               	xorwf	(??_analogWrite+0+0)&0ffh,w
  4445  006CA8  1969               	movwf	((c:4026)),c	;volatile
  4446  006CAA  6EBA               	line	358
  4447                           	
  4448                           l2468:; BSR set to: 0
  4449  006CAC                     
  4450                           ;main.c: 358:                 CCPR2L = value >> 2;
  4451                           	movff	(analogWrite@value),??_analogWrite+0+0
  4452  006CAC  C067  F069         	movff	(analogWrite@value+1),??_analogWrite+0+0+1
  4453  006CB0  C068  F06A         	bcf	status,0
  4454  006CB4  90D8               	rrcf	(??_analogWrite+0+1)&0ffh
  4455  006CB6  336A               	rrcf	(??_analogWrite+0+0)&0ffh
  4456  006CB8  3369               	bcf	status,0
  4457  006CBA  90D8               	rrcf	(??_analogWrite+0+1)&0ffh
  4458  006CBC  336A               	rrcf	(??_analogWrite+0+0)&0ffh
  4459  006CBE  3369               	movf	(??_analogWrite+0+0)&0ffh,w
  4460  006CC0  5169               	movwf	((c:4027)),c	;volatile
  4461  006CC2  6EBB               	goto	l298
  4462  006CC4  EF7E  F036         	line	359
  4463                           ;main.c: 359:             }
  4464                           	
  4465                           l297:; BSR set to: 0
  4466  006CC8                     
  4467                           	line	360
  4468                           ;main.c: 360:             break;
  4469                           	goto	l298
  4470  006CC8  EF7E  F036         	line	361
  4471                           	
  4472                           l2470:; BSR set to: 0
  4473  006CCC                     
  4474                           ;main.c: 361:     }
  4475                           	goto	l298
  4476  006CCC  EF7E  F036         	
  4477                           l292:; BSR set to: 0
  4478  006CD0                     
  4479                           	
  4480                           l2472:
  4481  006CD0                     	movlb	0	; () banked
  4482  006CD0  0100               	movf	((analogWrite@pin))&0ffh,w
  4483  006CD2  516B               	movwf	(??_analogWrite+0+0)&0ffh
  4484  006CD4  6F69               	clrf	(??_analogWrite+0+0+1)&0ffh
  4485  006CD6  6B6A               
  4486                           	; Switch on 2 bytes has been partitioned into a top level switch of size 1, and 1 sub-s
                                 witches
  4487                           ; Switch size 1, requested type "space"
  4488                           ; Number of cases is 1, Range of values is 0 to 0
  4489                           ; switch strategies available:
  4490                           ; Name         Instructions Cycles
  4491                           ; simple_byte            4     3 (average)
  4492                           ;	Chosen strategy is simple_byte
  4493                           
  4494                           	movf ??_analogWrite+0+1&0ffh,w
  4495  006CD8  516A               	xorlw	0^0	; case 0
  4496  006CDA  0A00               	skipnz
  4497  006CDC  B4D8               	goto	l3020
  4498  006CDE  EF73  F036         	goto	l298
  4499  006CE2  EF7E  F036         	
  4500                           l3020:; BSR set to: 0
  4501  006CE6                     
  4502                           ; Switch size 1, requested type "space"
  4503                           ; Number of cases is 2, Range of values is 3 to 4
  4504                           ; switch strategies available:
  4505                           ; Name         Instructions Cycles
  4506                           ; simple_byte            7     4 (average)
  4507                           ;	Chosen strategy is simple_byte
  4508                           
  4509                           	movf ??_analogWrite+0+0&0ffh,w
  4510  006CE6  5169               	xorlw	3^0	; case 3
  4511  006CE8  0A03               	skipnz
  4512  006CEA  B4D8               	goto	l2460
  4513  006CEC  EFEE  F035         	xorlw	4^3	; case 4
  4514  006CF0  0A07               	skipnz
  4515  006CF2  B4D8               	goto	l2450
  4516  006CF4  EF75  F035         	goto	l298
  4517  006CF8  EF7E  F036         
  4518                           	
  4519                           l295:; BSR set to: 0
  4520  006CFC                     
  4521                           	line	362
  4522                           	
  4523                           l298:; BSR set to: 0
  4524  006CFC                     
  4525                           	return	;funcret
  4526  006CFC  0012               	opt stack 0
  4527                           GLOBAL	__end_of_analogWrite
  4528                           	__end_of_analogWrite:
  4529  006CFE                     	signat	_analogWrite,8313
  4530                           	global	___xxtofl
  4531                           
  4532 ;; *************** function ___xxtofl *****************
  4533 ;; Defined at:
  4534 ;;		line 10 in file "C:\Program Files (x86)\Microchip\xc8\v2.00\pic\sources\c99\common\xxtofl.c"
  4535 ;; Parameters:    Size  Location     Type
  4536 ;;  sign            1    wreg     unsigned char 
  4537 ;;  val             4   20[COMRAM] long 
  4538 ;; Auto vars:     Size  Location     Type
  4539 ;;  sign            1   28[COMRAM] unsigned char 
  4540 ;;  arg             4   30[COMRAM] unsigned long 
  4541 ;;  exp             1   29[COMRAM] unsigned char 
  4542 ;; Return value:  Size  Location     Type
  4543 ;;                  4   20[COMRAM] unsigned char 
  4544 ;; Registers used:
  4545 ;;		wreg, status,2, status,0
  4546 ;; Tracked objects:
  4547 ;;		On entry : 0/0
  4548 ;;		On exit  : 0/0
  4549 ;;		Unchanged: 0/0
  4550 ;; Data sizes:     COMRAM   BANK0   BANK1   BANK2   BANK3   BANK4   BANK5   BANK6   BANK7
  4551 ;;      Params:         4       0       0       0       0       0       0       0       0
  4552 ;;      Locals:         6       0       0       0       0       0       0       0       0
  4553 ;;      Temps:          4       0       0       0       0       0       0       0       0
  4554 ;;      Totals:        14       0       0       0       0       0       0       0       0
  4555 ;;Total ram usage:       14 bytes
  4556 ;; Hardware stack levels used:    1
  4557 ;; Hardware stack levels required when called:    1
  4558 ;; This function calls:
  4559 ;;		Nothing
  4560 ;; This function is called by:
  4561 ;;		_analogWrite
  4562 ;;		_Time
  4563 ;;		_Frequency
  4564 ;; This function uses a non-reentrant model
  4565 ;;
  4566                           psect	text11,class=CODE,space=0,reloc=2,group=1
  4567                           	file	"C:\Program Files (x86)\Microchip\xc8\v2.00\pic\sources\c99\common\xxtofl.c"
  4568                           	line	10
  4569                           global __ptext11
  4570                           __ptext11:
  4571  006906                     psect	text11
  4572                           	file	"C:\Program Files (x86)\Microchip\xc8\v2.00\pic\sources\c99\common\xxtofl.c"
  4573                           	line	10
  4574                           	global	__size_of___xxtofl
  4575                           	__size_of___xxtofl	equ	__end_of___xxtofl-___xxtofl
  4576  0000                     	
  4577                           ___xxtofl:; BSR set to: 0
  4578  006906                     
  4579                           ;incstack = 0
  4580                           	opt	stack 26
  4581                           ;___xxtofl@sign stored from wreg
  4582                           	movwf	((c:___xxtofl@sign)),c
  4583  006906  6E1D               	line	15
  4584                           	
  4585                           l2402:
  4586  006908                     	movf	((c:___xxtofl@sign)),c,w
  4587  006908  501D               	btfsc	status,2
  4588  00690A  B4D8               	goto	u2561
  4589  00690C  EF8A  F034         	goto	u2560
  4590  006910  EF8C  F034         u2561:
  4591  006914                     	goto	l1158
  4592  006914  EFAE  F034         u2560:
  4593  006918                     	
  4594                           l2404:
  4595  006918                     	btfsc	((c:___xxtofl@val+3)),c,7
  4596  006918  BE18               	goto	u2570
  4597  00691A  EF93  F034         	goto	u2571
  4598  00691E  EF91  F034         
  4599                           u2571:
  4600  006922                     	goto	l1158
  4601  006922  EFAE  F034         u2570:
  4602  006926                     	line	16
  4603                           	
  4604                           l2406:
  4605  006926                     	movff	(c:___xxtofl@val),??___xxtofl+0+0
  4606  006926  C015  F019         	movff	(c:___xxtofl@val+1),??___xxtofl+0+0+1
  4607  00692A  C016  F01A         	movff	(c:___xxtofl@val+2),??___xxtofl+0+0+2
  4608  00692E  C017  F01B         	movff	(c:___xxtofl@val+3),??___xxtofl+0+0+3
  4609  006932  C018  F01C         	comf	(??___xxtofl+0+0),c
  4610  006936  1E19               	comf	(??___xxtofl+0+1),c
  4611  006938  1E1A               	comf	(??___xxtofl+0+2),c
  4612  00693A  1E1B               	comf	(??___xxtofl+0+3),c
  4613  00693C  1E1C               	incf	(??___xxtofl+0+0),c
  4614  00693E  2A19               	movlw	0
  4615  006940  0E00               	addwfc	(??___xxtofl+0+1),c
  4616  006942  221A               	addwfc	(??___xxtofl+0+2),c
  4617  006944  221B               	addwfc	(??___xxtofl+0+3),c
  4618  006946  221C               	movff	??___xxtofl+0+0,(c:___xxtofl@arg)
  4619  006948  C019  F01F         	movff	??___xxtofl+0+1,(c:___xxtofl@arg+1)
  4620  00694C  C01A  F020         	movff	??___xxtofl+0+2,(c:___xxtofl@arg+2)
  4621  006950  C01B  F021         	movff	??___xxtofl+0+3,(c:___xxtofl@arg+3)
  4622  006954  C01C  F022         	line	17
  4623                           	goto	l2408
  4624  006958  EFB8  F034         	line	18
  4625                           	
  4626                           l1158:
  4627  00695C                     	line	19
  4628                           	movff	(c:___xxtofl@val),(c:___xxtofl@arg)
  4629  00695C  C015  F01F         	movff	(c:___xxtofl@val+1),(c:___xxtofl@arg+1)
  4630  006960  C016  F020         	movff	(c:___xxtofl@val+2),(c:___xxtofl@arg+2)
  4631  006964  C017  F021         	movff	(c:___xxtofl@val+3),(c:___xxtofl@arg+3)
  4632  006968  C018  F022         	goto	l2408
  4633  00696C  EFB8  F034         	line	20
  4634                           	
  4635                           l1159:
  4636  006970                     	line	21
  4637                           	
  4638                           l2408:
  4639  006970                     	movf	((c:___xxtofl@val)),c,w
  4640  006970  5015               iorwf	((c:___xxtofl@val+1)),c,w
  4641  006972  1016               iorwf	((c:___xxtofl@val+2)),c,w
  4642  006974  1017               iorwf	((c:___xxtofl@val+3)),c,w
  4643  006976  1018               	btfss	status,2
  4644  006978  A4D8               	goto	u2581
  4645  00697A  EFC1  F034         	goto	u2580
  4646  00697E  EFC3  F034         
  4647                           u2581:
  4648  006982                     	goto	l2414
  4649  006982  EFCF  F034         u2580:
  4650  006986                     	line	22
  4651                           	
  4652                           l2410:
  4653  006986                     	movlw	low(normalize32(0x0))
  4654  006986  0E00               	movwf	((c:?___xxtofl)),c
  4655  006988  6E15               	movlw	high(normalize32(0x0))
  4656  00698A  0E00               	movwf	((c:?___xxtofl+1)),c
  4657  00698C  6E16               	movlw	low highword(normalize32(0x0))
  4658  00698E  0E00               	movwf	((c:?___xxtofl+2)),c
  4659  006990  6E17               	movlw	high highword(normalize32(0x0))
  4660  006992  0E00               	movwf	((c:?___xxtofl+3)),c
  4661  006994  6E18               	goto	l1161
  4662  006996  EF70  F035         	
  4663                           l2412:
  4664  00699A                     	goto	l1161
  4665  00699A  EF70  F035         	
  4666                           l1160:
  4667  00699E                     	line	23
  4668                           	
  4669                           l2414:
  4670  00699E                     	movlw	low(096h)
  4671  00699E  0E96               	movwf	((c:___xxtofl@exp)),c
  4672  0069A0  6E1E               	line	24
  4673                           	goto	l2418
  4674  0069A2  EFDB  F034         	
  4675                           l1163:
  4676  0069A6                     	line	25
  4677                           	
  4678                           l2416:
  4679  0069A6                     	incf	((c:___xxtofl@exp)),c
  4680  0069A6  2A1E               	line	26
  4681                           	bcf	status,0
  4682  0069A8  90D8               	rrcf	((c:___xxtofl@arg+3)),c
  4683  0069AA  3222               	rrcf	((c:___xxtofl@arg+2)),c
  4684  0069AC  3221               	rrcf	((c:___xxtofl@arg+1)),c
  4685  0069AE  3220               	rrcf	((c:___xxtofl@arg)),c
  4686  0069B0  321F               	goto	l2418
  4687  0069B2  EFDB  F034         	line	27
  4688                           	
  4689                           l1162:
  4690  0069B6                     	line	24
  4691                           	
  4692                           l2418:
  4693  0069B6                     	movlw	0
  4694  0069B6  0E00               	andwf	((c:___xxtofl@arg)),c,w
  4695  0069B8  141F               	movwf	(??___xxtofl+0+0)&0ffh,c
  4696  0069BA  6E19               	movlw	0
  4697  0069BC  0E00               	andwf	((c:___xxtofl@arg+1)),c,w
  4698  0069BE  1420               	movwf	1+(??___xxtofl+0+0)&0ffh,c
  4699  0069C0  6E1A               	
  4700                           	movlw	0
  4701  0069C2  0E00               	andwf	((c:___xxtofl@arg+2)),c,w
  4702  0069C4  1421               	movwf	2+(??___xxtofl+0+0)&0ffh,c
  4703  0069C6  6E1B               	
  4704                           	movlw	0FEh
  4705  0069C8  0EFE               	andwf	((c:___xxtofl@arg+3)),c,w
  4706  0069CA  1422               	movwf	3+(??___xxtofl+0+0)&0ffh,c
  4707  0069CC  6E1C               	movf	(??___xxtofl+0+0),c,w
  4708  0069CE  5019               iorwf	(??___xxtofl+0+1),c,w
  4709  0069D0  101A               iorwf	(??___xxtofl+0+2),c,w
  4710  0069D2  101B               iorwf	(??___xxtofl+0+3),c,w
  4711  0069D4  101C               	btfss	status,2
  4712  0069D6  A4D8               	goto	u2591
  4713  0069D8  EFF0  F034         	goto	u2590
  4714  0069DC  EFF2  F034         
  4715                           u2591:
  4716  0069E0                     	goto	l2416
  4717  0069E0  EFD3  F034         u2590:
  4718  0069E4                     	goto	l1165
  4719  0069E4  EF02  F035         	
  4720                           l1164:
  4721  0069E8                     	line	28
  4722                           	goto	l1165
  4723  0069E8  EF02  F035         	
  4724                           l1166:
  4725  0069EC                     	line	29
  4726                           	
  4727                           l2420:
  4728  0069EC                     	incf	((c:___xxtofl@exp)),c
  4729  0069EC  2A1E               	line	30
  4730                           	
  4731                           l2422:
  4732  0069EE                     	movlw	low(01h)
  4733  0069EE  0E01               	addwf	((c:___xxtofl@arg)),c
  4734  0069F0  261F               	movlw	0
  4735  0069F2  0E00               	addwfc	((c:___xxtofl@arg+1)),c
  4736  0069F4  2220               	addwfc	((c:___xxtofl@arg+2)),c
  4737  0069F6  2221               	addwfc	((c:___xxtofl@arg+3)),c
  4738  0069F8  2222               	line	31
  4739                           	
  4740                           l2424:
  4741  0069FA                     	bcf	status,0
  4742  0069FA  90D8               	rrcf	((c:___xxtofl@arg+3)),c
  4743  0069FC  3222               	rrcf	((c:___xxtofl@arg+2)),c
  4744  0069FE  3221               	rrcf	((c:___xxtofl@arg+1)),c
  4745  006A00  3220               	rrcf	((c:___xxtofl@arg)),c
  4746  006A02  321F               	line	32
  4747                           	
  4748                           l1165:
  4749  006A04                     	line	28
  4750                           	movlw	0
  4751  006A04  0E00               	andwf	((c:___xxtofl@arg)),c,w
  4752  006A06  141F               	movwf	(??___xxtofl+0+0)&0ffh,c
  4753  006A08  6E19               	movlw	0
  4754  006A0A  0E00               	andwf	((c:___xxtofl@arg+1)),c,w
  4755  006A0C  1420               	movwf	1+(??___xxtofl+0+0)&0ffh,c
  4756  006A0E  6E1A               	
  4757                           	movlw	0
  4758  006A10  0E00               	andwf	((c:___xxtofl@arg+2)),c,w
  4759  006A12  1421               	movwf	2+(??___xxtofl+0+0)&0ffh,c
  4760  006A14  6E1B               	
  4761                           	movlw	0FFh
  4762  006A16  0EFF               	andwf	((c:___xxtofl@arg+3)),c,w
  4763  006A18  1422               	movwf	3+(??___xxtofl+0+0)&0ffh,c
  4764  006A1A  6E1C               	movf	(??___xxtofl+0+0),c,w
  4765  006A1C  5019               iorwf	(??___xxtofl+0+1),c,w
  4766  006A1E  101A               iorwf	(??___xxtofl+0+2),c,w
  4767  006A20  101B               iorwf	(??___xxtofl+0+3),c,w
  4768  006A22  101C               	btfss	status,2
  4769  006A24  A4D8               	goto	u2601
  4770  006A26  EF17  F035         	goto	u2600
  4771  006A2A  EF19  F035         
  4772                           u2601:
  4773  006A2E                     	goto	l2420
  4774  006A2E  EFF6  F034         u2600:
  4775  006A32                     	goto	l2428
  4776  006A32  EF25  F035         	
  4777                           l1167:
  4778  006A36                     	line	33
  4779                           	goto	l2428
  4780  006A36  EF25  F035         	
  4781                           l1169:
  4782  006A3A                     	line	34
  4783                           	
  4784                           l2426:
  4785  006A3A                     	decf	((c:___xxtofl@exp)),c
  4786  006A3A  061E               	line	35
  4787                           	bcf	status,0
  4788  006A3C  90D8               	rlcf	((c:___xxtofl@arg)),c
  4789  006A3E  361F               	rlcf	((c:___xxtofl@arg+1)),c
  4790  006A40  3620               	rlcf	((c:___xxtofl@arg+2)),c
  4791  006A42  3621               	rlcf	((c:___xxtofl@arg+3)),c
  4792  006A44  3622               	goto	l2428
  4793  006A46  EF25  F035         	line	36
  4794                           	
  4795                           l1168:
  4796  006A4A                     	line	33
  4797                           	
  4798                           l2428:
  4799  006A4A                     	
  4800                           	btfsc	((c:___xxtofl@arg+2)),c,(23)&7
  4801  006A4A  BE21               	goto	u2611
  4802  006A4C  EF2A  F035         	goto	u2610
  4803  006A50  EF2C  F035         u2611:
  4804  006A54                     	goto	l1172
  4805  006A54  EF36  F035         u2610:
  4806  006A58                     	
  4807                           l2430:
  4808  006A58                     		movlw	02h-0
  4809  006A58  0E02               	cpfslt	((c:___xxtofl@exp)),c
  4810  006A5A  601E               	goto	u2621
  4811  006A5C  EF32  F035         	goto	u2620
  4812  006A60  EF34  F035         
  4813                           u2621:
  4814  006A64                     	goto	l2426
  4815  006A64  EF1D  F035         u2620:
  4816  006A68                     	goto	l1172
  4817  006A68  EF36  F035         	
  4818                           l1171:
  4819  006A6C                     	
  4820                           l1172:
  4821  006A6C                     	line	37
  4822                           	
  4823                           	btfsc	((c:___xxtofl@exp)),c,(0)&7
  4824  006A6C  B01E               	goto	u2631
  4825  006A6E  EF3B  F035         	goto	u2630
  4826  006A72  EF3D  F035         u2631:
  4827  006A76                     	goto	l2434
  4828  006A76  EF40  F035         u2630:
  4829  006A7A                     	line	38
  4830                           	
  4831                           l2432:
  4832  006A7A                     	bcf	(0+(23/8)+(c:___xxtofl@arg)),c,(23)&7
  4833  006A7A  9E21               	goto	l2434
  4834  006A7C  EF40  F035         	
  4835                           l1173:
  4836  006A80                     	line	39
  4837                           	
  4838                           l2434:
  4839  006A80                     	bcf status,0
  4840  006A80  90D8               	rrcf	((c:___xxtofl@exp)),c
  4841  006A82  321E               
  4842                           	line	40
  4843                           	
  4844                           l2436:
  4845  006A84                     	movff	(c:___xxtofl@exp),??___xxtofl+0+0
  4846  006A84  C01E  F019         	clrf	(??___xxtofl+0+0+1)&0ffh,c
  4847  006A88  6A1A               	clrf	(??___xxtofl+0+0+2)&0ffh,c
  4848  006A8A  6A1B               	clrf	(??___xxtofl+0+0+3)&0ffh,c
  4849  006A8C  6A1C               	movff	??___xxtofl+0+0,??___xxtofl+0+3
  4850  006A8E  C019  F01C         	clrf	(??___xxtofl+0+2),c
  4851  006A92  6A1B               	clrf	(??___xxtofl+0+1),c
  4852  006A94  6A1A               	clrf	(??___xxtofl+0+0),c
  4853  006A96  6A19               	movf	(??___xxtofl+0+0),c,w
  4854  006A98  5019               	iorwf	((c:___xxtofl@arg)),c
  4855  006A9A  121F               	movf	(??___xxtofl+0+1),c,w
  4856  006A9C  501A               	iorwf	((c:___xxtofl@arg+1)),c
  4857  006A9E  1220               	movf	(??___xxtofl+0+2),c,w
  4858  006AA0  501B               	iorwf	((c:___xxtofl@arg+2)),c
  4859  006AA2  1221               	movf	(??___xxtofl+0+3),c,w
  4860  006AA4  501C               	iorwf	((c:___xxtofl@arg+3)),c
  4861  006AA6  1222               
  4862                           	line	41
  4863                           	
  4864                           l2438:
  4865  006AA8                     	movf	((c:___xxtofl@sign)),c,w
  4866  006AA8  501D               	btfsc	status,2
  4867  006AAA  B4D8               	goto	u2641
  4868  006AAC  EF5A  F035         	goto	u2640
  4869  006AB0  EF5C  F035         u2641:
  4870  006AB4                     	goto	l2444
  4871  006AB4  EF66  F035         u2640:
  4872  006AB8                     	
  4873                           l2440:
  4874  006AB8                     	btfsc	((c:___xxtofl@val+3)),c,7
  4875  006AB8  BE18               	goto	u2650
  4876  006ABA  EF63  F035         	goto	u2651
  4877  006ABE  EF61  F035         
  4878                           u2651:
  4879  006AC2                     	goto	l2444
  4880  006AC2  EF66  F035         u2650:
  4881  006AC6                     	line	42
  4882                           	
  4883                           l2442:
  4884  006AC6                     	bsf	(0+(31/8)+(c:___xxtofl@arg)),c,(31)&7
  4885  006AC6  8E22               	goto	l2444
  4886  006AC8  EF66  F035         	
  4887                           l1174:
  4888  006ACC                     	line	43
  4889                           	
  4890                           l2444:
  4891  006ACC                     	movff	(c:___xxtofl@arg),(c:?___xxtofl)
  4892  006ACC  C01F  F015         	movff	(c:___xxtofl@arg+1),(c:?___xxtofl+1)
  4893  006AD0  C020  F016         	movff	(c:___xxtofl@arg+2),(c:?___xxtofl+2)
  4894  006AD4  C021  F017         	movff	(c:___xxtofl@arg+3),(c:?___xxtofl+3)
  4895  006AD8  C022  F018         	goto	l1161
  4896  006ADC  EF70  F035         	
  4897                           l2446:
  4898  006AE0                     	line	44
  4899                           	
  4900                           l1161:
  4901  006AE0                     	return	;funcret
  4902  006AE0  0012               	opt stack 0
  4903                           GLOBAL	__end_of___xxtofl
  4904                           	__end_of___xxtofl:
  4905  006AE2                     	signat	___xxtofl,8316
  4906                           	global	___fltol
  4907                           
  4908 ;; *************** function ___fltol *****************
  4909 ;; Defined at:
  4910 ;;		line 43 in file "C:\Program Files (x86)\Microchip\xc8\v2.00\pic\sources\c99\common\fltol.c"
  4911 ;; Parameters:    Size  Location     Type
  4912 ;;  f1              4   84[COMRAM] unsigned char 
  4913 ;; Auto vars:     Size  Location     Type
  4914 ;;  exp1            1   93[COMRAM] unsigned char 
  4915 ;;  sign1           1   92[COMRAM] unsigned char 
  4916 ;; Return value:  Size  Location     Type
  4917 ;;                  4   84[COMRAM] long 
  4918 ;; Registers used:
  4919 ;;		wreg, status,2, status,0
  4920 ;; Tracked objects:
  4921 ;;		On entry : 0/0
  4922 ;;		On exit  : 0/0
  4923 ;;		Unchanged: 0/0
  4924 ;; Data sizes:     COMRAM   BANK0   BANK1   BANK2   BANK3   BANK4   BANK5   BANK6   BANK7
  4925 ;;      Params:         4       0       0       0       0       0       0       0       0
  4926 ;;      Locals:         2       0       0       0       0       0       0       0       0
  4927 ;;      Temps:          4       0       0       0       0       0       0       0       0
  4928 ;;      Totals:        10       0       0       0       0       0       0       0       0
  4929 ;;Total ram usage:       10 bytes
  4930 ;; Hardware stack levels used:    1
  4931 ;; Hardware stack levels required when called:    1
  4932 ;; This function calls:
  4933 ;;		Nothing
  4934 ;; This function is called by:
  4935 ;;		_analogWrite
  4936 ;; This function uses a non-reentrant model
  4937 ;;
  4938                           psect	text12,class=CODE,space=0,reloc=2,group=1
  4939                           	file	"C:\Program Files (x86)\Microchip\xc8\v2.00\pic\sources\c99\common\fltol.c"
  4940                           	line	43
  4941                           global __ptext12
  4942                           __ptext12:
  4943  0067B4                     psect	text12
  4944                           	file	"C:\Program Files (x86)\Microchip\xc8\v2.00\pic\sources\c99\common\fltol.c"
  4945                           	line	43
  4946                           	global	__size_of___fltol
  4947                           	__size_of___fltol	equ	__end_of___fltol-___fltol
  4948  0000                     	
  4949                           ___fltol:
  4950  0067B4                     ;incstack = 0
  4951                           	opt	stack 26
  4952                           	line	47
  4953                           	
  4954                           l2358:
  4955  0067B4                     	rlcf	((c:___fltol@f1+2)),c,w
  4956  0067B4  3457               	rlcf	((c:___fltol@f1+3)),c,w
  4957  0067B6  3458               	movwf	((c:___fltol@exp1)),c
  4958  0067B8  6E5E               	movf	((c:___fltol@exp1)),c,w
  4959  0067BA  505E               	btfss	status,2
  4960  0067BC  A4D8               	goto	u2491
  4961  0067BE  EFE3  F033         	goto	u2490
  4962  0067C2  EFE5  F033         u2491:
  4963  0067C6                     	goto	l2364
  4964  0067C6  EFF1  F033         u2490:
  4965  0067CA                     	line	48
  4966                           	
  4967                           l2360:
  4968  0067CA                     	movlw	low(0)
  4969  0067CA  0E00               	movwf	((c:?___fltol)),c
  4970  0067CC  6E55               	movlw	high(0)
  4971  0067CE  0E00               	movwf	((c:?___fltol+1)),c
  4972  0067D0  6E56               	movlw	low highword(0)
  4973  0067D2  0E00               	movwf	((c:?___fltol+2)),c
  4974  0067D4  6E57               	movlw	high highword(0)
  4975  0067D6  0E00               	movwf	((c:?___fltol+3)),c
  4976  0067D8  6E58               	goto	l800
  4977  0067DA  EF82  F034         	
  4978                           l2362:
  4979  0067DE                     	goto	l800
  4980  0067DE  EF82  F034         	
  4981                           l799:
  4982  0067E2                     	line	49
  4983                           	
  4984                           l2364:
  4985  0067E2                     	movff	(c:___fltol@f1),??___fltol+0+0
  4986  0067E2  C055  F059         	movff	(c:___fltol@f1+1),??___fltol+0+0+1
  4987  0067E6  C056  F05A         	movff	(c:___fltol@f1+2),??___fltol+0+0+2
  4988  0067EA  C057  F05B         	movff	(c:___fltol@f1+3),??___fltol+0+0+3
  4989  0067EE  C058  F05C         	movlw	01Fh+1
  4990  0067F2  0E20               	goto	u2500
  4991  0067F4  EF01  F034         u2505:
  4992  0067F8                     	bcf	status,0
  4993  0067F8  90D8               	rrcf	(??___fltol+0+3),c
  4994  0067FA  325C               	rrcf	(??___fltol+0+2),c
  4995  0067FC  325B               	rrcf	(??___fltol+0+1),c
  4996  0067FE  325A               	rrcf	(??___fltol+0+0),c
  4997  006800  3259               u2500:
  4998  006802                     	decfsz	wreg
  4999  006802  2EE8               	goto	u2505
  5000  006804  EFFC  F033         	movf	(??___fltol+0+0),c,w
  5001  006808  5059               	movwf	((c:___fltol@sign1)),c
  5002  00680A  6E5D               	line	50
  5003                           	
  5004                           l2366:
  5005  00680C                     	bsf	(0+(23/8)+(c:___fltol@f1)),c,(23)&7
  5006  00680C  8E57               	line	51
  5007                           	
  5008                           l2368:
  5009  00680E                     	movlw	0FFh
  5010  00680E  0EFF               	andwf	((c:___fltol@f1)),c
  5011  006810  1655               	movlw	0FFh
  5012  006812  0EFF               	andwf	((c:___fltol@f1+1)),c
  5013  006814  1656               	movlw	0FFh
  5014  006816  0EFF               	andwf	((c:___fltol@f1+2)),c
  5015  006818  1657               	movlw	0
  5016  00681A  0E00               	andwf	((c:___fltol@f1+3)),c
  5017  00681C  1658               	line	52
  5018                           	
  5019                           l2370:
  5020  00681E                     	movlw	(096h)&0ffh
  5021  00681E  0E96               	subwf	((c:___fltol@exp1)),c
  5022  006820  5E5E               	line	53
  5023                           	
  5024                           l2372:
  5025  006822                     	btfsc	((c:___fltol@exp1)),c,7
  5026  006822  BE5E               	goto	u2510
  5027  006824  EF18  F034         	goto	u2511
  5028  006828  EF16  F034         
  5029                           u2511:
  5030  00682C                     	goto	l2384
  5031  00682C  EF3C  F034         u2510:
  5032  006830                     	line	54
  5033                           	
  5034                           l2374:
  5035  006830                     		movf	((c:___fltol@exp1)),c,w
  5036  006830  505E               	xorlw	80h
  5037  006832  0A80               	addlw	-(80h^-23)
  5038  006834  0F97               	btfsc	status,0
  5039  006836  B0D8               	goto	u2521
  5040  006838  EF20  F034         	goto	u2520
  5041  00683C  EF22  F034         
  5042                           u2521:
  5043  006840                     	goto	l2380
  5044  006840  EF30  F034         u2520:
  5045  006844                     	line	55
  5046                           	
  5047                           l2376:
  5048  006844                     	movlw	low(0)
  5049  006844  0E00               	movwf	((c:?___fltol)),c
  5050  006846  6E55               	movlw	high(0)
  5051  006848  0E00               	movwf	((c:?___fltol+1)),c
  5052  00684A  6E56               	movlw	low highword(0)
  5053  00684C  0E00               	movwf	((c:?___fltol+2)),c
  5054  00684E  6E57               	movlw	high highword(0)
  5055  006850  0E00               	movwf	((c:?___fltol+3)),c
  5056  006852  6E58               	goto	l800
  5057  006854  EF82  F034         	
  5058                           l2378:
  5059  006858                     	goto	l800
  5060  006858  EF82  F034         	
  5061                           l802:
  5062  00685C                     	goto	l2380
  5063  00685C  EF30  F034         	line	56
  5064                           	
  5065                           l803:
  5066  006860                     	line	57
  5067                           	
  5068                           l2380:
  5069  006860                     	bcf	status,0
  5070  006860  90D8               	rrcf	((c:___fltol@f1+3)),c
  5071  006862  3258               	rrcf	((c:___fltol@f1+2)),c
  5072  006864  3257               	rrcf	((c:___fltol@f1+1)),c
  5073  006866  3256               	rrcf	((c:___fltol@f1)),c
  5074  006868  3255               	
  5075                           l2382:
  5076  00686A                     	incfsz	((c:___fltol@exp1)),c
  5077  00686A  3E5E               	
  5078                           	goto	l2380
  5079  00686C  EF30  F034         	goto	l2394
  5080  006870  EF66  F034         	
  5081                           l804:
  5082  006874                     	line	59
  5083                           	goto	l2394
  5084  006874  EF66  F034         	
  5085                           l801:
  5086  006878                     	line	60
  5087                           	
  5088                           l2384:
  5089  006878                     		movlw	020h-1
  5090  006878  0E1F               	cpfsgt	((c:___fltol@exp1)),c
  5091  00687A  645E               	goto	u2531
  5092  00687C  EF42  F034         	goto	u2530
  5093  006880  EF44  F034         
  5094                           u2531:
  5095  006884                     	goto	l2392
  5096  006884  EF5A  F034         u2530:
  5097  006888                     	line	61
  5098                           	
  5099                           l2386:
  5100  006888                     	movlw	low(0)
  5101  006888  0E00               	movwf	((c:?___fltol)),c
  5102  00688A  6E55               	movlw	high(0)
  5103  00688C  0E00               	movwf	((c:?___fltol+1)),c
  5104  00688E  6E56               	movlw	low highword(0)
  5105  006890  0E00               	movwf	((c:?___fltol+2)),c
  5106  006892  6E57               	movlw	high highword(0)
  5107  006894  0E00               	movwf	((c:?___fltol+3)),c
  5108  006896  6E58               	goto	l800
  5109  006898  EF82  F034         	
  5110                           l2388:
  5111  00689C                     	goto	l800
  5112  00689C  EF82  F034         	
  5113                           l806:
  5114  0068A0                     	line	62
  5115                           	goto	l2392
  5116  0068A0  EF5A  F034         	
  5117                           l808:
  5118  0068A4                     	line	63
  5119                           	
  5120                           l2390:
  5121  0068A4                     	bcf	status,0
  5122  0068A4  90D8               	rlcf	((c:___fltol@f1)),c
  5123  0068A6  3655               	rlcf	((c:___fltol@f1+1)),c
  5124  0068A8  3656               	rlcf	((c:___fltol@f1+2)),c
  5125  0068AA  3657               	rlcf	((c:___fltol@f1+3)),c
  5126  0068AC  3658               	line	64
  5127                           	decf	((c:___fltol@exp1)),c
  5128  0068AE  065E               	goto	l2392
  5129  0068B0  EF5A  F034         	line	65
  5130                           	
  5131                           l807:
  5132  0068B4                     	line	62
  5133                           	
  5134                           l2392:
  5135  0068B4                     	movf	((c:___fltol@exp1)),c,w
  5136  0068B4  505E               	btfss	status,2
  5137  0068B6  A4D8               	goto	u2541
  5138  0068B8  EF60  F034         	goto	u2540
  5139  0068BC  EF62  F034         u2541:
  5140  0068C0                     	goto	l2390
  5141  0068C0  EF52  F034         u2540:
  5142  0068C4                     	goto	l2394
  5143  0068C4  EF66  F034         	
  5144                           l809:
  5145  0068C8                     	goto	l2394
  5146  0068C8  EF66  F034         	line	66
  5147                           	
  5148                           l805:
  5149  0068CC                     	line	67
  5150                           	
  5151                           l2394:
  5152  0068CC                     	movf	((c:___fltol@sign1)),c,w
  5153  0068CC  505D               	btfsc	status,2
  5154  0068CE  B4D8               	goto	u2551
  5155  0068D0  EF6C  F034         	goto	u2550
  5156  0068D4  EF6E  F034         u2551:
  5157  0068D8                     	goto	l2398
  5158  0068D8  EF78  F034         u2550:
  5159  0068DC                     	line	68
  5160                           	
  5161                           l2396:
  5162  0068DC                     	comf	((c:___fltol@f1+3)),c
  5163  0068DC  1E58               	comf	((c:___fltol@f1+2)),c
  5164  0068DE  1E57               	comf	((c:___fltol@f1+1)),c
  5165  0068E0  1E56               	negf	((c:___fltol@f1)),c
  5166  0068E2  6C55               	movlw	0
  5167  0068E4  0E00               	addwfc	((c:___fltol@f1+1)),c
  5168  0068E6  2256               	addwfc	((c:___fltol@f1+2)),c
  5169  0068E8  2257               	addwfc	((c:___fltol@f1+3)),c
  5170  0068EA  2258               	goto	l2398
  5171  0068EC  EF78  F034         	
  5172                           l810:
  5173  0068F0                     	line	69
  5174                           	
  5175                           l2398:
  5176  0068F0                     	movff	(c:___fltol@f1),(c:?___fltol)
  5177  0068F0  C055  F055         	movff	(c:___fltol@f1+1),(c:?___fltol+1)
  5178  0068F4  C056  F056         	movff	(c:___fltol@f1+2),(c:?___fltol+2)
  5179  0068F8  C057  F057         	movff	(c:___fltol@f1+3),(c:?___fltol+3)
  5180  0068FC  C058  F058         	goto	l800
  5181  006900  EF82  F034         	
  5182                           l2400:
  5183  006904                     	line	70
  5184                           	
  5185                           l800:
  5186  006904                     	return	;funcret
  5187  006904  0012               	opt stack 0
  5188                           GLOBAL	__end_of___fltol
  5189                           	__end_of___fltol:
  5190  006906                     	signat	___fltol,4220
  5191                           	global	___flmul
  5192                           
  5193 ;; *************** function ___flmul *****************
  5194 ;; Defined at:
  5195 ;;		line 8 in file "C:\Program Files (x86)\Microchip\xc8\v2.00\pic\sources\c99\common\sprcmul.c"
  5196 ;; Parameters:    Size  Location     Type
  5197 ;;  b               4   59[COMRAM] long 
  5198 ;;  a               4   63[COMRAM] long 
  5199 ;; Auto vars:     Size  Location     Type
  5200 ;;  prod            4   78[COMRAM] struct .
  5201 ;;  grs             4   72[COMRAM] unsigned long 
  5202 ;;  temp            2   82[COMRAM] struct .
  5203 ;;  bexp            1   77[COMRAM] unsigned char 
  5204 ;;  aexp            1   76[COMRAM] unsigned char 
  5205 ;;  sign            1   71[COMRAM] unsigned char 
  5206 ;; Return value:  Size  Location     Type
  5207 ;;                  4   59[COMRAM] unsigned char 
  5208 ;; Registers used:
  5209 ;;		wreg, status,2, status,0, prodl, prodh
  5210 ;; Tracked objects:
  5211 ;;		On entry : 0/0
  5212 ;;		On exit  : 0/0
  5213 ;;		Unchanged: 0/0
  5214 ;; Data sizes:     COMRAM   BANK0   BANK1   BANK2   BANK3   BANK4   BANK5   BANK6   BANK7
  5215 ;;      Params:         8       0       0       0       0       0       0       0       0
  5216 ;;      Locals:        13       0       0       0       0       0       0       0       0
  5217 ;;      Temps:          4       0       0       0       0       0       0       0       0
  5218 ;;      Totals:        25       0       0       0       0       0       0       0       0
  5219 ;;Total ram usage:       25 bytes
  5220 ;; Hardware stack levels used:    1
  5221 ;; Hardware stack levels required when called:    1
  5222 ;; This function calls:
  5223 ;;		Nothing
  5224 ;; This function is called by:
  5225 ;;		_analogWrite
  5226 ;;		_Time
  5227 ;;		_Frequency
  5228 ;;		_rescale
  5229 ;; This function uses a non-reentrant model
  5230 ;;
  5231                           psect	text13,class=CODE,space=0,reloc=2,group=1
  5232                           	file	"C:\Program Files (x86)\Microchip\xc8\v2.00\pic\sources\c99\common\sprcmul.c"
  5233                           	line	8
  5234                           global __ptext13
  5235                           __ptext13:
  5236  007892                     psect	text13
  5237                           	file	"C:\Program Files (x86)\Microchip\xc8\v2.00\pic\sources\c99\common\sprcmul.c"
  5238                           	line	8
  5239                           	global	__size_of___flmul
  5240                           	__size_of___flmul	equ	__end_of___flmul-___flmul
  5241  0000                     	
  5242                           ___flmul:
  5243  007892                     ;incstack = 0
  5244                           	opt	stack 26
  5245                           	line	17
  5246                           	
  5247                           l2228:
  5248  007892                     	movf	(0+((c:___flmul@b)+03h)),c,w
  5249  007892  503F               	andlw	low(080h)
  5250  007894  0B80               	movwf	((c:___flmul@sign)),c
  5251  007896  6E48               	line	18
  5252                           	movf	(0+((c:___flmul@b)+03h)),c,w
  5253  007898  503F               	addwf	(0+((c:___flmul@b)+03h)),c,w
  5254  00789A  243F               	movwf	((c:___flmul@bexp)),c
  5255  00789C  6E4E               	line	19
  5256                           	
  5257                           l2230:
  5258  00789E                     	
  5259                           	btfss	(0+((c:___flmul@b)+02h)),c,(7)&7
  5260  00789E  AE3E               	goto	u2301
  5261  0078A0  EF54  F03C         	goto	u2300
  5262  0078A4  EF56  F03C         u2301:
  5263  0078A8                     	goto	l2234
  5264  0078A8  EF59  F03C         u2300:
  5265  0078AC                     	line	20
  5266                           	
  5267                           l2232:
  5268  0078AC                     	bsf	(0+(0/8)+(c:___flmul@bexp)),c,(0)&7
  5269  0078AC  804E               	goto	l2234
  5270  0078AE  EF59  F03C         	line	21
  5271                           	
  5272                           l1110:
  5273  0078B2                     	line	24
  5274                           	
  5275                           l2234:
  5276  0078B2                     	movf	((c:___flmul@bexp)),c,w
  5277  0078B2  504E               	btfsc	status,2
  5278  0078B4  B4D8               	goto	u2311
  5279  0078B6  EF5F  F03C         	goto	u2310
  5280  0078BA  EF61  F03C         u2311:
  5281  0078BE                     	goto	l2242
  5282  0078BE  EF76  F03C         u2310:
  5283  0078C2                     	line	26
  5284                           	
  5285                           l2236:
  5286  0078C2                     		incf	((c:___flmul@bexp)),c,w
  5287  0078C2  284E               	btfss	status,2
  5288  0078C4  A4D8               	goto	u2321
  5289  0078C6  EF67  F03C         	goto	u2320
  5290  0078CA  EF69  F03C         
  5291                           u2321:
  5292  0078CE                     	goto	l2240
  5293  0078CE  EF73  F03C         u2320:
  5294  0078D2                     	line	28
  5295                           	
  5296                           l2238:
  5297  0078D2                     	movlw	low(normalize32(0x0))
  5298  0078D2  0E00               	movwf	((c:___flmul@b)),c
  5299  0078D4  6E3C               	movlw	high(normalize32(0x0))
  5300  0078D6  0E00               	movwf	((c:___flmul@b+1)),c
  5301  0078D8  6E3D               	movlw	low highword(normalize32(0x0))
  5302  0078DA  0E00               	movwf	((c:___flmul@b+2)),c
  5303  0078DC  6E3E               	movlw	high highword(normalize32(0x0))
  5304  0078DE  0E00               	movwf	((c:___flmul@b+3)),c
  5305  0078E0  6E3F               	goto	l2240
  5306  0078E2  EF73  F03C         	line	29
  5307                           	
  5308                           l1112:
  5309  0078E6                     	line	31
  5310                           	
  5311                           l2240:
  5312  0078E6                     	bsf	(0+(23/8)+(c:___flmul@b)),c,(23)&7
  5313  0078E6  8E3E               	line	33
  5314                           	goto	l2244
  5315  0078E8  EF80  F03C         	line	34
  5316                           	
  5317                           l1111:
  5318  0078EC                     	line	36
  5319                           	
  5320                           l2242:
  5321  0078EC                     	movlw	low(normalize32(0x0))
  5322  0078EC  0E00               	movwf	((c:___flmul@b)),c
  5323  0078EE  6E3C               	movlw	high(normalize32(0x0))
  5324  0078F0  0E00               	movwf	((c:___flmul@b+1)),c
  5325  0078F2  6E3D               	movlw	low highword(normalize32(0x0))
  5326  0078F4  0E00               	movwf	((c:___flmul@b+2)),c
  5327  0078F6  6E3E               	movlw	high highword(normalize32(0x0))
  5328  0078F8  0E00               	movwf	((c:___flmul@b+3)),c
  5329  0078FA  6E3F               	goto	l2244
  5330  0078FC  EF80  F03C         	line	37
  5331                           	
  5332                           l1113:
  5333  007900                     	line	39
  5334                           	
  5335                           l2244:
  5336  007900                     	movf	(0+((c:___flmul@a)+03h)),c,w
  5337  007900  5043               	andlw	low(080h)
  5338  007902  0B80               	xorwf	((c:___flmul@sign)),c
  5339  007904  1A48               	line	40
  5340                           	
  5341                           l2246:
  5342  007906                     	movf	(0+((c:___flmul@a)+03h)),c,w
  5343  007906  5043               	addwf	(0+((c:___flmul@a)+03h)),c,w
  5344  007908  2443               	movwf	((c:___flmul@aexp)),c
  5345  00790A  6E4D               	line	41
  5346                           	
  5347                           l2248:
  5348  00790C                     	
  5349                           	btfss	(0+((c:___flmul@a)+02h)),c,(7)&7
  5350  00790C  AE42               	goto	u2331
  5351  00790E  EF8B  F03C         	goto	u2330
  5352  007912  EF8D  F03C         u2331:
  5353  007916                     	goto	l2252
  5354  007916  EF90  F03C         u2330:
  5355  00791A                     	line	42
  5356                           	
  5357                           l2250:
  5358  00791A                     	bsf	(0+(0/8)+(c:___flmul@aexp)),c,(0)&7
  5359  00791A  804D               	goto	l2252
  5360  00791C  EF90  F03C         	line	43
  5361                           	
  5362                           l1114:
  5363  007920                     	line	45
  5364                           	
  5365                           l2252:
  5366  007920                     	movf	((c:___flmul@aexp)),c,w
  5367  007920  504D               	btfsc	status,2
  5368  007922  B4D8               	goto	u2341
  5369  007924  EF96  F03C         	goto	u2340
  5370  007928  EF98  F03C         u2341:
  5371  00792C                     	goto	l2260
  5372  00792C  EFAD  F03C         u2340:
  5373  007930                     	line	48
  5374                           	
  5375                           l2254:
  5376  007930                     		incf	((c:___flmul@aexp)),c,w
  5377  007930  284D               	btfss	status,2
  5378  007932  A4D8               	goto	u2351
  5379  007934  EF9E  F03C         	goto	u2350
  5380  007938  EFA0  F03C         
  5381                           u2351:
  5382  00793C                     	goto	l2258
  5383  00793C  EFAA  F03C         u2350:
  5384  007940                     	line	50
  5385                           	
  5386                           l2256:
  5387  007940                     	movlw	low(normalize32(0x0))
  5388  007940  0E00               	movwf	((c:___flmul@a)),c
  5389  007942  6E40               	movlw	high(normalize32(0x0))
  5390  007944  0E00               	movwf	((c:___flmul@a+1)),c
  5391  007946  6E41               	movlw	low highword(normalize32(0x0))
  5392  007948  0E00               	movwf	((c:___flmul@a+2)),c
  5393  00794A  6E42               	movlw	high highword(normalize32(0x0))
  5394  00794C  0E00               	movwf	((c:___flmul@a+3)),c
  5395  00794E  6E43               	goto	l2258
  5396  007950  EFAA  F03C         	line	51
  5397                           	
  5398                           l1116:
  5399  007954                     	line	53
  5400                           	
  5401                           l2258:
  5402  007954                     	bsf	(0+(23/8)+(c:___flmul@a)),c,(23)&7
  5403  007954  8E42               	line	54
  5404                           	goto	l1117
  5405  007956  EFB5  F03C         	line	55
  5406                           	
  5407                           l1115:
  5408  00795A                     	line	57
  5409                           	
  5410                           l2260:
  5411  00795A                     	movlw	low(normalize32(0x0))
  5412  00795A  0E00               	movwf	((c:___flmul@a)),c
  5413  00795C  6E40               	movlw	high(normalize32(0x0))
  5414  00795E  0E00               	movwf	((c:___flmul@a+1)),c
  5415  007960  6E41               	movlw	low highword(normalize32(0x0))
  5416  007962  0E00               	movwf	((c:___flmul@a+2)),c
  5417  007964  6E42               	movlw	high highword(normalize32(0x0))
  5418  007966  0E00               	movwf	((c:___flmul@a+3)),c
  5419  007968  6E43               	line	58
  5420                           	
  5421                           l1117:
  5422  00796A                     	line	65
  5423                           	movf	((c:___flmul@aexp)),c,w
  5424  00796A  504D               	btfsc	status,2
  5425  00796C  B4D8               	goto	u2361
  5426  00796E  EFBB  F03C         	goto	u2360
  5427  007972  EFBD  F03C         u2361:
  5428  007976                     	goto	l2264
  5429  007976  EFC7  F03C         u2360:
  5430  00797A                     	
  5431                           l2262:
  5432  00797A                     	movf	((c:___flmul@bexp)),c,w
  5433  00797A  504E               	btfss	status,2
  5434  00797C  A4D8               	goto	u2371
  5435  00797E  EFC3  F03C         	goto	u2370
  5436  007982  EFC5  F03C         u2371:
  5437  007986                     	goto	l2268
  5438  007986  EFD3  F03C         u2370:
  5439  00798A                     	goto	l2264
  5440  00798A  EFC7  F03C         	
  5441                           l1120:
  5442  00798E                     	line	66
  5443                           	
  5444                           l2264:
  5445  00798E                     	movlw	low(normalize32(0x0))
  5446  00798E  0E00               	movwf	((c:?___flmul)),c
  5447  007990  6E3C               	movlw	high(normalize32(0x0))
  5448  007992  0E00               	movwf	((c:?___flmul+1)),c
  5449  007994  6E3D               	movlw	low highword(normalize32(0x0))
  5450  007996  0E00               	movwf	((c:?___flmul+2)),c
  5451  007998  6E3E               	movlw	high highword(normalize32(0x0))
  5452  00799A  0E00               	movwf	((c:?___flmul+3)),c
  5453  00799C  6E3F               	goto	l1121
  5454  00799E  EF7F  F03E         	
  5455                           l2266:
  5456  0079A2                     	goto	l1121
  5457  0079A2  EF7F  F03E         	line	67
  5458                           	
  5459                           l1118:
  5460  0079A6                     	line	95
  5461                           	
  5462                           l2268:
  5463  0079A6                     	movf	(0+((c:___flmul@a)+02h)),c,w
  5464  0079A6  5042               	mulwf	((c:___flmul@b)),c
  5465  0079A8  023C               	movff	prodl,(c:___flmul@temp)
  5466  0079AA  CFF3 F053          	movff	prodh,(c:___flmul@temp+1)
  5467  0079AE  CFF4 F054          	line	96
  5468                           	
  5469                           l2270:
  5470  0079B2                     	movf	((c:___flmul@temp)),c,w
  5471  0079B2  5053               	movwf	((c:___flmul@grs)),c
  5472  0079B4  6E49               	clrf	((c:___flmul@grs+1)),c
  5473  0079B6  6A4A               	clrf	((c:___flmul@grs+2)),c
  5474  0079B8  6A4B               	clrf	((c:___flmul@grs+3)),c
  5475  0079BA  6A4C               
  5476                           	line	97
  5477                           	
  5478                           l2272:
  5479  0079BC                     	movf	(0+((c:___flmul@temp)+01h)),c,w
  5480  0079BC  5054               	movwf	((c:___flmul@prod)),c
  5481  0079BE  6E4F               	clrf	((c:___flmul@prod+1)),c
  5482  0079C0  6A50               	clrf	((c:___flmul@prod+2)),c
  5483  0079C2  6A51               	clrf	((c:___flmul@prod+3)),c
  5484  0079C4  6A52               
  5485                           	line	98
  5486                           	movf	(0+((c:___flmul@a)+01h)),c,w
  5487  0079C6  5041               	mulwf	(0+((c:___flmul@b)+01h)),c
  5488  0079C8  023D               	movff	prodl,(c:___flmul@temp)
  5489  0079CA  CFF3 F053          	movff	prodh,(c:___flmul@temp+1)
  5490  0079CE  CFF4 F054          	line	99
  5491                           	
  5492                           l2274:
  5493  0079D2                     	movf	((c:___flmul@temp)),c,w
  5494  0079D2  5053               	addwf	((c:___flmul@grs)),c
  5495  0079D4  2649               	movlw	0
  5496  0079D6  0E00               	addwfc	((c:___flmul@grs+1)),c
  5497  0079D8  224A               	addwfc	((c:___flmul@grs+2)),c
  5498  0079DA  224B               	addwfc	((c:___flmul@grs+3)),c
  5499  0079DC  224C               	line	100
  5500                           	
  5501                           l2276:
  5502  0079DE                     	movf	(0+((c:___flmul@temp)+01h)),c,w
  5503  0079DE  5054               	addwf	((c:___flmul@prod)),c
  5504  0079E0  264F               	movlw	0
  5505  0079E2  0E00               	addwfc	((c:___flmul@prod+1)),c
  5506  0079E4  2250               	addwfc	((c:___flmul@prod+2)),c
  5507  0079E6  2251               	addwfc	((c:___flmul@prod+3)),c
  5508  0079E8  2252               	line	101
  5509                           	movf	((c:___flmul@a)),c,w
  5510  0079EA  5040               	mulwf	(0+((c:___flmul@b)+02h)),c
  5511  0079EC  023E               	movff	prodl,(c:___flmul@temp)
  5512  0079EE  CFF3 F053          	movff	prodh,(c:___flmul@temp+1)
  5513  0079F2  CFF4 F054          	line	102
  5514                           	
  5515                           l2278:
  5516  0079F6                     	movf	((c:___flmul@temp)),c,w
  5517  0079F6  5053               	addwf	((c:___flmul@grs)),c
  5518  0079F8  2649               	movlw	0
  5519  0079FA  0E00               	addwfc	((c:___flmul@grs+1)),c
  5520  0079FC  224A               	addwfc	((c:___flmul@grs+2)),c
  5521  0079FE  224B               	addwfc	((c:___flmul@grs+3)),c
  5522  007A00  224C               	line	103
  5523                           	
  5524                           l2280:
  5525  007A02                     	movf	(0+((c:___flmul@temp)+01h)),c,w
  5526  007A02  5054               	addwf	((c:___flmul@prod)),c
  5527  007A04  264F               	movlw	0
  5528  007A06  0E00               	addwfc	((c:___flmul@prod+1)),c
  5529  007A08  2250               	addwfc	((c:___flmul@prod+2)),c
  5530  007A0A  2251               	addwfc	((c:___flmul@prod+3)),c
  5531  007A0C  2252               	line	104
  5532                           	
  5533                           l2282:
  5534  007A0E                     	movff	(c:___flmul@grs+2),(c:___flmul@grs+3)
  5535  007A0E  C04B  F04C         	movff	(c:___flmul@grs+1),(c:___flmul@grs+2)
  5536  007A12  C04A  F04B         	movff	(c:___flmul@grs),(c:___flmul@grs+1)
  5537  007A16  C049  F04A         	clrf	((c:___flmul@grs)),c
  5538  007A1A  6A49               	line	105
  5539                           	
  5540                           l2284:
  5541  007A1C                     	movf	((c:___flmul@a)),c,w
  5542  007A1C  5040               	mulwf	(0+((c:___flmul@b)+01h)),c
  5543  007A1E  023D               	movff	prodl,(c:___flmul@temp)
  5544  007A20  CFF3 F053          	movff	prodh,(c:___flmul@temp+1)
  5545  007A24  CFF4 F054          	line	106
  5546                           	
  5547                           l2286:
  5548  007A28                     	movf	((c:___flmul@temp)),c,w
  5549  007A28  5053               	addwf	((c:___flmul@grs)),c
  5550  007A2A  2649               	movf	((c:___flmul@temp+1)),c,w
  5551  007A2C  5054               	addwfc	((c:___flmul@grs+1)),c
  5552  007A2E  224A               	movlw	0
  5553  007A30  0E00               	addwfc	((c:___flmul@grs+2)),c
  5554  007A32  224B               	movlw	0
  5555  007A34  0E00               	addwfc	((c:___flmul@grs+3)),c
  5556  007A36  224C               
  5557                           	line	107
  5558                           	
  5559                           l2288:
  5560  007A38                     	movf	(0+((c:___flmul@a)+01h)),c,w
  5561  007A38  5041               	mulwf	((c:___flmul@b)),c
  5562  007A3A  023C               	movff	prodl,(c:___flmul@temp)
  5563  007A3C  CFF3 F053          	movff	prodh,(c:___flmul@temp+1)
  5564  007A40  CFF4 F054          	line	108
  5565                           	
  5566                           l2290:
  5567  007A44                     	movf	((c:___flmul@temp)),c,w
  5568  007A44  5053               	addwf	((c:___flmul@grs)),c
  5569  007A46  2649               	movf	((c:___flmul@temp+1)),c,w
  5570  007A48  5054               	addwfc	((c:___flmul@grs+1)),c
  5571  007A4A  224A               	movlw	0
  5572  007A4C  0E00               	addwfc	((c:___flmul@grs+2)),c
  5573  007A4E  224B               	movlw	0
  5574  007A50  0E00               	addwfc	((c:___flmul@grs+3)),c
  5575  007A52  224C               
  5576                           	line	109
  5577                           	
  5578                           l2292:
  5579  007A54                     	movff	(c:___flmul@grs+2),(c:___flmul@grs+3)
  5580  007A54  C04B  F04C         	movff	(c:___flmul@grs+1),(c:___flmul@grs+2)
  5581  007A58  C04A  F04B         	movff	(c:___flmul@grs),(c:___flmul@grs+1)
  5582  007A5C  C049  F04A         	clrf	((c:___flmul@grs)),c
  5583  007A60  6A49               	line	110
  5584                           	movf	((c:___flmul@a)),c,w
  5585  007A62  5040               	mulwf	((c:___flmul@b)),c
  5586  007A64  023C               	movff	prodl,(c:___flmul@temp)
  5587  007A66  CFF3 F053          	movff	prodh,(c:___flmul@temp+1)
  5588  007A6A  CFF4 F054          	line	111
  5589                           	
  5590                           l2294:
  5591  007A6E                     	movf	((c:___flmul@temp)),c,w
  5592  007A6E  5053               	addwf	((c:___flmul@grs)),c
  5593  007A70  2649               	movf	((c:___flmul@temp+1)),c,w
  5594  007A72  5054               	addwfc	((c:___flmul@grs+1)),c
  5595  007A74  224A               	movlw	0
  5596  007A76  0E00               	addwfc	((c:___flmul@grs+2)),c
  5597  007A78  224B               	movlw	0
  5598  007A7A  0E00               	addwfc	((c:___flmul@grs+3)),c
  5599  007A7C  224C               
  5600                           	line	112
  5601                           	
  5602                           l2296:
  5603  007A7E                     	movf	(0+((c:___flmul@a)+02h)),c,w
  5604  007A7E  5042               	mulwf	(0+((c:___flmul@b)+01h)),c
  5605  007A80  023D               	movff	prodl,(c:___flmul@temp)
  5606  007A82  CFF3 F053          	movff	prodh,(c:___flmul@temp+1)
  5607  007A86  CFF4 F054          	line	113
  5608                           	movf	((c:___flmul@temp)),c,w
  5609  007A8A  5053               	addwf	((c:___flmul@prod)),c
  5610  007A8C  264F               	movf	((c:___flmul@temp+1)),c,w
  5611  007A8E  5054               	addwfc	((c:___flmul@prod+1)),c
  5612  007A90  2250               	movlw	0
  5613  007A92  0E00               	addwfc	((c:___flmul@prod+2)),c
  5614  007A94  2251               	movlw	0
  5615  007A96  0E00               	addwfc	((c:___flmul@prod+3)),c
  5616  007A98  2252               
  5617                           	line	114
  5618                           	
  5619                           l2298:
  5620  007A9A                     	movf	(0+((c:___flmul@a)+01h)),c,w
  5621  007A9A  5041               	mulwf	(0+((c:___flmul@b)+02h)),c
  5622  007A9C  023E               	movff	prodl,(c:___flmul@temp)
  5623  007A9E  CFF3 F053          	movff	prodh,(c:___flmul@temp+1)
  5624  007AA2  CFF4 F054          	line	115
  5625                           	
  5626                           l2300:
  5627  007AA6                     	movf	((c:___flmul@temp)),c,w
  5628  007AA6  5053               	addwf	((c:___flmul@prod)),c
  5629  007AA8  264F               	movf	((c:___flmul@temp+1)),c,w
  5630  007AAA  5054               	addwfc	((c:___flmul@prod+1)),c
  5631  007AAC  2250               	movlw	0
  5632  007AAE  0E00               	addwfc	((c:___flmul@prod+2)),c
  5633  007AB0  2251               	movlw	0
  5634  007AB2  0E00               	addwfc	((c:___flmul@prod+3)),c
  5635  007AB4  2252               
  5636                           	line	116
  5637                           	movf	(0+((c:___flmul@a)+02h)),c,w
  5638  007AB6  5042               	mulwf	(0+((c:___flmul@b)+02h)),c
  5639  007AB8  023E               	movff	prodl,(c:___flmul@temp)
  5640  007ABA  CFF3 F053          	movff	prodh,(c:___flmul@temp+1)
  5641  007ABE  CFF4 F054          	line	117
  5642                           	
  5643                           l2302:
  5644  007AC2                     	movf	((c:___flmul@temp)),c,w
  5645  007AC2  5053               	movwf	(??___flmul+0+0)&0ffh,c
  5646  007AC4  6E44               	movf	((c:___flmul@temp+1)),c,w
  5647  007AC6  5054               	movwf	1+(??___flmul+0+0)&0ffh,c
  5648  007AC8  6E45               	
  5649                           	clrf	2+(??___flmul+0+0)&0ffh,c
  5650  007ACA  6A46               	
  5651                           	clrf	3+(??___flmul+0+0)&0ffh,c
  5652  007ACC  6A47               	movff	??___flmul+0+2,??___flmul+0+3
  5653  007ACE  C046  F047         	movff	??___flmul+0+1,??___flmul+0+2
  5654  007AD2  C045  F046         	movff	??___flmul+0+0,??___flmul+0+1
  5655  007AD6  C044  F045         	clrf	(??___flmul+0+0),c
  5656  007ADA  6A44               	movf	(??___flmul+0+0),c,w
  5657  007ADC  5044               	addwf	((c:___flmul@prod)),c
  5658  007ADE  264F               	movf	(??___flmul+0+1),c,w
  5659  007AE0  5045               	addwfc	((c:___flmul@prod+1)),c
  5660  007AE2  2250               	movf	(??___flmul+0+2),c,w
  5661  007AE4  5046               	addwfc	((c:___flmul@prod+2)),c
  5662  007AE6  2251               	movf	(??___flmul+0+3),c,w
  5663  007AE8  5047               	addwfc	((c:___flmul@prod+3)),c
  5664  007AEA  2252               
  5665                           	line	145
  5666                           	
  5667                           l2304:
  5668  007AEC                     	movff	(c:___flmul@grs),??___flmul+0+0
  5669  007AEC  C049  F044         	movff	(c:___flmul@grs+1),??___flmul+0+0+1
  5670  007AF0  C04A  F045         	movff	(c:___flmul@grs+2),??___flmul+0+0+2
  5671  007AF4  C04B  F046         	movff	(c:___flmul@grs+3),??___flmul+0+0+3
  5672  007AF8  C04C  F047         	movlw	018h+1
  5673  007AFC  0E19               	goto	u2380
  5674  007AFE  EF86  F03D         u2385:
  5675  007B02                     	bcf	status,0
  5676  007B02  90D8               	rrcf	(??___flmul+0+3),c
  5677  007B04  3247               	rrcf	(??___flmul+0+2),c
  5678  007B06  3246               	rrcf	(??___flmul+0+1),c
  5679  007B08  3245               	rrcf	(??___flmul+0+0),c
  5680  007B0A  3244               u2380:
  5681  007B0C                     	decfsz	wreg
  5682  007B0C  2EE8               	goto	u2385
  5683  007B0E  EF81  F03D         	movf	(??___flmul+0+0),c,w
  5684  007B12  5044               	addwf	((c:___flmul@prod)),c
  5685  007B14  264F               	movf	(??___flmul+0+1),c,w
  5686  007B16  5045               	addwfc	((c:___flmul@prod+1)),c
  5687  007B18  2250               	movf	(??___flmul+0+2),c,w
  5688  007B1A  5046               	addwfc	((c:___flmul@prod+2)),c
  5689  007B1C  2251               	movf	(??___flmul+0+3),c,w
  5690  007B1E  5047               	addwfc	((c:___flmul@prod+3)),c
  5691  007B20  2252               
  5692                           	line	146
  5693                           	
  5694                           l2306:
  5695  007B22                     	movff	(c:___flmul@grs+2),(c:___flmul@grs+3)
  5696  007B22  C04B  F04C         	movff	(c:___flmul@grs+1),(c:___flmul@grs+2)
  5697  007B26  C04A  F04B         	movff	(c:___flmul@grs),(c:___flmul@grs+1)
  5698  007B2A  C049  F04A         	clrf	((c:___flmul@grs)),c
  5699  007B2E  6A49               	line	149
  5700                           	
  5701                           l2308:
  5702  007B30                     	movf	((c:___flmul@aexp)),c,w
  5703  007B30  504D               	movff	(c:___flmul@bexp),??___flmul+0+0
  5704  007B32  C04E  F044         	clrf	(??___flmul+0+0+1)&0ffh,c
  5705  007B36  6A45               	addwf	(??___flmul+0+0),c
  5706  007B38  2644               	movlw	0
  5707  007B3A  0E00               	addwfc	(??___flmul+0+1),c
  5708  007B3C  2245               	movlw	low(-126)
  5709  007B3E  0E82               	addwf	(??___flmul+0+0),c,w
  5710  007B40  2444               	movwf	((c:___flmul@temp)),c
  5711  007B42  6E53               	movlw	high(-126)
  5712  007B44  0EFF               	addwfc	(??___flmul+0+1),c,w
  5713  007B46  2045               	movwf	1+((c:___flmul@temp)),c
  5714  007B48  6E54               	line	152
  5715                           	goto	l2316
  5716  007B4A  EFBE  F03D         	
  5717                           l1123:
  5718  007B4E                     	line	153
  5719                           	
  5720                           l2310:
  5721  007B4E                     	bcf	status,0
  5722  007B4E  90D8               	rlcf	((c:___flmul@prod)),c
  5723  007B50  364F               	rlcf	((c:___flmul@prod+1)),c
  5724  007B52  3650               	rlcf	((c:___flmul@prod+2)),c
  5725  007B54  3651               	rlcf	((c:___flmul@prod+3)),c
  5726  007B56  3652               	line	154
  5727                           	
  5728                           l2312:
  5729  007B58                     	
  5730                           	btfss	((c:___flmul@grs+3)),c,(31)&7
  5731  007B58  AE4C               	goto	u2391
  5732  007B5A  EFB1  F03D         	goto	u2390
  5733  007B5E  EFB3  F03D         u2391:
  5734  007B62                     	goto	l1124
  5735  007B62  EFB4  F03D         u2390:
  5736  007B66                     	line	155
  5737                           	
  5738                           l2314:
  5739  007B66                     	bsf	(0+(0/8)+(c:___flmul@prod)),c,(0)&7
  5740  007B66  804F               	line	156
  5741                           	
  5742                           l1124:
  5743  007B68                     	line	157
  5744                           	bcf	status,0
  5745  007B68  90D8               	rlcf	((c:___flmul@grs)),c
  5746  007B6A  3649               	rlcf	((c:___flmul@grs+1)),c
  5747  007B6C  364A               	rlcf	((c:___flmul@grs+2)),c
  5748  007B6E  364B               	rlcf	((c:___flmul@grs+3)),c
  5749  007B70  364C               	line	158
  5750                           	decf	((c:___flmul@temp)),c
  5751  007B72  0653               	btfss	status,0
  5752  007B74  A0D8               	decf	((c:___flmul@temp+1)),c
  5753  007B76  0654               	goto	l2316
  5754  007B78  EFBE  F03D         	line	159
  5755                           	
  5756                           l1122:
  5757  007B7C                     	line	152
  5758                           	
  5759                           l2316:
  5760  007B7C                     	
  5761                           	btfss	((c:___flmul@prod+2)),c,(23)&7
  5762  007B7C  AE51               	goto	u2401
  5763  007B7E  EFC3  F03D         	goto	u2400
  5764  007B82  EFC5  F03D         u2401:
  5765  007B86                     	goto	l2310
  5766  007B86  EFA7  F03D         u2400:
  5767  007B8A                     	goto	l2318
  5768  007B8A  EFC7  F03D         	
  5769                           l1125:
  5770  007B8E                     	line	163
  5771                           	
  5772                           l2318:
  5773  007B8E                     	movlw	low(0)
  5774  007B8E  0E00               	movwf	((c:___flmul@aexp)),c
  5775  007B90  6E4D               	line	164
  5776                           	
  5777                           l2320:
  5778  007B92                     	
  5779                           	btfss	((c:___flmul@grs+3)),c,(31)&7
  5780  007B92  AE4C               	goto	u2411
  5781  007B94  EFCE  F03D         	goto	u2410
  5782  007B98  EFD0  F03D         u2411:
  5783  007B9C                     	goto	l1126
  5784  007B9C  EFF8  F03D         u2410:
  5785  007BA0                     	line	165
  5786                           	
  5787                           l2322:
  5788  007BA0                     	movlw	0FFh
  5789  007BA0  0EFF               	andwf	((c:___flmul@grs)),c,w
  5790  007BA2  1449               	movwf	(??___flmul+0+0)&0ffh,c
  5791  007BA4  6E44               	movlw	0FFh
  5792  007BA6  0EFF               	andwf	((c:___flmul@grs+1)),c,w
  5793  007BA8  144A               	movwf	1+(??___flmul+0+0)&0ffh,c
  5794  007BAA  6E45               	
  5795                           	movlw	0FFh
  5796  007BAC  0EFF               	andwf	((c:___flmul@grs+2)),c,w
  5797  007BAE  144B               	movwf	2+(??___flmul+0+0)&0ffh,c
  5798  007BB0  6E46               	
  5799                           	movlw	07Fh
  5800  007BB2  0E7F               	andwf	((c:___flmul@grs+3)),c,w
  5801  007BB4  144C               	movwf	3+(??___flmul+0+0)&0ffh,c
  5802  007BB6  6E47               	movf	(??___flmul+0+0),c,w
  5803  007BB8  5044               iorwf	(??___flmul+0+1),c,w
  5804  007BBA  1045               iorwf	(??___flmul+0+2),c,w
  5805  007BBC  1046               iorwf	(??___flmul+0+3),c,w
  5806  007BBE  1047               	btfsc	status,2
  5807  007BC0  B4D8               	goto	u2421
  5808  007BC2  EFE5  F03D         	goto	u2420
  5809  007BC6  EFE7  F03D         
  5810                           u2421:
  5811  007BCA                     	goto	l1127
  5812  007BCA  EFEB  F03D         u2420:
  5813  007BCE                     	line	166
  5814                           	
  5815                           l2324:
  5816  007BCE                     	movlw	low(01h)
  5817  007BCE  0E01               	movwf	((c:___flmul@aexp)),c
  5818  007BD0  6E4D               	line	167
  5819                           	goto	l1126
  5820  007BD2  EFF8  F03D         	line	168
  5821                           	
  5822                           l1127:
  5823  007BD6                     	line	169
  5824                           	
  5825                           	btfss	((c:___flmul@prod)),c,(0)&7
  5826  007BD6  A04F               	goto	u2431
  5827  007BD8  EFF0  F03D         	goto	u2430
  5828  007BDC  EFF2  F03D         u2431:
  5829  007BE0                     	goto	l1126
  5830  007BE0  EFF8  F03D         u2430:
  5831  007BE4                     	line	170
  5832                           	
  5833                           l2326:
  5834  007BE4                     	movlw	low(01h)
  5835  007BE4  0E01               	movwf	((c:___flmul@aexp)),c
  5836  007BE6  6E4D               	goto	l1126
  5837  007BE8  EFF8  F03D         	line	171
  5838                           	
  5839                           l1129:
  5840  007BEC                     	goto	l1126
  5841  007BEC  EFF8  F03D         	line	172
  5842                           	
  5843                           l1128:
  5844  007BF0                     	line	173
  5845                           	
  5846                           l1126:
  5847  007BF0                     	line	174
  5848                           	movf	((c:___flmul@aexp)),c,w
  5849  007BF0  504D               	btfsc	status,2
  5850  007BF2  B4D8               	goto	u2441
  5851  007BF4  EFFE  F03D         	goto	u2440
  5852  007BF8  EF00  F03E         u2441:
  5853  007BFC                     	goto	l2336
  5854  007BFC  EF28  F03E         u2440:
  5855  007C00                     	line	175
  5856                           	
  5857                           l2328:
  5858  007C00                     	movlw	low(01h)
  5859  007C00  0E01               	addwf	((c:___flmul@prod)),c
  5860  007C02  264F               	movlw	0
  5861  007C04  0E00               	addwfc	((c:___flmul@prod+1)),c
  5862  007C06  2250               	addwfc	((c:___flmul@prod+2)),c
  5863  007C08  2251               	addwfc	((c:___flmul@prod+3)),c
  5864  007C0A  2252               	line	176
  5865                           	
  5866                           l2330:
  5867  007C0C                     	
  5868                           	btfss	((c:___flmul@prod+3)),c,(24)&7
  5869  007C0C  A052               	goto	u2451
  5870  007C0E  EF0B  F03E         	goto	u2450
  5871  007C12  EF0D  F03E         u2451:
  5872  007C16                     	goto	l2336
  5873  007C16  EF28  F03E         u2450:
  5874  007C1A                     	line	177
  5875                           	
  5876                           l2332:
  5877  007C1A                     	movff	(c:___flmul@prod),??___flmul+0+0
  5878  007C1A  C04F  F044         	movff	(c:___flmul@prod+1),??___flmul+0+0+1
  5879  007C1E  C050  F045         	movff	(c:___flmul@prod+2),??___flmul+0+0+2
  5880  007C22  C051  F046         	movff	(c:___flmul@prod+3),??___flmul+0+0+3
  5881  007C26  C052  F047         	rlcf	(??___flmul+0+3),c,w
  5882  007C2A  3447               	rrcf	(??___flmul+0+3),c
  5883  007C2C  3247               	rrcf	(??___flmul+0+2),c
  5884  007C2E  3246               	rrcf	(??___flmul+0+1),c
  5885  007C30  3245               	rrcf	(??___flmul+0+0),c
  5886  007C32  3244               	movff	??___flmul+0+0,(c:___flmul@prod)
  5887  007C34  C044  F04F         	movff	??___flmul+0+1,(c:___flmul@prod+1)
  5888  007C38  C045  F050         	movff	??___flmul+0+2,(c:___flmul@prod+2)
  5889  007C3C  C046  F051         	movff	??___flmul+0+3,(c:___flmul@prod+3)
  5890  007C40  C047  F052         	line	178
  5891                           	
  5892                           l2334:
  5893  007C44                     	infsnz	((c:___flmul@temp)),c
  5894  007C44  4A53               	incf	((c:___flmul@temp+1)),c
  5895  007C46  2A54               	goto	l2336
  5896  007C48  EF28  F03E         	line	179
  5897                           	
  5898                           l1131:
  5899  007C4C                     	goto	l2336
  5900  007C4C  EF28  F03E         	line	180
  5901                           	
  5902                           l1130:
  5903  007C50                     	line	183
  5904                           	
  5905                           l2336:
  5906  007C50                     	btfsc	((c:___flmul@temp+1)),c,7
  5907  007C50  BE54               	goto	u2461
  5908  007C52  EF33  F03E         	movf	((c:___flmul@temp+1)),c,w
  5909  007C56  5054               	bnz	u2460
  5910  007C58  E108               	incf	((c:___flmul@temp)),c,w
  5911  007C5A  2853               	btfss	status,0
  5912  007C5C  A0D8               	goto	u2461
  5913  007C5E  EF33  F03E         	goto	u2460
  5914  007C62  EF35  F03E         
  5915                           u2461:
  5916  007C66                     	goto	l2340
  5917  007C66  EF3F  F03E         u2460:
  5918  007C6A                     	line	184
  5919                           	
  5920                           l2338:
  5921  007C6A                     	movlw	low(07F800000h)
  5922  007C6A  0E00               	movwf	((c:___flmul@prod)),c
  5923  007C6C  6E4F               	movlw	high(07F800000h)
  5924  007C6E  0E00               	movwf	((c:___flmul@prod+1)),c
  5925  007C70  6E50               	movlw	low highword(07F800000h)
  5926  007C72  0E80               	movwf	((c:___flmul@prod+2)),c
  5927  007C74  6E51               	movlw	high highword(07F800000h)
  5928  007C76  0E7F               	movwf	((c:___flmul@prod+3)),c
  5929  007C78  6E52               	line	185
  5930                           	goto	l2352
  5931  007C7A  EF73  F03E         	line	187
  5932                           	
  5933                           l1132:
  5934  007C7E                     	
  5935                           l2340:
  5936  007C7E                     	btfsc	((c:___flmul@temp+1)),c,7
  5937  007C7E  BE54               	goto	u2470
  5938  007C80  EF4C  F03E         	movf	((c:___flmul@temp+1)),c,w
  5939  007C84  5054               	bnz	u2471
  5940  007C86  E106               	decf	((c:___flmul@temp)),c,w
  5941  007C88  0453               	btfsc	status,0
  5942  007C8A  B0D8               	goto	u2471
  5943  007C8C  EF4A  F03E         	goto	u2470
  5944  007C90  EF4C  F03E         
  5945                           u2471:
  5946  007C94                     	goto	l1134
  5947  007C94  EF58  F03E         u2470:
  5948  007C98                     	line	188
  5949                           	
  5950                           l2342:
  5951  007C98                     	movlw	low(0)
  5952  007C98  0E00               	movwf	((c:___flmul@prod)),c
  5953  007C9A  6E4F               	movlw	high(0)
  5954  007C9C  0E00               	movwf	((c:___flmul@prod+1)),c
  5955  007C9E  6E50               	movlw	low highword(0)
  5956  007CA0  0E00               	movwf	((c:___flmul@prod+2)),c
  5957  007CA2  6E51               	movlw	high highword(0)
  5958  007CA4  0E00               	movwf	((c:___flmul@prod+3)),c
  5959  007CA6  6E52               	line	190
  5960                           	movlw	low(0)
  5961  007CA8  0E00               	movwf	((c:___flmul@sign)),c
  5962  007CAA  6E48               	line	191
  5963                           	goto	l2352
  5964  007CAC  EF73  F03E         	line	192
  5965                           	
  5966                           l1134:
  5967  007CB0                     	line	194
  5968                           	movff	(c:___flmul@temp),(c:___flmul@bexp)
  5969  007CB0  C053  F04E         	line	195
  5970                           	
  5971                           l2344:
  5972  007CB4                     	movlw	0FFh
  5973  007CB4  0EFF               	andwf	((c:___flmul@prod)),c
  5974  007CB6  164F               	movlw	0FFh
  5975  007CB8  0EFF               	andwf	((c:___flmul@prod+1)),c
  5976  007CBA  1650               	movlw	07Fh
  5977  007CBC  0E7F               	andwf	((c:___flmul@prod+2)),c
  5978  007CBE  1651               	movlw	0
  5979  007CC0  0E00               	andwf	((c:___flmul@prod+3)),c
  5980  007CC2  1652               	line	196
  5981                           	
  5982                           l2346:
  5983  007CC4                     	
  5984                           	btfss	((c:___flmul@bexp)),c,(0)&7
  5985  007CC4  A04E               	goto	u2481
  5986  007CC6  EF67  F03E         	goto	u2480
  5987  007CCA  EF69  F03E         u2481:
  5988  007CCE                     	goto	l2350
  5989  007CCE  EF6C  F03E         u2480:
  5990  007CD2                     	line	197
  5991                           	
  5992                           l2348:
  5993  007CD2                     	bsf	(0+(7/8)+0+((c:___flmul@prod)+02h)),c,(7)&7
  5994  007CD2  8E51               	goto	l2350
  5995  007CD4  EF6C  F03E         	line	198
  5996                           	
  5997                           l1136:
  5998  007CD8                     	line	199
  5999                           	
  6000                           l2350:
  6001  007CD8                     	bcf	status,0
  6002  007CD8  90D8               	rrcf	((c:___flmul@bexp)),c,w
  6003  007CDA  304E               	movwf	(0+((c:___flmul@prod)+03h)),c
  6004  007CDC  6E52               	goto	l2352
  6005  007CDE  EF73  F03E         	line	200
  6006                           	
  6007                           l1135:
  6008  007CE2                     	goto	l2352
  6009  007CE2  EF73  F03E         	
  6010                           l1133:
  6011  007CE6                     	line	201
  6012                           	
  6013                           l2352:
  6014  007CE6                     	movf	((c:___flmul@sign)),c,w
  6015  007CE6  5048               	iorwf	(0+((c:___flmul@prod)+03h)),c
  6016  007CE8  1252               	line	203
  6017                           	
  6018                           l2354:
  6019  007CEA                     	movff	(c:___flmul@prod),(c:?___flmul)
  6020  007CEA  C04F  F03C         	movff	(c:___flmul@prod+1),(c:?___flmul+1)
  6021  007CEE  C050  F03D         	movff	(c:___flmul@prod+2),(c:?___flmul+2)
  6022  007CF2  C051  F03E         	movff	(c:___flmul@prod+3),(c:?___flmul+3)
  6023  007CF6  C052  F03F         	goto	l1121
  6024  007CFA  EF7F  F03E         	
  6025                           l2356:
  6026  007CFE                     	line	205
  6027                           	
  6028                           l1121:
  6029  007CFE                     	return	;funcret
  6030  007CFE  0012               	opt stack 0
  6031                           GLOBAL	__end_of___flmul
  6032                           	__end_of___flmul:
  6033  007D00                     	signat	___flmul,8316
  6034                           	global	___fldiv
  6035                           
  6036 ;; *************** function ___fldiv *****************
  6037 ;; Defined at:
  6038 ;;		line 11 in file "C:\Program Files (x86)\Microchip\xc8\v2.00\pic\sources\c99\common\sprcdiv.c"
  6039 ;; Parameters:    Size  Location     Type
  6040 ;;  b               4   34[COMRAM] unsigned char 
  6041 ;;  a               4   38[COMRAM] unsigned char 
  6042 ;; Auto vars:     Size  Location     Type
  6043 ;;  grs             4   53[COMRAM] unsigned long 
  6044 ;;  rem             4   46[COMRAM] unsigned long 
  6045 ;;  new_exp         2   51[COMRAM] short 
  6046 ;;  aexp            1   58[COMRAM] unsigned char 
  6047 ;;  bexp            1   57[COMRAM] unsigned char 
  6048 ;;  sign            1   50[COMRAM] unsigned char 
  6049 ;; Return value:  Size  Location     Type
  6050 ;;                  4   34[COMRAM] unsigned char 
  6051 ;; Registers used:
  6052 ;;		wreg, status,2, status,0
  6053 ;; Tracked objects:
  6054 ;;		On entry : 0/0
  6055 ;;		On exit  : 0/0
  6056 ;;		Unchanged: 0/0
  6057 ;; Data sizes:     COMRAM   BANK0   BANK1   BANK2   BANK3   BANK4   BANK5   BANK6   BANK7
  6058 ;;      Params:         8       0       0       0       0       0       0       0       0
  6059 ;;      Locals:        13       0       0       0       0       0       0       0       0
  6060 ;;      Temps:          4       0       0       0       0       0       0       0       0
  6061 ;;      Totals:        25       0       0       0       0       0       0       0       0
  6062 ;;Total ram usage:       25 bytes
  6063 ;; Hardware stack levels used:    1
  6064 ;; Hardware stack levels required when called:    1
  6065 ;; This function calls:
  6066 ;;		Nothing
  6067 ;; This function is called by:
  6068 ;;		_analogWrite
  6069 ;;		_Frequency
  6070 ;;		_rescale
  6071 ;; This function uses a non-reentrant model
  6072 ;;
  6073                           psect	text14,class=CODE,space=0,reloc=2,group=1
  6074                           	file	"C:\Program Files (x86)\Microchip\xc8\v2.00\pic\sources\c99\common\sprcdiv.c"
  6075                           	line	11
  6076                           global __ptext14
  6077                           __ptext14:
  6078  007472                     psect	text14
  6079                           	file	"C:\Program Files (x86)\Microchip\xc8\v2.00\pic\sources\c99\common\sprcdiv.c"
  6080                           	line	11
  6081                           	global	__size_of___fldiv
  6082                           	__size_of___fldiv	equ	__end_of___fldiv-___fldiv
  6083  0000                     	
  6084                           ___fldiv:
  6085  007472                     ;incstack = 0
  6086                           	opt	stack 26
  6087                           	line	26
  6088                           	
  6089                           l2090:
  6090  007472                     	movf	(0+((c:___fldiv@b)+03h)),c,w
  6091  007472  5026               	andlw	low(080h)
  6092  007474  0B80               	movwf	((c:___fldiv@sign)),c
  6093  007476  6E33               	line	27
  6094                           	movf	(0+((c:___fldiv@b)+03h)),c,w
  6095  007478  5026               	addwf	(0+((c:___fldiv@b)+03h)),c,w
  6096  00747A  2426               	movwf	((c:___fldiv@bexp)),c
  6097  00747C  6E3A               	line	28
  6098                           	
  6099                           l2092:
  6100  00747E                     	
  6101                           	btfss	(0+((c:___fldiv@b)+02h)),c,(7)&7
  6102  00747E  AE25               	goto	u2071
  6103  007480  EF44  F03A         	goto	u2070
  6104  007484  EF46  F03A         u2071:
  6105  007488                     	goto	l2096
  6106  007488  EF49  F03A         u2070:
  6107  00748C                     	line	29
  6108                           	
  6109                           l2094:
  6110  00748C                     	bsf	(0+(0/8)+(c:___fldiv@bexp)),c,(0)&7
  6111  00748C  803A               	goto	l2096
  6112  00748E  EF49  F03A         	line	30
  6113                           	
  6114                           l1076:
  6115  007492                     	line	33
  6116                           	
  6117                           l2096:
  6118  007492                     	movf	((c:___fldiv@bexp)),c,w
  6119  007492  503A               	btfsc	status,2
  6120  007494  B4D8               	goto	u2081
  6121  007496  EF4F  F03A         	goto	u2080
  6122  00749A  EF51  F03A         u2081:
  6123  00749E                     	goto	l2106
  6124  00749E  EF68  F03A         u2080:
  6125  0074A2                     	line	35
  6126                           	
  6127                           l2098:
  6128  0074A2                     		incf	((c:___fldiv@bexp)),c,w
  6129  0074A2  283A               	btfss	status,2
  6130  0074A4  A4D8               	goto	u2091
  6131  0074A6  EF57  F03A         	goto	u2090
  6132  0074AA  EF59  F03A         
  6133                           u2091:
  6134  0074AE                     	goto	l2102
  6135  0074AE  EF63  F03A         u2090:
  6136  0074B2                     	line	37
  6137                           	
  6138                           l2100:
  6139  0074B2                     	movlw	low(normalize32(0x0))
  6140  0074B2  0E00               	movwf	((c:___fldiv@b)),c
  6141  0074B4  6E23               	movlw	high(normalize32(0x0))
  6142  0074B6  0E00               	movwf	((c:___fldiv@b+1)),c
  6143  0074B8  6E24               	movlw	low highword(normalize32(0x0))
  6144  0074BA  0E00               	movwf	((c:___fldiv@b+2)),c
  6145  0074BC  6E25               	movlw	high highword(normalize32(0x0))
  6146  0074BE  0E00               	movwf	((c:___fldiv@b+3)),c
  6147  0074C0  6E26               	goto	l2102
  6148  0074C2  EF63  F03A         	line	38
  6149                           	
  6150                           l1078:
  6151  0074C6                     	line	40
  6152                           	
  6153                           l2102:
  6154  0074C6                     	bsf	(0+(23/8)+(c:___fldiv@b)),c,(23)&7
  6155  0074C6  8E25               	line	42
  6156                           	
  6157                           l2104:
  6158  0074C8                     	movlw	low(0)
  6159  0074C8  0E00               	movwf	(0+((c:___fldiv@b)+03h)),c
  6160  0074CA  6E26               	line	43
  6161                           	goto	l2108
  6162  0074CC  EF72  F03A         	line	44
  6163                           	
  6164                           l1077:
  6165  0074D0                     	line	46
  6166                           	
  6167                           l2106:
  6168  0074D0                     	movlw	low(normalize32(0x0))
  6169  0074D0  0E00               	movwf	((c:___fldiv@b)),c
  6170  0074D2  6E23               	movlw	high(normalize32(0x0))
  6171  0074D4  0E00               	movwf	((c:___fldiv@b+1)),c
  6172  0074D6  6E24               	movlw	low highword(normalize32(0x0))
  6173  0074D8  0E00               	movwf	((c:___fldiv@b+2)),c
  6174  0074DA  6E25               	movlw	high highword(normalize32(0x0))
  6175  0074DC  0E00               	movwf	((c:___fldiv@b+3)),c
  6176  0074DE  6E26               	goto	l2108
  6177  0074E0  EF72  F03A         	line	47
  6178                           	
  6179                           l1079:
  6180  0074E4                     	line	49
  6181                           	
  6182                           l2108:
  6183  0074E4                     	movf	(0+((c:___fldiv@a)+03h)),c,w
  6184  0074E4  502A               	andlw	low(080h)
  6185  0074E6  0B80               	xorwf	((c:___fldiv@sign)),c
  6186  0074E8  1A33               	line	50
  6187                           	
  6188                           l2110:
  6189  0074EA                     	movf	(0+((c:___fldiv@a)+03h)),c,w
  6190  0074EA  502A               	addwf	(0+((c:___fldiv@a)+03h)),c,w
  6191  0074EC  242A               	movwf	((c:___fldiv@aexp)),c
  6192  0074EE  6E3B               	line	51
  6193                           	
  6194                           l2112:
  6195  0074F0                     	
  6196                           	btfss	(0+((c:___fldiv@a)+02h)),c,(7)&7
  6197  0074F0  AE29               	goto	u2101
  6198  0074F2  EF7D  F03A         	goto	u2100
  6199  0074F6  EF7F  F03A         u2101:
  6200  0074FA                     	goto	l2116
  6201  0074FA  EF82  F03A         u2100:
  6202  0074FE                     	line	52
  6203                           	
  6204                           l2114:
  6205  0074FE                     	bsf	(0+(0/8)+(c:___fldiv@aexp)),c,(0)&7
  6206  0074FE  803B               	goto	l2116
  6207  007500  EF82  F03A         	line	53
  6208                           	
  6209                           l1080:
  6210  007504                     	line	56
  6211                           	
  6212                           l2116:
  6213  007504                     	movf	((c:___fldiv@aexp)),c,w
  6214  007504  503B               	btfsc	status,2
  6215  007506  B4D8               	goto	u2111
  6216  007508  EF88  F03A         	goto	u2110
  6217  00750C  EF8A  F03A         u2111:
  6218  007510                     	goto	l2126
  6219  007510  EFA1  F03A         u2110:
  6220  007514                     	line	58
  6221                           	
  6222                           l2118:
  6223  007514                     		incf	((c:___fldiv@aexp)),c,w
  6224  007514  283B               	btfss	status,2
  6225  007516  A4D8               	goto	u2121
  6226  007518  EF90  F03A         	goto	u2120
  6227  00751C  EF92  F03A         
  6228                           u2121:
  6229  007520                     	goto	l2122
  6230  007520  EF9C  F03A         u2120:
  6231  007524                     	line	60
  6232                           	
  6233                           l2120:
  6234  007524                     	movlw	low(normalize32(0x0))
  6235  007524  0E00               	movwf	((c:___fldiv@a)),c
  6236  007526  6E27               	movlw	high(normalize32(0x0))
  6237  007528  0E00               	movwf	((c:___fldiv@a+1)),c
  6238  00752A  6E28               	movlw	low highword(normalize32(0x0))
  6239  00752C  0E00               	movwf	((c:___fldiv@a+2)),c
  6240  00752E  6E29               	movlw	high highword(normalize32(0x0))
  6241  007530  0E00               	movwf	((c:___fldiv@a+3)),c
  6242  007532  6E2A               	goto	l2122
  6243  007534  EF9C  F03A         	line	61
  6244                           	
  6245                           l1082:
  6246  007538                     	line	63
  6247                           	
  6248                           l2122:
  6249  007538                     	bsf	(0+(23/8)+(c:___fldiv@a)),c,(23)&7
  6250  007538  8E29               	line	65
  6251                           	
  6252                           l2124:
  6253  00753A                     	movlw	low(0)
  6254  00753A  0E00               	movwf	(0+((c:___fldiv@a)+03h)),c
  6255  00753C  6E2A               	line	66
  6256                           	goto	l2128
  6257  00753E  EFAB  F03A         	line	67
  6258                           	
  6259                           l1081:
  6260  007542                     	line	69
  6261                           	
  6262                           l2126:
  6263  007542                     	movlw	low(normalize32(0x0))
  6264  007542  0E00               	movwf	((c:___fldiv@a)),c
  6265  007544  6E27               	movlw	high(normalize32(0x0))
  6266  007546  0E00               	movwf	((c:___fldiv@a+1)),c
  6267  007548  6E28               	movlw	low highword(normalize32(0x0))
  6268  00754A  0E00               	movwf	((c:___fldiv@a+2)),c
  6269  00754C  6E29               	movlw	high highword(normalize32(0x0))
  6270  00754E  0E00               	movwf	((c:___fldiv@a+3)),c
  6271  007550  6E2A               	goto	l2128
  6272  007552  EFAB  F03A         	line	70
  6273                           	
  6274                           l1083:
  6275  007556                     	line	75
  6276                           	
  6277                           l2128:
  6278  007556                     	movf	((c:___fldiv@a)),c,w
  6279  007556  5027               iorwf	((c:___fldiv@a+1)),c,w
  6280  007558  1028               iorwf	((c:___fldiv@a+2)),c,w
  6281  00755A  1029               iorwf	((c:___fldiv@a+3)),c,w
  6282  00755C  102A               	btfss	status,2
  6283  00755E  A4D8               	goto	u2131
  6284  007560  EFB4  F03A         	goto	u2130
  6285  007564  EFB6  F03A         
  6286                           u2131:
  6287  007568                     	goto	l2140
  6288  007568  EFD0  F03A         u2130:
  6289  00756C                     	line	76
  6290                           	
  6291                           l2130:
  6292  00756C                     	movlw	low(0)
  6293  00756C  0E00               	movwf	((c:___fldiv@b)),c
  6294  00756E  6E23               	movlw	high(0)
  6295  007570  0E00               	movwf	((c:___fldiv@b+1)),c
  6296  007572  6E24               	movlw	low highword(0)
  6297  007574  0E00               	movwf	((c:___fldiv@b+2)),c
  6298  007576  6E25               	movlw	high highword(0)
  6299  007578  0E00               	movwf	((c:___fldiv@b+3)),c
  6300  00757A  6E26               	line	77
  6301                           	
  6302                           l2132:
  6303  00757C                     	movlw	low(07F80h)
  6304  00757C  0E80               	iorwf	(0+((c:___fldiv@b)+02h)),c
  6305  00757E  1225               	movlw	high(07F80h)
  6306  007580  0E7F               	iorwf	(1+((c:___fldiv@b)+02h)),c
  6307  007582  1226               	line	78
  6308                           	
  6309                           l2134:
  6310  007584                     	movf	((c:___fldiv@sign)),c,w
  6311  007584  5033               	iorwf	(0+((c:___fldiv@b)+03h)),c
  6312  007586  1226               	line	79
  6313                           	
  6314                           l2136:
  6315  007588                     	movff	(c:___fldiv@b),(c:?___fldiv)
  6316  007588  C023  F023         	movff	(c:___fldiv@b+1),(c:?___fldiv+1)
  6317  00758C  C024  F024         	movff	(c:___fldiv@b+2),(c:?___fldiv+2)
  6318  007590  C025  F025         	movff	(c:___fldiv@b+3),(c:?___fldiv+3)
  6319  007594  C026  F026         	goto	l1085
  6320  007598  EF48  F03C         	
  6321                           l2138:
  6322  00759C                     	goto	l1085
  6323  00759C  EF48  F03C         	line	80
  6324                           	
  6325                           l1084:
  6326  0075A0                     	line	83
  6327                           	
  6328                           l2140:
  6329  0075A0                     	movf	((c:___fldiv@bexp)),c,w
  6330  0075A0  503A               	btfss	status,2
  6331  0075A2  A4D8               	goto	u2141
  6332  0075A4  EFD6  F03A         	goto	u2140
  6333  0075A8  EFD8  F03A         u2141:
  6334  0075AC                     	goto	l2148
  6335  0075AC  EFEC  F03A         u2140:
  6336  0075B0                     	line	84
  6337                           	
  6338                           l2142:
  6339  0075B0                     	movlw	low(0)
  6340  0075B0  0E00               	movwf	((c:___fldiv@b)),c
  6341  0075B2  6E23               	movlw	high(0)
  6342  0075B4  0E00               	movwf	((c:___fldiv@b+1)),c
  6343  0075B6  6E24               	movlw	low highword(0)
  6344  0075B8  0E00               	movwf	((c:___fldiv@b+2)),c
  6345  0075BA  6E25               	movlw	high highword(0)
  6346  0075BC  0E00               	movwf	((c:___fldiv@b+3)),c
  6347  0075BE  6E26               	line	85
  6348                           	
  6349                           l2144:
  6350  0075C0                     	movff	(c:___fldiv@b),(c:?___fldiv)
  6351  0075C0  C023  F023         	movff	(c:___fldiv@b+1),(c:?___fldiv+1)
  6352  0075C4  C024  F024         	movff	(c:___fldiv@b+2),(c:?___fldiv+2)
  6353  0075C8  C025  F025         	movff	(c:___fldiv@b+3),(c:?___fldiv+3)
  6354  0075CC  C026  F026         	goto	l1085
  6355  0075D0  EF48  F03C         	
  6356                           l2146:
  6357  0075D4                     	goto	l1085
  6358  0075D4  EF48  F03C         	line	86
  6359                           	
  6360                           l1086:
  6361  0075D8                     	line	89
  6362                           	
  6363                           l2148:
  6364  0075D8                     	movf	((c:___fldiv@aexp)),c,w
  6365  0075D8  503B               	movwf	(??___fldiv+0+0)&0ffh,c
  6366  0075DA  6E2B               	clrf	(??___fldiv+0+0+1)&0ffh,c
  6367  0075DC  6A2C               
  6368                           	comf	(??___fldiv+0+0),c
  6369  0075DE  1E2B               	comf	(??___fldiv+0+1),c
  6370  0075E0  1E2C               	infsnz	(??___fldiv+0+0),c
  6371  0075E2  4A2B               	incf	(??___fldiv+0+1),c
  6372  0075E4  2A2C               	movf	((c:___fldiv@bexp)),c,w
  6373  0075E6  503A               	movwf	(??___fldiv+2+0)&0ffh,c
  6374  0075E8  6E2D               	clrf	(??___fldiv+2+0+1)&0ffh,c
  6375  0075EA  6A2E               
  6376                           	movf	(??___fldiv+0+0),c,w
  6377  0075EC  502B               	addwf	(??___fldiv+2+0),c
  6378  0075EE  262D               	movf	(??___fldiv+0+1),c,w
  6379  0075F0  502C               	addwfc	(??___fldiv+2+1),c
  6380  0075F2  222E               	movlw	low(07Fh)
  6381  0075F4  0E7F               	addwf	(??___fldiv+2+0),c,w
  6382  0075F6  242D               	movwf	((c:___fldiv@new_exp)),c
  6383  0075F8  6E34               	movlw	high(07Fh)
  6384  0075FA  0E00               	addwfc	(??___fldiv+2+1),c,w
  6385  0075FC  202E               	movwf	1+((c:___fldiv@new_exp)),c
  6386  0075FE  6E35               	line	92
  6387                           	
  6388                           l2150:
  6389  007600                     	movff	(c:___fldiv@b),(c:___fldiv@rem)
  6390  007600  C023  F02F         	movff	(c:___fldiv@b+1),(c:___fldiv@rem+1)
  6391  007604  C024  F030         	movff	(c:___fldiv@b+2),(c:___fldiv@rem+2)
  6392  007608  C025  F031         	movff	(c:___fldiv@b+3),(c:___fldiv@rem+3)
  6393  00760C  C026  F032         	line	93
  6394                           	
  6395                           l2152:
  6396  007610                     	movlw	low(0)
  6397  007610  0E00               	movwf	((c:___fldiv@b)),c
  6398  007612  6E23               	movlw	high(0)
  6399  007614  0E00               	movwf	((c:___fldiv@b+1)),c
  6400  007616  6E24               	movlw	low highword(0)
  6401  007618  0E00               	movwf	((c:___fldiv@b+2)),c
  6402  00761A  6E25               	movlw	high highword(0)
  6403  00761C  0E00               	movwf	((c:___fldiv@b+3)),c
  6404  00761E  6E26               	line	94
  6405                           	
  6406                           l2154:
  6407  007620                     	movlw	low(0)
  6408  007620  0E00               	movwf	((c:___fldiv@grs)),c
  6409  007622  6E36               	movlw	high(0)
  6410  007624  0E00               	movwf	((c:___fldiv@grs+1)),c
  6411  007626  6E37               	movlw	low highword(0)
  6412  007628  0E00               	movwf	((c:___fldiv@grs+2)),c
  6413  00762A  6E38               	movlw	high highword(0)
  6414  00762C  0E00               	movwf	((c:___fldiv@grs+3)),c
  6415  00762E  6E39               	line	96
  6416                           	
  6417                           l2156:
  6418  007630                     	movlw	low(0)
  6419  007630  0E00               	movwf	((c:___fldiv@aexp)),c
  6420  007632  6E3B               	line	97
  6421                           	goto	l1087
  6422  007634  EF58  F03B         	
  6423                           l1088:
  6424  007638                     	line	100
  6425                           	
  6426                           l2158:
  6427  007638                     	movf	((c:___fldiv@aexp)),c,w
  6428  007638  503B               	btfsc	status,2
  6429  00763A  B4D8               	goto	u2151
  6430  00763C  EF22  F03B         	goto	u2150
  6431  007640  EF24  F03B         u2151:
  6432  007644                     	goto	l2166
  6433  007644  EF3D  F03B         u2150:
  6434  007648                     	line	101
  6435                           	
  6436                           l2160:
  6437  007648                     	bcf	status,0
  6438  007648  90D8               	rlcf	((c:___fldiv@rem)),c
  6439  00764A  362F               	rlcf	((c:___fldiv@rem+1)),c
  6440  00764C  3630               	rlcf	((c:___fldiv@rem+2)),c
  6441  00764E  3631               	rlcf	((c:___fldiv@rem+3)),c
  6442  007650  3632               	line	102
  6443                           	bcf	status,0
  6444  007652  90D8               	rlcf	((c:___fldiv@b)),c
  6445  007654  3623               	rlcf	((c:___fldiv@b+1)),c
  6446  007656  3624               	rlcf	((c:___fldiv@b+2)),c
  6447  007658  3625               	rlcf	((c:___fldiv@b+3)),c
  6448  00765A  3626               	line	103
  6449                           	
  6450                           l2162:
  6451  00765C                     	
  6452                           	btfss	((c:___fldiv@grs+3)),c,(31)&7
  6453  00765C  AE39               	goto	u2161
  6454  00765E  EF33  F03B         	goto	u2160
  6455  007662  EF35  F03B         u2161:
  6456  007666                     	goto	l1090
  6457  007666  EF36  F03B         u2160:
  6458  00766A                     	line	104
  6459                           	
  6460                           l2164:
  6461  00766A                     	bsf	(0+(0/8)+(c:___fldiv@b)),c,(0)&7
  6462  00766A  8023               	line	105
  6463                           	
  6464                           l1090:
  6465  00766C                     	line	106
  6466                           	bcf	status,0
  6467  00766C  90D8               	rlcf	((c:___fldiv@grs)),c
  6468  00766E  3636               	rlcf	((c:___fldiv@grs+1)),c
  6469  007670  3637               	rlcf	((c:___fldiv@grs+2)),c
  6470  007672  3638               	rlcf	((c:___fldiv@grs+3)),c
  6471  007674  3639               	goto	l2166
  6472  007676  EF3D  F03B         	line	107
  6473                           	
  6474                           l1089:
  6475  00767A                     	line	112
  6476                           	
  6477                           l2166:
  6478  00767A                     		movf	((c:___fldiv@a)),c,w
  6479  00767A  5027               	subwf	((c:___fldiv@rem)),c,w
  6480  00767C  5C2F               	movf	((c:___fldiv@a+1)),c,w
  6481  00767E  5028               	subwfb	((c:___fldiv@rem+1)),c,w
  6482  007680  5830               	movf	((c:___fldiv@a+2)),c,w
  6483  007682  5029               	subwfb	((c:___fldiv@rem+2)),c,w
  6484  007684  5831               	movf	((c:___fldiv@a+3)),c,w
  6485  007686  502A               	subwfb	((c:___fldiv@rem+3)),c,w
  6486  007688  5832               	btfss	status,0
  6487  00768A  A0D8               	goto	u2171
  6488  00768C  EF4A  F03B         	goto	u2170
  6489  007690  EF4C  F03B         
  6490                           u2171:
  6491  007694                     	goto	l2172
  6492  007694  EF57  F03B         u2170:
  6493  007698                     	line	115
  6494                           	
  6495                           l2168:
  6496  007698                     	bsf	(0+(30/8)+(c:___fldiv@grs)),c,(30)&7
  6497  007698  8C39               	line	116
  6498                           	
  6499                           l2170:
  6500  00769A                     	movf	((c:___fldiv@a)),c,w
  6501  00769A  5027               	subwf	((c:___fldiv@rem)),c
  6502  00769C  5E2F               	movf	((c:___fldiv@a+1)),c,w
  6503  00769E  5028               	subwfb	((c:___fldiv@rem+1)),c
  6504  0076A0  5A30               	movf	((c:___fldiv@a+2)),c,w
  6505  0076A2  5029               	subwfb	((c:___fldiv@rem+2)),c
  6506  0076A4  5A31               	movf	((c:___fldiv@a+3)),c,w
  6507  0076A6  502A               	subwfb	((c:___fldiv@rem+3)),c
  6508  0076A8  5A32               	goto	l2172
  6509  0076AA  EF57  F03B         	line	117
  6510                           	
  6511                           l1091:
  6512  0076AE                     	line	118
  6513                           	
  6514                           l2172:
  6515  0076AE                     	incf	((c:___fldiv@aexp)),c
  6516  0076AE  2A3B               	line	119
  6517                           	
  6518                           l1087:
  6519  0076B0                     	line	97
  6520                           		movlw	01Ah-1
  6521  0076B0  0E19               	cpfsgt	((c:___fldiv@aexp)),c
  6522  0076B2  643B               	goto	u2181
  6523  0076B4  EF5E  F03B         	goto	u2180
  6524  0076B8  EF60  F03B         
  6525                           u2181:
  6526  0076BC                     	goto	l2158
  6527  0076BC  EF1C  F03B         u2180:
  6528  0076C0                     	goto	l2174
  6529  0076C0  EF62  F03B         	
  6530                           l1092:
  6531  0076C4                     	line	122
  6532                           	
  6533                           l2174:
  6534  0076C4                     	movf	((c:___fldiv@rem)),c,w
  6535  0076C4  502F               iorwf	((c:___fldiv@rem+1)),c,w
  6536  0076C6  1030               iorwf	((c:___fldiv@rem+2)),c,w
  6537  0076C8  1031               iorwf	((c:___fldiv@rem+3)),c,w
  6538  0076CA  1032               	btfsc	status,2
  6539  0076CC  B4D8               	goto	u2191
  6540  0076CE  EF6B  F03B         	goto	u2190
  6541  0076D2  EF6D  F03B         
  6542                           u2191:
  6543  0076D6                     	goto	l2184
  6544  0076D6  EF89  F03B         u2190:
  6545  0076DA                     	line	123
  6546                           	
  6547                           l2176:
  6548  0076DA                     	bsf	(0+(0/8)+(c:___fldiv@grs)),c,(0)&7
  6549  0076DA  8036               	goto	l2184
  6550  0076DC  EF89  F03B         	line	124
  6551                           	
  6552                           l1093:
  6553  0076E0                     	line	127
  6554                           	goto	l2184
  6555  0076E0  EF89  F03B         	
  6556                           l1095:
  6557  0076E4                     	line	128
  6558                           	
  6559                           l2178:
  6560  0076E4                     	bcf	status,0
  6561  0076E4  90D8               	rlcf	((c:___fldiv@b)),c
  6562  0076E6  3623               	rlcf	((c:___fldiv@b+1)),c
  6563  0076E8  3624               	rlcf	((c:___fldiv@b+2)),c
  6564  0076EA  3625               	rlcf	((c:___fldiv@b+3)),c
  6565  0076EC  3626               	line	129
  6566                           	
  6567                           l2180:
  6568  0076EE                     	
  6569                           	btfss	((c:___fldiv@grs+3)),c,(31)&7
  6570  0076EE  AE39               	goto	u2201
  6571  0076F0  EF7C  F03B         	goto	u2200
  6572  0076F4  EF7E  F03B         u2201:
  6573  0076F8                     	goto	l1096
  6574  0076F8  EF7F  F03B         u2200:
  6575  0076FC                     	line	130
  6576                           	
  6577                           l2182:
  6578  0076FC                     	bsf	(0+(0/8)+(c:___fldiv@b)),c,(0)&7
  6579  0076FC  8023               	line	131
  6580                           	
  6581                           l1096:
  6582  0076FE                     	line	132
  6583                           	bcf	status,0
  6584  0076FE  90D8               	rlcf	((c:___fldiv@grs)),c
  6585  007700  3636               	rlcf	((c:___fldiv@grs+1)),c
  6586  007702  3637               	rlcf	((c:___fldiv@grs+2)),c
  6587  007704  3638               	rlcf	((c:___fldiv@grs+3)),c
  6588  007706  3639               	line	133
  6589                           	decf	((c:___fldiv@new_exp)),c
  6590  007708  0634               	btfss	status,0
  6591  00770A  A0D8               	decf	((c:___fldiv@new_exp+1)),c
  6592  00770C  0635               	goto	l2184
  6593  00770E  EF89  F03B         	line	134
  6594                           	
  6595                           l1094:
  6596  007712                     	line	127
  6597                           	
  6598                           l2184:
  6599  007712                     	
  6600                           	btfss	((c:___fldiv@b+2)),c,(23)&7
  6601  007712  AE25               	goto	u2211
  6602  007714  EF8E  F03B         	goto	u2210
  6603  007718  EF90  F03B         u2211:
  6604  00771C                     	goto	l2178
  6605  00771C  EF72  F03B         u2210:
  6606  007720                     	goto	l2186
  6607  007720  EF92  F03B         	
  6608                           l1097:
  6609  007724                     	line	139
  6610                           	
  6611                           l2186:
  6612  007724                     	movlw	low(0)
  6613  007724  0E00               	movwf	((c:___fldiv@aexp)),c
  6614  007726  6E3B               	line	140
  6615                           	
  6616                           l2188:
  6617  007728                     	
  6618                           	btfss	((c:___fldiv@grs+3)),c,(31)&7
  6619  007728  AE39               	goto	u2221
  6620  00772A  EF99  F03B         	goto	u2220
  6621  00772E  EF9B  F03B         u2221:
  6622  007732                     	goto	l1098
  6623  007732  EFC3  F03B         u2220:
  6624  007736                     	line	141
  6625                           	
  6626                           l2190:
  6627  007736                     	movlw	0FFh
  6628  007736  0EFF               	andwf	((c:___fldiv@grs)),c,w
  6629  007738  1436               	movwf	(??___fldiv+0+0)&0ffh,c
  6630  00773A  6E2B               	movlw	0FFh
  6631  00773C  0EFF               	andwf	((c:___fldiv@grs+1)),c,w
  6632  00773E  1437               	movwf	1+(??___fldiv+0+0)&0ffh,c
  6633  007740  6E2C               	
  6634                           	movlw	0FFh
  6635  007742  0EFF               	andwf	((c:___fldiv@grs+2)),c,w
  6636  007744  1438               	movwf	2+(??___fldiv+0+0)&0ffh,c
  6637  007746  6E2D               	
  6638                           	movlw	07Fh
  6639  007748  0E7F               	andwf	((c:___fldiv@grs+3)),c,w
  6640  00774A  1439               	movwf	3+(??___fldiv+0+0)&0ffh,c
  6641  00774C  6E2E               	movf	(??___fldiv+0+0),c,w
  6642  00774E  502B               iorwf	(??___fldiv+0+1),c,w
  6643  007750  102C               iorwf	(??___fldiv+0+2),c,w
  6644  007752  102D               iorwf	(??___fldiv+0+3),c,w
  6645  007754  102E               	btfsc	status,2
  6646  007756  B4D8               	goto	u2231
  6647  007758  EFB0  F03B         	goto	u2230
  6648  00775C  EFB2  F03B         
  6649                           u2231:
  6650  007760                     	goto	l1099
  6651  007760  EFB6  F03B         u2230:
  6652  007764                     	line	142
  6653                           	
  6654                           l2192:
  6655  007764                     	movlw	low(01h)
  6656  007764  0E01               	movwf	((c:___fldiv@aexp)),c
  6657  007766  6E3B               	line	143
  6658                           	goto	l1098
  6659  007768  EFC3  F03B         	line	144
  6660                           	
  6661                           l1099:
  6662  00776C                     	line	145
  6663                           	
  6664                           	btfss	((c:___fldiv@b)),c,(0)&7
  6665  00776C  A023               	goto	u2241
  6666  00776E  EFBB  F03B         	goto	u2240
  6667  007772  EFBD  F03B         u2241:
  6668  007776                     	goto	l1098
  6669  007776  EFC3  F03B         u2240:
  6670  00777A                     	line	146
  6671                           	
  6672                           l2194:
  6673  00777A                     	movlw	low(01h)
  6674  00777A  0E01               	movwf	((c:___fldiv@aexp)),c
  6675  00777C  6E3B               	goto	l1098
  6676  00777E  EFC3  F03B         	line	147
  6677                           	
  6678                           l1101:
  6679  007782                     	goto	l1098
  6680  007782  EFC3  F03B         	line	148
  6681                           	
  6682                           l1100:
  6683  007786                     	line	149
  6684                           	
  6685                           l1098:
  6686  007786                     	line	150
  6687                           	movf	((c:___fldiv@aexp)),c,w
  6688  007786  503B               	btfsc	status,2
  6689  007788  B4D8               	goto	u2251
  6690  00778A  EFC9  F03B         	goto	u2250
  6691  00778E  EFCB  F03B         u2251:
  6692  007792                     	goto	l2204
  6693  007792  EFF3  F03B         u2250:
  6694  007796                     	line	151
  6695                           	
  6696                           l2196:
  6697  007796                     	movlw	low(01h)
  6698  007796  0E01               	addwf	((c:___fldiv@b)),c
  6699  007798  2623               	movlw	0
  6700  00779A  0E00               	addwfc	((c:___fldiv@b+1)),c
  6701  00779C  2224               	addwfc	((c:___fldiv@b+2)),c
  6702  00779E  2225               	addwfc	((c:___fldiv@b+3)),c
  6703  0077A0  2226               	line	152
  6704                           	
  6705                           l2198:
  6706  0077A2                     	
  6707                           	btfss	((c:___fldiv@b+3)),c,(24)&7
  6708  0077A2  A026               	goto	u2261
  6709  0077A4  EFD6  F03B         	goto	u2260
  6710  0077A8  EFD8  F03B         u2261:
  6711  0077AC                     	goto	l2204
  6712  0077AC  EFF3  F03B         u2260:
  6713  0077B0                     	line	153
  6714                           	
  6715                           l2200:
  6716  0077B0                     	movff	(c:___fldiv@b),??___fldiv+0+0
  6717  0077B0  C023  F02B         	movff	(c:___fldiv@b+1),??___fldiv+0+0+1
  6718  0077B4  C024  F02C         	movff	(c:___fldiv@b+2),??___fldiv+0+0+2
  6719  0077B8  C025  F02D         	movff	(c:___fldiv@b+3),??___fldiv+0+0+3
  6720  0077BC  C026  F02E         	rlcf	(??___fldiv+0+3),c,w
  6721  0077C0  342E               	rrcf	(??___fldiv+0+3),c
  6722  0077C2  322E               	rrcf	(??___fldiv+0+2),c
  6723  0077C4  322D               	rrcf	(??___fldiv+0+1),c
  6724  0077C6  322C               	rrcf	(??___fldiv+0+0),c
  6725  0077C8  322B               	movff	??___fldiv+0+0,(c:___fldiv@b)
  6726  0077CA  C02B  F023         	movff	??___fldiv+0+1,(c:___fldiv@b+1)
  6727  0077CE  C02C  F024         	movff	??___fldiv+0+2,(c:___fldiv@b+2)
  6728  0077D2  C02D  F025         	movff	??___fldiv+0+3,(c:___fldiv@b+3)
  6729  0077D6  C02E  F026         	line	154
  6730                           	
  6731                           l2202:
  6732  0077DA                     	infsnz	((c:___fldiv@new_exp)),c
  6733  0077DA  4A34               	incf	((c:___fldiv@new_exp+1)),c
  6734  0077DC  2A35               	goto	l2204
  6735  0077DE  EFF3  F03B         	line	155
  6736                           	
  6737                           l1103:
  6738  0077E2                     	goto	l2204
  6739  0077E2  EFF3  F03B         	line	156
  6740                           	
  6741                           l1102:
  6742  0077E6                     	line	159
  6743                           	
  6744                           l2204:
  6745  0077E6                     	btfsc	((c:___fldiv@new_exp+1)),c,7
  6746  0077E6  BE35               	goto	u2271
  6747  0077E8  EFFE  F03B         	movf	((c:___fldiv@new_exp+1)),c,w
  6748  0077EC  5035               	bnz	u2270
  6749  0077EE  E108               	incf	((c:___fldiv@new_exp)),c,w
  6750  0077F0  2834               	btfss	status,0
  6751  0077F2  A0D8               	goto	u2271
  6752  0077F4  EFFE  F03B         	goto	u2270
  6753  0077F8  EF00  F03C         
  6754                           u2271:
  6755  0077FC                     	goto	l2208
  6756  0077FC  EF0D  F03C         u2270:
  6757  007800                     	line	160
  6758                           	
  6759                           l2206:
  6760  007800                     	movlw	high(0FFh)
  6761  007800  0E00               	movwf	((c:___fldiv@new_exp+1)),c
  6762  007802  6E35               	setf	((c:___fldiv@new_exp)),c
  6763  007804  6834               	line	161
  6764                           	movlw	low(0)
  6765  007806  0E00               	movwf	((c:___fldiv@b)),c
  6766  007808  6E23               	movlw	high(0)
  6767  00780A  0E00               	movwf	((c:___fldiv@b+1)),c
  6768  00780C  6E24               	movlw	low highword(0)
  6769  00780E  0E00               	movwf	((c:___fldiv@b+2)),c
  6770  007810  6E25               	movlw	high highword(0)
  6771  007812  0E00               	movwf	((c:___fldiv@b+3)),c
  6772  007814  6E26               	goto	l2208
  6773  007816  EF0D  F03C         	line	162
  6774                           	
  6775                           l1104:
  6776  00781A                     	line	165
  6777                           	
  6778                           l2208:
  6779  00781A                     	btfsc	((c:___fldiv@new_exp+1)),c,7
  6780  00781A  BE35               	goto	u2280
  6781  00781C  EF1A  F03C         	movf	((c:___fldiv@new_exp+1)),c,w
  6782  007820  5035               	bnz	u2281
  6783  007822  E106               	decf	((c:___fldiv@new_exp)),c,w
  6784  007824  0434               	btfsc	status,0
  6785  007826  B0D8               	goto	u2281
  6786  007828  EF18  F03C         	goto	u2280
  6787  00782C  EF1A  F03C         
  6788                           u2281:
  6789  007830                     	goto	l2212
  6790  007830  EF2A  F03C         u2280:
  6791  007834                     	line	166
  6792                           	
  6793                           l2210:
  6794  007834                     	movlw	high(0)
  6795  007834  0E00               	movwf	((c:___fldiv@new_exp+1)),c
  6796  007836  6E35               	movlw	low(0)
  6797  007838  0E00               	movwf	((c:___fldiv@new_exp)),c
  6798  00783A  6E34               	line	167
  6799                           	movlw	low(0)
  6800  00783C  0E00               	movwf	((c:___fldiv@b)),c
  6801  00783E  6E23               	movlw	high(0)
  6802  007840  0E00               	movwf	((c:___fldiv@b+1)),c
  6803  007842  6E24               	movlw	low highword(0)
  6804  007844  0E00               	movwf	((c:___fldiv@b+2)),c
  6805  007846  6E25               	movlw	high highword(0)
  6806  007848  0E00               	movwf	((c:___fldiv@b+3)),c
  6807  00784A  6E26               	line	169
  6808                           	movlw	low(0)
  6809  00784C  0E00               	movwf	((c:___fldiv@sign)),c
  6810  00784E  6E33               	goto	l2212
  6811  007850  EF2A  F03C         	line	170
  6812                           	
  6813                           l1105:
  6814  007854                     	line	173
  6815                           	
  6816                           l2212:
  6817  007854                     	movff	(c:___fldiv@new_exp),(c:___fldiv@bexp)
  6818  007854  C034  F03A         	line	175
  6819                           	
  6820                           l2214:
  6821  007858                     	
  6822                           	btfss	((c:___fldiv@bexp)),c,(0)&7
  6823  007858  A03A               	goto	u2291
  6824  00785A  EF31  F03C         	goto	u2290
  6825  00785E  EF33  F03C         u2291:
  6826  007862                     	goto	l2218
  6827  007862  EF36  F03C         u2290:
  6828  007866                     	line	176
  6829                           	
  6830                           l2216:
  6831  007866                     	bsf	(0+(7/8)+0+((c:___fldiv@b)+02h)),c,(7)&7
  6832  007866  8E25               	line	177
  6833                           	goto	l2220
  6834  007868  EF39  F03C         	line	179
  6835                           	
  6836                           l1106:
  6837  00786C                     	line	180
  6838                           	
  6839                           l2218:
  6840  00786C                     	bcf	(0+(7/8)+0+((c:___fldiv@b)+02h)),c,(7)&7
  6841  00786C  9E25               	goto	l2220
  6842  00786E  EF39  F03C         	line	181
  6843                           	
  6844                           l1107:
  6845  007872                     	line	182
  6846                           	
  6847                           l2220:
  6848  007872                     	bcf	status,0
  6849  007872  90D8               	rrcf	((c:___fldiv@bexp)),c,w
  6850  007874  303A               	movwf	(0+((c:___fldiv@b)+03h)),c
  6851  007876  6E26               	line	183
  6852                           	
  6853                           l2222:
  6854  007878                     	movf	((c:___fldiv@sign)),c,w
  6855  007878  5033               	iorwf	(0+((c:___fldiv@b)+03h)),c
  6856  00787A  1226               	line	184
  6857                           	
  6858                           l2224:
  6859  00787C                     	movff	(c:___fldiv@b),(c:?___fldiv)
  6860  00787C  C023  F023         	movff	(c:___fldiv@b+1),(c:?___fldiv+1)
  6861  007880  C024  F024         	movff	(c:___fldiv@b+2),(c:?___fldiv+2)
  6862  007884  C025  F025         	movff	(c:___fldiv@b+3),(c:?___fldiv+3)
  6863  007888  C026  F026         	goto	l1085
  6864  00788C  EF48  F03C         	
  6865                           l2226:
  6866  007890                     	line	185
  6867                           	
  6868                           l1085:
  6869  007890                     	return	;funcret
  6870  007890  0012               	opt stack 0
  6871                           GLOBAL	__end_of___fldiv
  6872                           	__end_of___fldiv:
  6873  007892                     	signat	___fldiv,8316
  6874                           	global	_PWM_Max_Duty
  6875                           
  6876 ;; *************** function _PWM_Max_Duty *****************
  6877 ;; Defined at:
  6878 ;;		line 475 in file "main.c"
  6879 ;; Parameters:    Size  Location     Type
  6880 ;;		None
  6881 ;; Auto vars:     Size  Location     Type
  6882 ;;		None
  6883 ;; Return value:  Size  Location     Type
  6884 ;;                  2   14[COMRAM] int 
  6885 ;; Registers used:
  6886 ;;		wreg, status,2, status,0, cstack
  6887 ;; Tracked objects:
  6888 ;;		On entry : 0/0
  6889 ;;		On exit  : 0/0
  6890 ;;		Unchanged: 0/0
  6891 ;; Data sizes:     COMRAM   BANK0   BANK1   BANK2   BANK3   BANK4   BANK5   BANK6   BANK7
  6892 ;;      Params:         2       0       0       0       0       0       0       0       0
  6893 ;;      Locals:         0       0       0       0       0       0       0       0       0
  6894 ;;      Temps:          4       0       0       0       0       0       0       0       0
  6895 ;;      Totals:         6       0       0       0       0       0       0       0       0
  6896 ;;Total ram usage:        6 bytes
  6897 ;; Hardware stack levels used:    1
  6898 ;; Hardware stack levels required when called:    2
  6899 ;; This function calls:
  6900 ;;		___aldiv
  6901 ;; This function is called by:
  6902 ;;		_analogWrite
  6903 ;; This function uses a non-reentrant model
  6904 ;;
  6905                           psect	text15,class=CODE,space=0,reloc=2,group=0
  6906                           	file	"main.c"
  6907                           	line	475
  6908                           global __ptext15
  6909                           __ptext15:
  6910  006418                     psect	text15
  6911                           	file	"main.c"
  6912                           	line	475
  6913                           	global	__size_of_PWM_Max_Duty
  6914                           	__size_of_PWM_Max_Duty	equ	__end_of_PWM_Max_Duty-_PWM_Max_Duty
  6915  0000                     	
  6916                           _PWM_Max_Duty:
  6917  006418                     ;incstack = 0
  6918                           	opt	stack 25
  6919                           	line	477
  6920                           	
  6921                           l2086:
  6922  006418                     ;main.c: 477:     return (24000000 / (freq * 16));
  6923                           	movlw	low(016E3600h)
  6924  006418  0E00               	movwf	((c:___aldiv@dividend)),c
  6925  00641A  6E01               	movlw	high(016E3600h)
  6926  00641C  0E36               	movwf	((c:___aldiv@dividend+1)),c
  6927  00641E  6E02               	movlw	low highword(016E3600h)
  6928  006420  0E6E               	movwf	((c:___aldiv@dividend+2)),c
  6929  006422  6E03               	movlw	high highword(016E3600h)
  6930  006424  0E01               	movwf	((c:___aldiv@dividend+3)),c
  6931  006426  6E04               	movff	(_freq),??_PWM_Max_Duty+0+0
  6932  006428  C070  F011         	movff	(_freq+1),??_PWM_Max_Duty+0+0+1
  6933  00642C  C071  F012         	movff	(_freq+2),??_PWM_Max_Duty+0+0+2
  6934  006430  C072  F013         	movff	(_freq+3),??_PWM_Max_Duty+0+0+3
  6935  006434  C073  F014         	movlw	04h
  6936  006438  0E04               u2065:
  6937  00643A                     	bcf	status,0
  6938  00643A  90D8               	rlcf	(??_PWM_Max_Duty+0+0),c
  6939  00643C  3611               	rlcf	(??_PWM_Max_Duty+0+1),c
  6940  00643E  3612               	rlcf	(??_PWM_Max_Duty+0+2),c
  6941  006440  3613               	rlcf	(??_PWM_Max_Duty+0+3),c
  6942  006442  3614               	decfsz	wreg
  6943  006444  2EE8               	goto	u2065
  6944  006446  EF1D  F032         	movff	??_PWM_Max_Duty+0+0,(c:___aldiv@divisor)
  6945  00644A  C011  F005         	movff	??_PWM_Max_Duty+0+1,(c:___aldiv@divisor+1)
  6946  00644E  C012  F006         	movff	??_PWM_Max_Duty+0+2,(c:___aldiv@divisor+2)
  6947  006452  C013  F007         	movff	??_PWM_Max_Duty+0+3,(c:___aldiv@divisor+3)
  6948  006456  C014  F008         	call	___aldiv	;wreg free
  6949  00645A  EC40  F033         	movff	0+?___aldiv,(c:?_PWM_Max_Duty)
  6950  00645E  C001  F00F         	movff	1+?___aldiv,(c:?_PWM_Max_Duty+1)
  6951  006462  C002  F010         	goto	l347
  6952  006466  EF35  F032         	
  6953                           l2088:
  6954  00646A                     	line	478
  6955                           	
  6956                           l347:
  6957  00646A                     	return	;funcret
  6958  00646A  0012               	opt stack 0
  6959                           GLOBAL	__end_of_PWM_Max_Duty
  6960                           	__end_of_PWM_Max_Duty:
  6961  00646C                     	signat	_PWM_Max_Duty,90
  6962                           	global	_M2Adelante
  6963                           
  6964 ;; *************** function _M2Adelante *****************
  6965 ;; Defined at:
  6966 ;;		line 60 in file "application.c"
  6967 ;; Parameters:    Size  Location     Type
  6968 ;;		None
  6969 ;; Auto vars:     Size  Location     Type
  6970 ;;		None
  6971 ;; Return value:  Size  Location     Type
  6972 ;;                  1    wreg      void 
  6973 ;; Registers used:
  6974 ;;		wreg, status,2, status,0, cstack
  6975 ;; Tracked objects:
  6976 ;;		On entry : 0/0
  6977 ;;		On exit  : 0/0
  6978 ;;		Unchanged: 0/0
  6979 ;; Data sizes:     COMRAM   BANK0   BANK1   BANK2   BANK3   BANK4   BANK5   BANK6   BANK7
  6980 ;;      Params:         0       0       0       0       0       0       0       0       0
  6981 ;;      Locals:         0       0       0       0       0       0       0       0       0
  6982 ;;      Temps:          0       0       0       0       0       0       0       0       0
  6983 ;;      Totals:         0       0       0       0       0       0       0       0       0
  6984 ;;Total ram usage:        0 bytes
  6985 ;; Hardware stack levels used:    1
  6986 ;; Hardware stack levels required when called:    2
  6987 ;; This function calls:
  6988 ;;		_digitalWrite
  6989 ;; This function is called by:
  6990 ;;		_RobotAdelante
  6991 ;;		_RobotCW
  6992 ;; This function uses a non-reentrant model
  6993 ;;
  6994                           psect	text16,class=CODE,space=0,reloc=2,group=0
  6995                           	file	"application.c"
  6996                           	line	60
  6997                           global __ptext16
  6998                           __ptext16:
  6999  0062BA                     psect	text16
  7000                           	file	"application.c"
  7001                           	line	60
  7002                           	global	__size_of_M2Adelante
  7003                           	__size_of_M2Adelante	equ	__end_of_M2Adelante-_M2Adelante
  7004  0000                     	
  7005                           _M2Adelante:
  7006  0062BA                     ;incstack = 0
  7007                           	opt	stack 26
  7008                           	line	62
  7009                           	
  7010                           l2494:
  7011  0062BA                     ;application.c: 62:  digitalWrite(control3,1);
  7012                           	movlw	low(01h)
  7013  0062BA  0E01               	movwf	((c:digitalWrite@mode)),c
  7014  0062BC  6E01               	movlb	0	; () banked
  7015  0062BE  0100               	movf	((_control3))&0ffh,w
  7016  0062C0  5164               	
  7017                           	call	_digitalWrite
  7018  0062C2  EC7F  F036         	line	63
  7019                           ;application.c: 63:  digitalWrite(control4,0);
  7020                           	movlw	low(0)
  7021  0062C6  0E00               	movwf	((c:digitalWrite@mode)),c
  7022  0062C8  6E01               	movlb	0	; () banked
  7023  0062CA  0100               	movf	((_control4))&0ffh,w
  7024  0062CC  5163               	
  7025                           	call	_digitalWrite
  7026  0062CE  EC7F  F036         	line	64
  7027                           	
  7028                           l473:
  7029  0062D2                     	return	;funcret
  7030  0062D2  0012               	opt stack 0
  7031                           GLOBAL	__end_of_M2Adelante
  7032                           	__end_of_M2Adelante:
  7033  0062D4                     	signat	_M2Adelante,89
  7034                           	global	_M1Adelante
  7035                           
  7036 ;; *************** function _M1Adelante *****************
  7037 ;; Defined at:
  7038 ;;		line 48 in file "application.c"
  7039 ;; Parameters:    Size  Location     Type
  7040 ;;		None
  7041 ;; Auto vars:     Size  Location     Type
  7042 ;;		None
  7043 ;; Return value:  Size  Location     Type
  7044 ;;                  1    wreg      void 
  7045 ;; Registers used:
  7046 ;;		wreg, status,2, status,0, cstack
  7047 ;; Tracked objects:
  7048 ;;		On entry : 0/0
  7049 ;;		On exit  : 0/0
  7050 ;;		Unchanged: 0/0
  7051 ;; Data sizes:     COMRAM   BANK0   BANK1   BANK2   BANK3   BANK4   BANK5   BANK6   BANK7
  7052 ;;      Params:         0       0       0       0       0       0       0       0       0
  7053 ;;      Locals:         0       0       0       0       0       0       0       0       0
  7054 ;;      Temps:          0       0       0       0       0       0       0       0       0
  7055 ;;      Totals:         0       0       0       0       0       0       0       0       0
  7056 ;;Total ram usage:        0 bytes
  7057 ;; Hardware stack levels used:    1
  7058 ;; Hardware stack levels required when called:    2
  7059 ;; This function calls:
  7060 ;;		_digitalWrite
  7061 ;; This function is called by:
  7062 ;;		_RobotAdelante
  7063 ;;		_RobotCCW
  7064 ;; This function uses a non-reentrant model
  7065 ;;
  7066                           psect	text17,class=CODE,space=0,reloc=2,group=0
  7067                           	line	48
  7068                           global __ptext17
  7069                           __ptext17:
  7070  0062A0                     psect	text17
  7071                           	file	"application.c"
  7072                           	line	48
  7073                           	global	__size_of_M1Adelante
  7074                           	__size_of_M1Adelante	equ	__end_of_M1Adelante-_M1Adelante
  7075  0000                     	
  7076                           _M1Adelante:
  7077  0062A0                     ;incstack = 0
  7078                           	opt	stack 26
  7079                           	line	50
  7080                           	
  7081                           l2490:
  7082  0062A0                     ;application.c: 50:  digitalWrite(control1,1);
  7083                           	movlw	low(01h)
  7084  0062A0  0E01               	movwf	((c:digitalWrite@mode)),c
  7085  0062A2  6E01               	movlb	0	; () banked
  7086  0062A4  0100               	movf	((_control1))&0ffh,w
  7087  0062A6  5166               	
  7088                           	call	_digitalWrite
  7089  0062A8  EC7F  F036         	line	51
  7090                           ;application.c: 51:  digitalWrite(control2,0);
  7091                           	movlw	low(0)
  7092  0062AC  0E00               	movwf	((c:digitalWrite@mode)),c
  7093  0062AE  6E01               	movlb	0	; () banked
  7094  0062B0  0100               	movf	((_control2))&0ffh,w
  7095  0062B2  5165               	
  7096                           	call	_digitalWrite
  7097  0062B4  EC7F  F036         	line	52
  7098                           	
  7099                           l467:
  7100  0062B8                     	return	;funcret
  7101  0062B8  0012               	opt stack 0
  7102                           GLOBAL	__end_of_M1Adelante
  7103                           	__end_of_M1Adelante:
  7104  0062BA                     	signat	_M1Adelante,89
  7105                           	global	_digitalWrite
  7106                           
  7107 ;; *************** function _digitalWrite *****************
  7108 ;; Defined at:
  7109 ;;		line 130 in file "main.c"
  7110 ;; Parameters:    Size  Location     Type
  7111 ;;  pin             1    wreg     unsigned char 
  7112 ;;  mode            1    0[COMRAM] unsigned char 
  7113 ;; Auto vars:     Size  Location     Type
  7114 ;;  pin             1    3[COMRAM] unsigned char 
  7115 ;; Return value:  Size  Location     Type
  7116 ;;                  1    wreg      void 
  7117 ;; Registers used:
  7118 ;;		wreg, status,2, status,0
  7119 ;; Tracked objects:
  7120 ;;		On entry : 0/0
  7121 ;;		On exit  : 0/0
  7122 ;;		Unchanged: 0/0
  7123 ;; Data sizes:     COMRAM   BANK0   BANK1   BANK2   BANK3   BANK4   BANK5   BANK6   BANK7
  7124 ;;      Params:         1       0       0       0       0       0       0       0       0
  7125 ;;      Locals:         1       0       0       0       0       0       0       0       0
  7126 ;;      Temps:          2       0       0       0       0       0       0       0       0
  7127 ;;      Totals:         4       0       0       0       0       0       0       0       0
  7128 ;;Total ram usage:        4 bytes
  7129 ;; Hardware stack levels used:    1
  7130 ;; Hardware stack levels required when called:    1
  7131 ;; This function calls:
  7132 ;;		Nothing
  7133 ;; This function is called by:
  7134 ;;		_M1Adelante
  7135 ;;		_M1Atras
  7136 ;;		_M2Adelante
  7137 ;;		_M2Atras
  7138 ;;		_Hola_Mundo
  7139 ;; This function uses a non-reentrant model
  7140 ;;
  7141                           psect	text18,class=CODE,space=0,reloc=2,group=0
  7142                           	file	"main.c"
  7143                           	line	130
  7144                           global __ptext18
  7145                           __ptext18:
  7146  006CFE                     psect	text18
  7147                           	file	"main.c"
  7148                           	line	130
  7149                           	global	__size_of_digitalWrite
  7150                           	__size_of_digitalWrite	equ	__end_of_digitalWrite-_digitalWrite
  7151  0000                     	
  7152                           _digitalWrite:
  7153  006CFE                     ;incstack = 0
  7154                           	opt	stack 26
  7155                           ;digitalWrite@pin stored from wreg
  7156                           	movwf	((c:digitalWrite@pin)),c
  7157  006CFE  6E04               	line	132
  7158                           	
  7159                           l2076:
  7160  006D00                     ;main.c: 130: void digitalWrite(char pin, char mode);main.c: 131: {;main.c: 132:     swi
                                 tch(pin)
  7161                           	goto	l2080
  7162  006D00  EF25  F037         	line	134
  7163                           ;main.c: 133:     {;main.c: 134:        case 0:
  7164                           	
  7165                           l205:
  7166  006D04                     	line	135
  7167                           ;main.c: 135:            LATAbits.LA4 = mode;
  7168                           	btfsc	(c:digitalWrite@mode),c,0
  7169  006D04  B001               	bra	u1835
  7170  006D06  D002               	bcf	((c:3977)),c,4	;volatile
  7171  006D08  9889               	bra	u1836
  7172  006D0A  D001               	u1835:
  7173  006D0C                     	bsf	((c:3977)),c,4	;volatile
  7174  006D0C  8889               	u1836:
  7175  006D0E                     
  7176                           	line	136
  7177                           ;main.c: 136:             break;
  7178                           	goto	l229
  7179  006D0E  EF8E  F037         	line	137
  7180                           ;main.c: 137:         case 1:
  7181                           	
  7182                           l207:
  7183  006D12                     	line	138
  7184                           ;main.c: 138:             LATAbits.LA5 = mode;
  7185                           	btfsc	(c:digitalWrite@mode),c,0
  7186  006D12  B001               	bra	u1845
  7187  006D14  D002               	bcf	((c:3977)),c,5	;volatile
  7188  006D16  9A89               	bra	u1846
  7189  006D18  D001               	u1845:
  7190  006D1A                     	bsf	((c:3977)),c,5	;volatile
  7191  006D1A  8A89               	u1846:
  7192  006D1C                     
  7193                           	line	139
  7194                           ;main.c: 139:             break;
  7195                           	goto	l229
  7196  006D1C  EF8E  F037         	line	140
  7197                           ;main.c: 140:         case 2:
  7198                           	
  7199                           l208:
  7200  006D20                     	line	141
  7201                           ;main.c: 141:             LATCbits.LC0 = mode;
  7202                           	btfsc	(c:digitalWrite@mode),c,0
  7203  006D20  B001               	bra	u1855
  7204  006D22  D002               	bcf	((c:3979)),c,0	;volatile
  7205  006D24  908B               	bra	u1856
  7206  006D26  D001               	u1855:
  7207  006D28                     	bsf	((c:3979)),c,0	;volatile
  7208  006D28  808B               	u1856:
  7209  006D2A                     
  7210                           	line	142
  7211                           ;main.c: 142:             break;
  7212                           	goto	l229
  7213  006D2A  EF8E  F037         	line	143
  7214                           ;main.c: 143:         case 3:
  7215                           	
  7216                           l209:
  7217  006D2E                     	line	144
  7218                           ;main.c: 144:             LATCbits.LC1 = mode;
  7219                           	btfsc	(c:digitalWrite@mode),c,0
  7220  006D2E  B001               	bra	u1865
  7221  006D30  D002               	bcf	((c:3979)),c,1	;volatile
  7222  006D32  928B               	bra	u1866
  7223  006D34  D001               	u1865:
  7224  006D36                     	bsf	((c:3979)),c,1	;volatile
  7225  006D36  828B               	u1866:
  7226  006D38                     
  7227                           	line	145
  7228                           ;main.c: 145:             break;
  7229                           	goto	l229
  7230  006D38  EF8E  F037         	line	146
  7231                           ;main.c: 146:         case 4:
  7232                           	
  7233                           l210:
  7234  006D3C                     	line	147
  7235                           ;main.c: 147:             LATCbits.LC2 = mode;
  7236                           	btfsc	(c:digitalWrite@mode),c,0
  7237  006D3C  B001               	bra	u1875
  7238  006D3E  D002               	bcf	((c:3979)),c,2	;volatile
  7239  006D40  948B               	bra	u1876
  7240  006D42  D001               	u1875:
  7241  006D44                     	bsf	((c:3979)),c,2	;volatile
  7242  006D44  848B               	u1876:
  7243  006D46                     
  7244                           	line	148
  7245                           ;main.c: 148:             break;
  7246                           	goto	l229
  7247  006D46  EF8E  F037         	line	149
  7248                           ;main.c: 149:         case 5:
  7249                           	
  7250                           l211:
  7251  006D4A                     	line	150
  7252                           ;main.c: 150:             LATDbits.LD0 = mode;
  7253                           	btfsc	(c:digitalWrite@mode),c,0
  7254  006D4A  B001               	bra	u1885
  7255  006D4C  D002               	bcf	((c:3980)),c,0	;volatile
  7256  006D4E  908C               	bra	u1886
  7257  006D50  D001               	u1885:
  7258  006D52                     	bsf	((c:3980)),c,0	;volatile
  7259  006D52  808C               	u1886:
  7260  006D54                     
  7261                           	line	151
  7262                           ;main.c: 151:             break;
  7263                           	goto	l229
  7264  006D54  EF8E  F037         	line	152
  7265                           ;main.c: 152:         case 6:
  7266                           	
  7267                           l212:
  7268  006D58                     	line	153
  7269                           ;main.c: 153:             LATDbits.LD1 = mode;
  7270                           	btfsc	(c:digitalWrite@mode),c,0
  7271  006D58  B001               	bra	u1895
  7272  006D5A  D002               	bcf	((c:3980)),c,1	;volatile
  7273  006D5C  928C               	bra	u1896
  7274  006D5E  D001               	u1895:
  7275  006D60                     	bsf	((c:3980)),c,1	;volatile
  7276  006D60  828C               	u1896:
  7277  006D62                     
  7278                           	line	154
  7279                           ;main.c: 154:             break;
  7280                           	goto	l229
  7281  006D62  EF8E  F037         	line	155
  7282                           ;main.c: 155:         case 7:
  7283                           	
  7284                           l213:
  7285  006D66                     	line	156
  7286                           ;main.c: 156:             LATDbits.LD2 = mode;
  7287                           	btfsc	(c:digitalWrite@mode),c,0
  7288  006D66  B001               	bra	u1905
  7289  006D68  D002               	bcf	((c:3980)),c,2	;volatile
  7290  006D6A  948C               	bra	u1906
  7291  006D6C  D001               	u1905:
  7292  006D6E                     	bsf	((c:3980)),c,2	;volatile
  7293  006D6E  848C               	u1906:
  7294  006D70                     
  7295                           	line	157
  7296                           ;main.c: 157:             break;
  7297                           	goto	l229
  7298  006D70  EF8E  F037         	line	158
  7299                           ;main.c: 158:         case 8:
  7300                           	
  7301                           l214:
  7302  006D74                     	line	159
  7303                           ;main.c: 159:             LATDbits.LD3 = mode;
  7304                           	btfsc	(c:digitalWrite@mode),c,0
  7305  006D74  B001               	bra	u1915
  7306  006D76  D002               	bcf	((c:3980)),c,3	;volatile
  7307  006D78  968C               	bra	u1916
  7308  006D7A  D001               	u1915:
  7309  006D7C                     	bsf	((c:3980)),c,3	;volatile
  7310  006D7C  868C               	u1916:
  7311  006D7E                     
  7312                           	line	160
  7313                           ;main.c: 160:             break;
  7314                           	goto	l229
  7315  006D7E  EF8E  F037         	line	161
  7316                           ;main.c: 161:         case 9:
  7317                           	
  7318                           l215:
  7319  006D82                     	line	162
  7320                           ;main.c: 162:             LATCbits.LC6 = mode;
  7321                           	btfsc	(c:digitalWrite@mode),c,0
  7322  006D82  B001               	bra	u1925
  7323  006D84  D002               	bcf	((c:3979)),c,6	;volatile
  7324  006D86  9C8B               	bra	u1926
  7325  006D88  D001               	u1925:
  7326  006D8A                     	bsf	((c:3979)),c,6	;volatile
  7327  006D8A  8C8B               	u1926:
  7328  006D8C                     
  7329                           	line	163
  7330                           ;main.c: 163:             break;
  7331                           	goto	l229
  7332  006D8C  EF8E  F037         	line	164
  7333                           ;main.c: 164:         case 10:
  7334                           	
  7335                           l216:
  7336  006D90                     	line	165
  7337                           ;main.c: 165:             LATCbits.LC7 = mode;
  7338                           	btfsc	(c:digitalWrite@mode),c,0
  7339  006D90  B001               	bra	u1935
  7340  006D92  D002               	bcf	((c:3979)),c,7	;volatile
  7341  006D94  9E8B               	bra	u1936
  7342  006D96  D001               	u1935:
  7343  006D98                     	bsf	((c:3979)),c,7	;volatile
  7344  006D98  8E8B               	u1936:
  7345  006D9A                     
  7346                           	line	166
  7347                           ;main.c: 166:             break;
  7348                           	goto	l229
  7349  006D9A  EF8E  F037         	line	167
  7350                           ;main.c: 167:         case 11:
  7351                           	
  7352                           l217:
  7353  006D9E                     	line	168
  7354                           ;main.c: 168:             LATDbits.LD4 = mode;
  7355                           	btfsc	(c:digitalWrite@mode),c,0
  7356  006D9E  B001               	bra	u1945
  7357  006DA0  D002               	bcf	((c:3980)),c,4	;volatile
  7358  006DA2  988C               	bra	u1946
  7359  006DA4  D001               	u1945:
  7360  006DA6                     	bsf	((c:3980)),c,4	;volatile
  7361  006DA6  888C               	u1946:
  7362  006DA8                     
  7363                           	line	169
  7364                           ;main.c: 169:             break;
  7365                           	goto	l229
  7366  006DA8  EF8E  F037         	line	170
  7367                           ;main.c: 170:         case 12:
  7368                           	
  7369                           l218:
  7370  006DAC                     	line	171
  7371                           ;main.c: 171:             LATDbits.LD5 = mode;
  7372                           	btfsc	(c:digitalWrite@mode),c,0
  7373  006DAC  B001               	bra	u1955
  7374  006DAE  D002               	bcf	((c:3980)),c,5	;volatile
  7375  006DB0  9A8C               	bra	u1956
  7376  006DB2  D001               	u1955:
  7377  006DB4                     	bsf	((c:3980)),c,5	;volatile
  7378  006DB4  8A8C               	u1956:
  7379  006DB6                     
  7380                           	line	172
  7381                           ;main.c: 172:             break;
  7382                           	goto	l229
  7383  006DB6  EF8E  F037         	line	173
  7384                           ;main.c: 173:         case 13:
  7385                           	
  7386                           l219:
  7387  006DBA                     	line	174
  7388                           ;main.c: 174:             LATDbits.LD6 = mode;
  7389                           	btfsc	(c:digitalWrite@mode),c,0
  7390  006DBA  B001               	bra	u1965
  7391  006DBC  D002               	bcf	((c:3980)),c,6	;volatile
  7392  006DBE  9C8C               	bra	u1966
  7393  006DC0  D001               	u1965:
  7394  006DC2                     	bsf	((c:3980)),c,6	;volatile
  7395  006DC2  8C8C               	u1966:
  7396  006DC4                     
  7397                           	line	175
  7398                           ;main.c: 175:             break;
  7399                           	goto	l229
  7400  006DC4  EF8E  F037         	line	176
  7401                           ;main.c: 176:         case 14:
  7402                           	
  7403                           l220:
  7404  006DC8                     	line	177
  7405                           ;main.c: 177:             LATDbits.LD7 = mode;
  7406                           	btfsc	(c:digitalWrite@mode),c,0
  7407  006DC8  B001               	bra	u1975
  7408  006DCA  D002               	bcf	((c:3980)),c,7	;volatile
  7409  006DCC  9E8C               	bra	u1976
  7410  006DCE  D001               	u1975:
  7411  006DD0                     	bsf	((c:3980)),c,7	;volatile
  7412  006DD0  8E8C               	u1976:
  7413  006DD2                     
  7414                           	line	178
  7415                           ;main.c: 178:             break;
  7416                           	goto	l229
  7417  006DD2  EF8E  F037         	line	179
  7418                           ;main.c: 179:         case 15:
  7419                           	
  7420                           l221:
  7421  006DD6                     	line	180
  7422                           ;main.c: 180:             LATBbits.LB0 = mode;
  7423                           	btfsc	(c:digitalWrite@mode),c,0
  7424  006DD6  B001               	bra	u1985
  7425  006DD8  D002               	bcf	((c:3978)),c,0	;volatile
  7426  006DDA  908A               	bra	u1986
  7427  006DDC  D001               	u1985:
  7428  006DDE                     	bsf	((c:3978)),c,0	;volatile
  7429  006DDE  808A               	u1986:
  7430  006DE0                     
  7431                           	line	181
  7432                           ;main.c: 181:             break;
  7433                           	goto	l229
  7434  006DE0  EF8E  F037         	line	182
  7435                           ;main.c: 182:         case 16:
  7436                           	
  7437                           l222:
  7438  006DE4                     	line	183
  7439                           ;main.c: 183:             LATBbits.LB1 = mode;
  7440                           	btfsc	(c:digitalWrite@mode),c,0
  7441  006DE4  B001               	bra	u1995
  7442  006DE6  D002               	bcf	((c:3978)),c,1	;volatile
  7443  006DE8  928A               	bra	u1996
  7444  006DEA  D001               	u1995:
  7445  006DEC                     	bsf	((c:3978)),c,1	;volatile
  7446  006DEC  828A               	u1996:
  7447  006DEE                     
  7448                           	line	184
  7449                           ;main.c: 184:             break;
  7450                           	goto	l229
  7451  006DEE  EF8E  F037         	line	185
  7452                           ;main.c: 185:         case 17:
  7453                           	
  7454                           l223:
  7455  006DF2                     	line	186
  7456                           ;main.c: 186:             LATBbits.LB2 = mode;
  7457                           	btfsc	(c:digitalWrite@mode),c,0
  7458  006DF2  B001               	bra	u2005
  7459  006DF4  D002               	bcf	((c:3978)),c,2	;volatile
  7460  006DF6  948A               	bra	u2006
  7461  006DF8  D001               	u2005:
  7462  006DFA                     	bsf	((c:3978)),c,2	;volatile
  7463  006DFA  848A               	u2006:
  7464  006DFC                     
  7465                           	line	187
  7466                           ;main.c: 187:             break;
  7467                           	goto	l229
  7468  006DFC  EF8E  F037         	line	188
  7469                           ;main.c: 188:         case 18:
  7470                           	
  7471                           l224:
  7472  006E00                     	line	189
  7473                           ;main.c: 189:             LATBbits.LB3 = mode;
  7474                           	btfsc	(c:digitalWrite@mode),c,0
  7475  006E00  B001               	bra	u2015
  7476  006E02  D002               	bcf	((c:3978)),c,3	;volatile
  7477  006E04  968A               	bra	u2016
  7478  006E06  D001               	u2015:
  7479  006E08                     	bsf	((c:3978)),c,3	;volatile
  7480  006E08  868A               	u2016:
  7481  006E0A                     
  7482                           	line	190
  7483                           ;main.c: 190:             break;
  7484                           	goto	l229
  7485  006E0A  EF8E  F037         	line	191
  7486                           ;main.c: 191:         case 19:
  7487                           	
  7488                           l225:
  7489  006E0E                     	line	192
  7490                           ;main.c: 192:             LATBbits.LB4 = mode;
  7491                           	btfsc	(c:digitalWrite@mode),c,0
  7492  006E0E  B001               	bra	u2025
  7493  006E10  D002               	bcf	((c:3978)),c,4	;volatile
  7494  006E12  988A               	bra	u2026
  7495  006E14  D001               	u2025:
  7496  006E16                     	bsf	((c:3978)),c,4	;volatile
  7497  006E16  888A               	u2026:
  7498  006E18                     
  7499                           	line	193
  7500                           ;main.c: 193:             break;
  7501                           	goto	l229
  7502  006E18  EF8E  F037         	line	194
  7503                           ;main.c: 194:         case 20:
  7504                           	
  7505                           l226:
  7506  006E1C                     	line	195
  7507                           ;main.c: 195:             LATBbits.LB5 = mode;
  7508                           	btfsc	(c:digitalWrite@mode),c,0
  7509  006E1C  B001               	bra	u2035
  7510  006E1E  D002               	bcf	((c:3978)),c,5	;volatile
  7511  006E20  9A8A               	bra	u2036
  7512  006E22  D001               	u2035:
  7513  006E24                     	bsf	((c:3978)),c,5	;volatile
  7514  006E24  8A8A               	u2036:
  7515  006E26                     
  7516                           	line	196
  7517                           ;main.c: 196:             break;
  7518                           	goto	l229
  7519  006E26  EF8E  F037         	line	197
  7520                           ;main.c: 197:         case 21:
  7521                           	
  7522                           l227:
  7523  006E2A                     	line	198
  7524                           ;main.c: 198:             LATBbits.LB6 = mode;
  7525                           	btfsc	(c:digitalWrite@mode),c,0
  7526  006E2A  B001               	bra	u2045
  7527  006E2C  D002               	bcf	((c:3978)),c,6	;volatile
  7528  006E2E  9C8A               	bra	u2046
  7529  006E30  D001               	u2045:
  7530  006E32                     	bsf	((c:3978)),c,6	;volatile
  7531  006E32  8C8A               	u2046:
  7532  006E34                     
  7533                           	line	199
  7534                           ;main.c: 199:             break;
  7535                           	goto	l229
  7536  006E34  EF8E  F037         	line	200
  7537                           ;main.c: 200:         case 22:
  7538                           	
  7539                           l228:
  7540  006E38                     	line	201
  7541                           ;main.c: 201:             LATBbits.LB7 = mode;
  7542                           	btfsc	(c:digitalWrite@mode),c,0
  7543  006E38  B001               	bra	u2055
  7544  006E3A  D002               	bcf	((c:3978)),c,7	;volatile
  7545  006E3C  9E8A               	bra	u2056
  7546  006E3E  D001               	u2055:
  7547  006E40                     	bsf	((c:3978)),c,7	;volatile
  7548  006E40  8E8A               	u2056:
  7549  006E42                     
  7550                           	line	202
  7551                           ;main.c: 202:             break;
  7552                           	goto	l229
  7553  006E42  EF8E  F037         	line	203
  7554                           	
  7555                           l2078:
  7556  006E46                     ;main.c: 203:     }
  7557                           	goto	l229
  7558  006E46  EF8E  F037         	
  7559                           l204:
  7560  006E4A                     	
  7561                           l2080:
  7562  006E4A                     	movf	((c:digitalWrite@pin)),c,w
  7563  006E4A  5004               	movwf	(??_digitalWrite+0+0)&0ffh,c
  7564  006E4C  6E02               	clrf	(??_digitalWrite+0+0+1)&0ffh,c
  7565  006E4E  6A03               
  7566                           	; Switch on 2 bytes has been partitioned into a top level switch of size 1, and 1 sub-s
                                 witches
  7567                           ; Switch size 1, requested type "space"
  7568                           ; Number of cases is 1, Range of values is 0 to 0
  7569                           ; switch strategies available:
  7570                           ; Name         Instructions Cycles
  7571                           ; simple_byte            4     3 (average)
  7572                           ;	Chosen strategy is simple_byte
  7573                           
  7574                           	movf ??_digitalWrite+0+1,c,w
  7575  006E50  5003               	xorlw	0^0	; case 0
  7576  006E52  0A00               	skipnz
  7577  006E54  B4D8               	goto	l3022
  7578  006E56  EF2F  F037         	goto	l229
  7579  006E5A  EF8E  F037         	
  7580                           l3022:
  7581  006E5E                     ; Switch size 1, requested type "space"
  7582                           ; Number of cases is 23, Range of values is 0 to 22
  7583                           ; switch strategies available:
  7584                           ; Name         Instructions Cycles
  7585                           ; simple_byte           70    36 (average)
  7586                           ;	Chosen strategy is simple_byte
  7587                           
  7588                           	movf ??_digitalWrite+0+0,c,w
  7589  006E5E  5002               	xorlw	0^0	; case 0
  7590  006E60  0A00               	skipnz
  7591  006E62  B4D8               	goto	l205
  7592  006E64  EF82  F036         	xorlw	1^0	; case 1
  7593  006E68  0A01               	skipnz
  7594  006E6A  B4D8               	goto	l207
  7595  006E6C  EF89  F036         	xorlw	2^1	; case 2
  7596  006E70  0A03               	skipnz
  7597  006E72  B4D8               	goto	l208
  7598  006E74  EF90  F036         	xorlw	3^2	; case 3
  7599  006E78  0A01               	skipnz
  7600  006E7A  B4D8               	goto	l209
  7601  006E7C  EF97  F036         	xorlw	4^3	; case 4
  7602  006E80  0A07               	skipnz
  7603  006E82  B4D8               	goto	l210
  7604  006E84  EF9E  F036         	xorlw	5^4	; case 5
  7605  006E88  0A01               	skipnz
  7606  006E8A  B4D8               	goto	l211
  7607  006E8C  EFA5  F036         	xorlw	6^5	; case 6
  7608  006E90  0A03               	skipnz
  7609  006E92  B4D8               	goto	l212
  7610  006E94  EFAC  F036         	xorlw	7^6	; case 7
  7611  006E98  0A01               	skipnz
  7612  006E9A  B4D8               	goto	l213
  7613  006E9C  EFB3  F036         	xorlw	8^7	; case 8
  7614  006EA0  0A0F               	skipnz
  7615  006EA2  B4D8               	goto	l214
  7616  006EA4  EFBA  F036         	xorlw	9^8	; case 9
  7617  006EA8  0A01               	skipnz
  7618  006EAA  B4D8               	goto	l215
  7619  006EAC  EFC1  F036         	xorlw	10^9	; case 10
  7620  006EB0  0A03               	skipnz
  7621  006EB2  B4D8               	goto	l216
  7622  006EB4  EFC8  F036         	xorlw	11^10	; case 11
  7623  006EB8  0A01               	skipnz
  7624  006EBA  B4D8               	goto	l217
  7625  006EBC  EFCF  F036         	xorlw	12^11	; case 12
  7626  006EC0  0A07               	skipnz
  7627  006EC2  B4D8               	goto	l218
  7628  006EC4  EFD6  F036         	xorlw	13^12	; case 13
  7629  006EC8  0A01               	skipnz
  7630  006ECA  B4D8               	goto	l219
  7631  006ECC  EFDD  F036         	xorlw	14^13	; case 14
  7632  006ED0  0A03               	skipnz
  7633  006ED2  B4D8               	goto	l220
  7634  006ED4  EFE4  F036         	xorlw	15^14	; case 15
  7635  006ED8  0A01               	skipnz
  7636  006EDA  B4D8               	goto	l221
  7637  006EDC  EFEB  F036         	xorlw	16^15	; case 16
  7638  006EE0  0A1F               	skipnz
  7639  006EE2  B4D8               	goto	l222
  7640  006EE4  EFF2  F036         	xorlw	17^16	; case 17
  7641  006EE8  0A01               	skipnz
  7642  006EEA  B4D8               	goto	l223
  7643  006EEC  EFF9  F036         	xorlw	18^17	; case 18
  7644  006EF0  0A03               	skipnz
  7645  006EF2  B4D8               	goto	l224
  7646  006EF4  EF00  F037         	xorlw	19^18	; case 19
  7647  006EF8  0A01               	skipnz
  7648  006EFA  B4D8               	goto	l225
  7649  006EFC  EF07  F037         	xorlw	20^19	; case 20
  7650  006F00  0A07               	skipnz
  7651  006F02  B4D8               	goto	l226
  7652  006F04  EF0E  F037         	xorlw	21^20	; case 21
  7653  006F08  0A01               	skipnz
  7654  006F0A  B4D8               	goto	l227
  7655  006F0C  EF15  F037         	xorlw	22^21	; case 22
  7656  006F10  0A03               	skipnz
  7657  006F12  B4D8               	goto	l228
  7658  006F14  EF1C  F037         	goto	l229
  7659  006F18  EF8E  F037         
  7660                           	
  7661                           l206:
  7662  006F1C                     	line	204
  7663                           	
  7664                           l229:
  7665  006F1C                     	return	;funcret
  7666  006F1C  0012               	opt stack 0
  7667                           GLOBAL	__end_of_digitalWrite
  7668                           	__end_of_digitalWrite:
  7669  006F1E                     	signat	_digitalWrite,8313
  7670                           	global	_configuracionInicial
  7671                           
  7672 ;; *************** function _configuracionInicial *****************
  7673 ;; Defined at:
  7674 ;;		line 25 in file "main.c"
  7675 ;; Parameters:    Size  Location     Type
  7676 ;;		None
  7677 ;; Auto vars:     Size  Location     Type
  7678 ;;		None
  7679 ;; Return value:  Size  Location     Type
  7680 ;;                  1    wreg      void 
  7681 ;; Registers used:
  7682 ;;		wreg, status,2, status,0, cstack
  7683 ;; Tracked objects:
  7684 ;;		On entry : 0/0
  7685 ;;		On exit  : 0/0
  7686 ;;		Unchanged: 0/0
  7687 ;; Data sizes:     COMRAM   BANK0   BANK1   BANK2   BANK3   BANK4   BANK5   BANK6   BANK7
  7688 ;;      Params:         0       0       0       0       0       0       0       0       0
  7689 ;;      Locals:         0       0       0       0       0       0       0       0       0
  7690 ;;      Temps:          0       0       0       0       0       0       0       0       0
  7691 ;;      Totals:         0       0       0       0       0       0       0       0       0
  7692 ;;Total ram usage:        0 bytes
  7693 ;; Hardware stack levels used:    1
  7694 ;; Hardware stack levels required when called:    4
  7695 ;; This function calls:
  7696 ;;		_ADCConfig
  7697 ;;		_CCPConfig
  7698 ;;		_PORTSConfiguration
  7699 ;;		_TMR0Config
  7700 ;;		_TMR1Config
  7701 ;; This function is called by:
  7702 ;;		_main
  7703 ;; This function uses a non-reentrant model
  7704 ;;
  7705                           psect	text19,class=CODE,space=0,reloc=2,group=0
  7706                           	line	25
  7707                           global __ptext19
  7708                           __ptext19:
  7709  00628A                     psect	text19
  7710                           	file	"main.c"
  7711                           	line	25
  7712                           	global	__size_of_configuracionInicial
  7713                           	__size_of_configuracionInicial	equ	__end_of_configuracionInicial-_configuracionInicial

  7714  0000                     	
  7715                           _configuracionInicial:
  7716  00628A                     ;incstack = 0
  7717                           	opt	stack 26
  7718                           	line	27
  7719                           	
  7720                           l2600:
  7721  00628A                     ;main.c: 27:     ADCConfig();
  7722                           	call	_ADCConfig	;wreg free
  7723  00628A  EC3A  F031         	line	28
  7724                           	
  7725                           l2602:
  7726  00628E                     ;main.c: 28:     CCPConfig();
  7727                           	call	_CCPConfig	;wreg free
  7728  00628E  ECD5  F031         	line	29
  7729                           	
  7730                           l2604:
  7731  006292                     ;main.c: 29:     PORTSConfiguration();
  7732                           	call	_PORTSConfiguration	;wreg free
  7733  006292  EC30  F031         	line	30
  7734                           	
  7735                           l2606:
  7736  006296                     ;main.c: 30:     TMR0Config();
  7737                           	call	_TMR0Config	;wreg free
  7738  006296  EC1C  F031         	line	31
  7739                           	
  7740                           l2608:
  7741  00629A                     ;main.c: 31:     TMR1Config();
  7742                           	call	_TMR1Config	;wreg free
  7743  00629A  EC1D  F031         	line	32
  7744                           	
  7745                           l161:
  7746  00629E                     	return	;funcret
  7747  00629E  0012               	opt stack 0
  7748                           GLOBAL	__end_of_configuracionInicial
  7749                           	__end_of_configuracionInicial:
  7750  0062A0                     	signat	_configuracionInicial,89
  7751                           	global	_TMR1Config
  7752                           
  7753 ;; *************** function _TMR1Config *****************
  7754 ;; Defined at:
  7755 ;;		line 401 in file "main.c"
  7756 ;; Parameters:    Size  Location     Type
  7757 ;;		None
  7758 ;; Auto vars:     Size  Location     Type
  7759 ;;		None
  7760 ;; Return value:  Size  Location     Type
  7761 ;;                  1    wreg      void 
  7762 ;; Registers used:
  7763 ;;		wreg, status,2
  7764 ;; Tracked objects:
  7765 ;;		On entry : 0/0
  7766 ;;		On exit  : 0/0
  7767 ;;		Unchanged: 0/0
  7768 ;; Data sizes:     COMRAM   BANK0   BANK1   BANK2   BANK3   BANK4   BANK5   BANK6   BANK7
  7769 ;;      Params:         0       0       0       0       0       0       0       0       0
  7770 ;;      Locals:         0       0       0       0       0       0       0       0       0
  7771 ;;      Temps:          0       0       0       0       0       0       0       0       0
  7772 ;;      Totals:         0       0       0       0       0       0       0       0       0
  7773 ;;Total ram usage:        0 bytes
  7774 ;; Hardware stack levels used:    1
  7775 ;; Hardware stack levels required when called:    1
  7776 ;; This function calls:
  7777 ;;		Nothing
  7778 ;; This function is called by:
  7779 ;;		_configuracionInicial
  7780 ;; This function uses a non-reentrant model
  7781 ;;
  7782                           psect	text20,class=CODE,space=0,reloc=2,group=0
  7783                           	line	401
  7784                           global __ptext20
  7785                           __ptext20:
  7786  00623A                     psect	text20
  7787                           	file	"main.c"
  7788                           	line	401
  7789                           	global	__size_of_TMR1Config
  7790                           	__size_of_TMR1Config	equ	__end_of_TMR1Config-_TMR1Config
  7791  0000                     	
  7792                           _TMR1Config:
  7793  00623A                     ;incstack = 0
  7794                           	opt	stack 28
  7795                           	line	403
  7796                           	
  7797                           l2520:
  7798  00623A                     ;main.c: 403:     T1CON = 0xB6;
  7799                           	movlw	low(0B6h)
  7800  00623A  0EB6               	movwf	((c:4045)),c	;volatile
  7801  00623C  6ECD               	line	404
  7802                           	
  7803                           l316:
  7804  00623E                     	return	;funcret
  7805  00623E  0012               	opt stack 0
  7806                           GLOBAL	__end_of_TMR1Config
  7807                           	__end_of_TMR1Config:
  7808  006240                     	signat	_TMR1Config,89
  7809                           	global	_TMR0Config
  7810                           
  7811 ;; *************** function _TMR0Config *****************
  7812 ;; Defined at:
  7813 ;;		line 370 in file "main.c"
  7814 ;; Parameters:    Size  Location     Type
  7815 ;;		None
  7816 ;; Auto vars:     Size  Location     Type
  7817 ;;		None
  7818 ;; Return value:  Size  Location     Type
  7819 ;;                  1    wreg      void 
  7820 ;; Registers used:
  7821 ;;		None
  7822 ;; Tracked objects:
  7823 ;;		On entry : 0/0
  7824 ;;		On exit  : 0/0
  7825 ;;		Unchanged: 0/0
  7826 ;; Data sizes:     COMRAM   BANK0   BANK1   BANK2   BANK3   BANK4   BANK5   BANK6   BANK7
  7827 ;;      Params:         0       0       0       0       0       0       0       0       0
  7828 ;;      Locals:         0       0       0       0       0       0       0       0       0
  7829 ;;      Temps:          0       0       0       0       0       0       0       0       0
  7830 ;;      Totals:         0       0       0       0       0       0       0       0       0
  7831 ;;Total ram usage:        0 bytes
  7832 ;; Hardware stack levels used:    1
  7833 ;; Hardware stack levels required when called:    1
  7834 ;; This function calls:
  7835 ;;		Nothing
  7836 ;; This function is called by:
  7837 ;;		_configuracionInicial
  7838 ;; This function uses a non-reentrant model
  7839 ;;
  7840                           psect	text21,class=CODE,space=0,reloc=2,group=0
  7841                           	line	370
  7842                           global __ptext21
  7843                           __ptext21:
  7844  006238                     psect	text21
  7845                           	file	"main.c"
  7846                           	line	370
  7847                           	global	__size_of_TMR0Config
  7848                           	__size_of_TMR0Config	equ	__end_of_TMR0Config-_TMR0Config
  7849  0000                     	
  7850                           _TMR0Config:
  7851  006238                     ;incstack = 0
  7852                           	opt	stack 28
  7853                           	line	383
  7854                           	
  7855                           l304:
  7856  006238                     	return	;funcret
  7857  006238  0012               	opt stack 0
  7858                           GLOBAL	__end_of_TMR0Config
  7859                           	__end_of_TMR0Config:
  7860  00623A                     	signat	_TMR0Config,89
  7861                           	global	_PORTSConfiguration
  7862                           
  7863 ;; *************** function _PORTSConfiguration *****************
  7864 ;; Defined at:
  7865 ;;		line 450 in file "main.c"
  7866 ;; Parameters:    Size  Location     Type
  7867 ;;		None
  7868 ;; Auto vars:     Size  Location     Type
  7869 ;;		None
  7870 ;; Return value:  Size  Location     Type
  7871 ;;                  1    wreg      void 
  7872 ;; Registers used:
  7873 ;;		wreg, status,2
  7874 ;; Tracked objects:
  7875 ;;		On entry : 0/0
  7876 ;;		On exit  : 0/0
  7877 ;;		Unchanged: 0/0
  7878 ;; Data sizes:     COMRAM   BANK0   BANK1   BANK2   BANK3   BANK4   BANK5   BANK6   BANK7
  7879 ;;      Params:         0       0       0       0       0       0       0       0       0
  7880 ;;      Locals:         0       0       0       0       0       0       0       0       0
  7881 ;;      Temps:          0       0       0       0       0       0       0       0       0
  7882 ;;      Totals:         0       0       0       0       0       0       0       0       0
  7883 ;;Total ram usage:        0 bytes
  7884 ;; Hardware stack levels used:    1
  7885 ;; Hardware stack levels required when called:    1
  7886 ;; This function calls:
  7887 ;;		Nothing
  7888 ;; This function is called by:
  7889 ;;		_configuracionInicial
  7890 ;; This function uses a non-reentrant model
  7891 ;;
  7892                           psect	text22,class=CODE,space=0,reloc=2,group=0
  7893                           	line	450
  7894                           global __ptext22
  7895                           __ptext22:
  7896  006260                     psect	text22
  7897                           	file	"main.c"
  7898                           	line	450
  7899                           	global	__size_of_PORTSConfiguration
  7900                           	__size_of_PORTSConfiguration	equ	__end_of_PORTSConfiguration-_PORTSConfiguration
  7901  0000                     	
  7902                           _PORTSConfiguration:
  7903  006260                     ;incstack = 0
  7904                           	opt	stack 28
  7905                           	line	452
  7906                           	
  7907                           l2508:
  7908  006260                     ;main.c: 452:     TRISA = 0x3F;
  7909                           	movlw	low(03Fh)
  7910  006260  0E3F               	movwf	((c:3986)),c	;volatile
  7911  006262  6E92               	line	453
  7912                           	
  7913                           l2510:
  7914  006264                     ;main.c: 453:     TRISB = 0xFF;
  7915                           	setf	((c:3987)),c	;volatile
  7916  006264  6893               	line	454
  7917                           ;main.c: 454:     TRISC = 0xCF;
  7918                           	movlw	low(0CFh)
  7919  006266  0ECF               	movwf	((c:3988)),c	;volatile
  7920  006268  6E94               	line	455
  7921                           	
  7922                           l2512:
  7923  00626A                     ;main.c: 455:     TRISD = 0xFF;
  7924                           	setf	((c:3989)),c	;volatile
  7925  00626A  6895               	line	456
  7926                           	
  7927                           l2514:
  7928  00626C                     ;main.c: 456:     TRISEbits.RE0 = 1;
  7929                           	bsf	((c:3990)),c,0	;volatile
  7930  00626C  8096               	line	457
  7931                           	
  7932                           l2516:
  7933  00626E                     ;main.c: 457:     TRISEbits.RE1 = 1;
  7934                           	bsf	((c:3990)),c,1	;volatile
  7935  00626E  8296               	line	458
  7936                           	
  7937                           l2518:
  7938  006270                     ;main.c: 458:     TRISEbits.RE2 = 1;
  7939                           	bsf	((c:3990)),c,2	;volatile
  7940  006270  8496               	line	459
  7941                           	
  7942                           l336:
  7943  006272                     	return	;funcret
  7944  006272  0012               	opt stack 0
  7945                           GLOBAL	__end_of_PORTSConfiguration
  7946                           	__end_of_PORTSConfiguration:
  7947  006274                     	signat	_PORTSConfiguration,89
  7948                           	global	_CCPConfig
  7949                           
  7950 ;; *************** function _CCPConfig *****************
  7951 ;; Defined at:
  7952 ;;		line 363 in file "main.c"
  7953 ;; Parameters:    Size  Location     Type
  7954 ;;		None
  7955 ;; Auto vars:     Size  Location     Type
  7956 ;;		None
  7957 ;; Return value:  Size  Location     Type
  7958 ;;                  1    wreg      void 
  7959 ;; Registers used:
  7960 ;;		wreg, status,2, status,0, cstack
  7961 ;; Tracked objects:
  7962 ;;		On entry : 0/0
  7963 ;;		On exit  : 0/0
  7964 ;;		Unchanged: 0/0
  7965 ;; Data sizes:     COMRAM   BANK0   BANK1   BANK2   BANK3   BANK4   BANK5   BANK6   BANK7
  7966 ;;      Params:         0       0       0       0       0       0       0       0       0
  7967 ;;      Locals:         0       0       0       0       0       0       0       0       0
  7968 ;;      Temps:          0       0       0       0       0       0       0       0       0
  7969 ;;      Totals:         0       0       0       0       0       0       0       0       0
  7970 ;;Total ram usage:        0 bytes
  7971 ;; Hardware stack levels used:    1
  7972 ;; Hardware stack levels required when called:    3
  7973 ;; This function calls:
  7974 ;;		_PWM1_Init
  7975 ;;		_PWM1_Start
  7976 ;;		_PWM2_Init
  7977 ;;		_PWM2_Start
  7978 ;; This function is called by:
  7979 ;;		_configuracionInicial
  7980 ;; This function uses a non-reentrant model
  7981 ;;
  7982                           psect	text23,class=CODE,space=0,reloc=2,group=0
  7983                           	line	363
  7984                           global __ptext23
  7985                           __ptext23:
  7986  0063AA                     psect	text23
  7987                           	file	"main.c"
  7988                           	line	363
  7989                           	global	__size_of_CCPConfig
  7990                           	__size_of_CCPConfig	equ	__end_of_CCPConfig-_CCPConfig
  7991  0000                     	
  7992                           _CCPConfig:
  7993  0063AA                     ;incstack = 0
  7994                           	opt	stack 26
  7995                           	line	365
  7996                           	
  7997                           l2502:
  7998  0063AA                     ;main.c: 365:     PWM1_Init(1500);
  7999                           	movlw	low(05DCh)
  8000  0063AA  0EDC               	movwf	((c:PWM1_Init@fre)),c
  8001  0063AC  6E0F               	movlw	high(05DCh)
  8002  0063AE  0E05               	movwf	((c:PWM1_Init@fre+1)),c
  8003  0063B0  6E10               	movlw	low highword(05DCh)
  8004  0063B2  0E00               	movwf	((c:PWM1_Init@fre+2)),c
  8005  0063B4  6E11               	movlw	high highword(05DCh)
  8006  0063B6  0E00               	movwf	((c:PWM1_Init@fre+3)),c
  8007  0063B8  6E12               	call	_PWM1_Init	;wreg free
  8008  0063BA  EC61  F032         	line	366
  8009                           ;main.c: 366:     PWM2_Init(1500);
  8010                           	movlw	low(05DCh)
  8011  0063BE  0EDC               	movwf	((c:PWM2_Init@fre)),c
  8012  0063C0  6E0F               	movlw	high(05DCh)
  8013  0063C2  0E05               	movwf	((c:PWM2_Init@fre+1)),c
  8014  0063C4  6E10               	movlw	low highword(05DCh)
  8015  0063C6  0E00               	movwf	((c:PWM2_Init@fre+2)),c
  8016  0063C8  6E11               	movlw	high highword(05DCh)
  8017  0063CA  0E00               	movwf	((c:PWM2_Init@fre+3)),c
  8018  0063CC  6E12               	call	_PWM2_Init	;wreg free
  8019  0063CE  EC98  F032         	line	367
  8020                           	
  8021                           l2504:
  8022  0063D2                     ;main.c: 367:     PWM1_Start();
  8023                           	call	_PWM1_Start	;wreg free
  8024  0063D2  EC24  F031         	line	368
  8025                           	
  8026                           l2506:
  8027  0063D6                     ;main.c: 368:     PWM2_Start();
  8028                           	call	_PWM2_Start	;wreg free
  8029  0063D6  EC2A  F031         	line	369
  8030                           	
  8031                           l301:
  8032  0063DA                     	return	;funcret
  8033  0063DA  0012               	opt stack 0
  8034                           GLOBAL	__end_of_CCPConfig
  8035                           	__end_of_CCPConfig:
  8036  0063DC                     	signat	_CCPConfig,89
  8037                           	global	_PWM2_Start
  8038                           
  8039 ;; *************** function _PWM2_Start *****************
  8040 ;; Defined at:
  8041 ;;		line 511 in file "main.c"
  8042 ;; Parameters:    Size  Location     Type
  8043 ;;		None
  8044 ;; Auto vars:     Size  Location     Type
  8045 ;;		None
  8046 ;; Return value:  Size  Location     Type
  8047 ;;                  1    wreg      void 
  8048 ;; Registers used:
  8049 ;;		None
  8050 ;; Tracked objects:
  8051 ;;		On entry : 0/0
  8052 ;;		On exit  : 0/0
  8053 ;;		Unchanged: 0/0
  8054 ;; Data sizes:     COMRAM   BANK0   BANK1   BANK2   BANK3   BANK4   BANK5   BANK6   BANK7
  8055 ;;      Params:         0       0       0       0       0       0       0       0       0
  8056 ;;      Locals:         0       0       0       0       0       0       0       0       0
  8057 ;;      Temps:          0       0       0       0       0       0       0       0       0
  8058 ;;      Totals:         0       0       0       0       0       0       0       0       0
  8059 ;;Total ram usage:        0 bytes
  8060 ;; Hardware stack levels used:    1
  8061 ;; Hardware stack levels required when called:    1
  8062 ;; This function calls:
  8063 ;;		Nothing
  8064 ;; This function is called by:
  8065 ;;		_CCPConfig
  8066 ;; This function uses a non-reentrant model
  8067 ;;
  8068                           psect	text24,class=CODE,space=0,reloc=2,group=0
  8069                           	line	511
  8070                           global __ptext24
  8071                           __ptext24:
  8072  006254                     psect	text24
  8073                           	file	"main.c"
  8074                           	line	511
  8075                           	global	__size_of_PWM2_Start
  8076                           	__size_of_PWM2_Start	equ	__end_of_PWM2_Start-_PWM2_Start
  8077  0000                     	
  8078                           _PWM2_Start:
  8079  006254                     ;incstack = 0
  8080                           	opt	stack 27
  8081                           	line	513
  8082                           	
  8083                           l2488:
  8084  006254                     ;main.c: 513:     CCP2M3 = 1;
  8085                           	bsf	c:(32211/8),(32211)&7	;volatile
  8086  006254  86BA               	line	514
  8087                           ;main.c: 514:     CCP2M2 = 1;
  8088                           	bsf	c:(32210/8),(32210)&7	;volatile
  8089  006256  84BA               	line	522
  8090                           ;main.c: 522:     T2CKPS0 = 1;
  8091                           	bsf	c:(32336/8),(32336)&7	;volatile
  8092  006258  80CA               	line	523
  8093                           ;main.c: 523:     T2CKPS1 = 1;
  8094                           	bsf	c:(32337/8),(32337)&7	;volatile
  8095  00625A  82CA               	line	525
  8096                           ;main.c: 525:     TMR2ON = 1;
  8097                           	bsf	c:(32338/8),(32338)&7	;volatile
  8098  00625C  84CA               	line	527
  8099                           	
  8100                           l362:
  8101  00625E                     	return	;funcret
  8102  00625E  0012               	opt stack 0
  8103                           GLOBAL	__end_of_PWM2_Start
  8104                           	__end_of_PWM2_Start:
  8105  006260                     	signat	_PWM2_Start,89
  8106                           	global	_PWM2_Init
  8107                           
  8108 ;; *************** function _PWM2_Init *****************
  8109 ;; Defined at:
  8110 ;;		line 484 in file "main.c"
  8111 ;; Parameters:    Size  Location     Type
  8112 ;;  fre             4   14[COMRAM] long 
  8113 ;; Auto vars:     Size  Location     Type
  8114 ;;		None
  8115 ;; Return value:  Size  Location     Type
  8116 ;;                  1    wreg      void 
  8117 ;; Registers used:
  8118 ;;		wreg, status,2, status,0, cstack
  8119 ;; Tracked objects:
  8120 ;;		On entry : 0/0
  8121 ;;		On exit  : 0/0
  8122 ;;		Unchanged: 0/0
  8123 ;; Data sizes:     COMRAM   BANK0   BANK1   BANK2   BANK3   BANK4   BANK5   BANK6   BANK7
  8124 ;;      Params:         4       0       0       0       0       0       0       0       0
  8125 ;;      Locals:         0       0       0       0       0       0       0       0       0
  8126 ;;      Temps:          4       0       0       0       0       0       0       0       0
  8127 ;;      Totals:         8       0       0       0       0       0       0       0       0
  8128 ;;Total ram usage:        8 bytes
  8129 ;; Hardware stack levels used:    1
  8130 ;; Hardware stack levels required when called:    2
  8131 ;; This function calls:
  8132 ;;		___aldiv
  8133 ;; This function is called by:
  8134 ;;		_CCPConfig
  8135 ;; This function uses a non-reentrant model
  8136 ;;
  8137                           psect	text25,class=CODE,space=0,reloc=2,group=0
  8138                           	line	484
  8139                           global __ptext25
  8140                           __ptext25:
  8141  006530                     psect	text25
  8142                           	file	"main.c"
  8143                           	line	484
  8144                           	global	__size_of_PWM2_Init
  8145                           	__size_of_PWM2_Init	equ	__end_of_PWM2_Init-_PWM2_Init
  8146  0000                     	
  8147                           _PWM2_Init:
  8148  006530                     ;incstack = 0
  8149                           	opt	stack 26
  8150                           	line	486
  8151                           	
  8152                           l2482:
  8153  006530                     ;main.c: 484: void PWM2_Init(long fre);main.c: 485: {;main.c: 486:     PR2 = (24000000 /
                                  (fre * 4 * 16)) - 1;
  8154                           	movlw	low(016E3600h)
  8155  006530  0E00               	movwf	((c:___aldiv@dividend)),c
  8156  006532  6E01               	movlw	high(016E3600h)
  8157  006534  0E36               	movwf	((c:___aldiv@dividend+1)),c
  8158  006536  6E02               	movlw	low highword(016E3600h)
  8159  006538  0E6E               	movwf	((c:___aldiv@dividend+2)),c
  8160  00653A  6E03               	movlw	high highword(016E3600h)
  8161  00653C  0E01               	movwf	((c:___aldiv@dividend+3)),c
  8162  00653E  6E04               	movff	(c:PWM2_Init@fre),??_PWM2_Init+0+0
  8163  006540  C00F  F013         	movff	(c:PWM2_Init@fre+1),??_PWM2_Init+0+0+1
  8164  006544  C010  F014         	movff	(c:PWM2_Init@fre+2),??_PWM2_Init+0+0+2
  8165  006548  C011  F015         	movff	(c:PWM2_Init@fre+3),??_PWM2_Init+0+0+3
  8166  00654C  C012  F016         	movlw	02h
  8167  006550  0E02               u2705:
  8168  006552                     	bcf	status,0
  8169  006552  90D8               	rlcf	(??_PWM2_Init+0+0),c
  8170  006554  3613               	rlcf	(??_PWM2_Init+0+1),c
  8171  006556  3614               	rlcf	(??_PWM2_Init+0+2),c
  8172  006558  3615               	rlcf	(??_PWM2_Init+0+3),c
  8173  00655A  3616               	decfsz	wreg
  8174  00655C  2EE8               	goto	u2705
  8175  00655E  EFA9  F032         	movlw	04h
  8176  006562  0E04               u2715:
  8177  006564                     	bcf	status,0
  8178  006564  90D8               	rlcf	(??_PWM2_Init+0+0),c
  8179  006566  3613               	rlcf	(??_PWM2_Init+0+1),c
  8180  006568  3614               	rlcf	(??_PWM2_Init+0+2),c
  8181  00656A  3615               	rlcf	(??_PWM2_Init+0+3),c
  8182  00656C  3616               	decfsz	wreg
  8183  00656E  2EE8               	goto	u2715
  8184  006570  EFB2  F032         	movff	??_PWM2_Init+0+0,(c:___aldiv@divisor)
  8185  006574  C013  F005         	movff	??_PWM2_Init+0+1,(c:___aldiv@divisor+1)
  8186  006578  C014  F006         	movff	??_PWM2_Init+0+2,(c:___aldiv@divisor+2)
  8187  00657C  C015  F007         	movff	??_PWM2_Init+0+3,(c:___aldiv@divisor+3)
  8188  006580  C016  F008         	call	___aldiv	;wreg free
  8189  006584  EC40  F033         	decf	(0+?___aldiv),c,w
  8190  006588  0401               	movwf	((c:4043)),c	;volatile
  8191  00658A  6ECB               	line	487
  8192                           	
  8193                           l2484:
  8194  00658C                     ;main.c: 487:     freq = fre;
  8195                           	movff	(c:PWM2_Init@fre),(_freq)
  8196  00658C  C00F  F070         	movff	(c:PWM2_Init@fre+1),(_freq+1)
  8197  006590  C010  F071         	movff	(c:PWM2_Init@fre+2),(_freq+2)
  8198  006594  C011  F072         	movff	(c:PWM2_Init@fre+3),(_freq+3)
  8199  006598  C012  F073         	line	488
  8200                           	
  8201                           l353:
  8202  00659C                     	return	;funcret
  8203  00659C  0012               	opt stack 0
  8204                           GLOBAL	__end_of_PWM2_Init
  8205                           	__end_of_PWM2_Init:
  8206  00659E                     	signat	_PWM2_Init,4217
  8207                           	global	_PWM1_Start
  8208                           
  8209 ;; *************** function _PWM1_Start *****************
  8210 ;; Defined at:
  8211 ;;		line 489 in file "main.c"
  8212 ;; Parameters:    Size  Location     Type
  8213 ;;		None
  8214 ;; Auto vars:     Size  Location     Type
  8215 ;;		None
  8216 ;; Return value:  Size  Location     Type
  8217 ;;                  1    wreg      void 
  8218 ;; Registers used:
  8219 ;;		None
  8220 ;; Tracked objects:
  8221 ;;		On entry : 0/0
  8222 ;;		On exit  : 0/0
  8223 ;;		Unchanged: 0/0
  8224 ;; Data sizes:     COMRAM   BANK0   BANK1   BANK2   BANK3   BANK4   BANK5   BANK6   BANK7
  8225 ;;      Params:         0       0       0       0       0       0       0       0       0
  8226 ;;      Locals:         0       0       0       0       0       0       0       0       0
  8227 ;;      Temps:          0       0       0       0       0       0       0       0       0
  8228 ;;      Totals:         0       0       0       0       0       0       0       0       0
  8229 ;;Total ram usage:        0 bytes
  8230 ;; Hardware stack levels used:    1
  8231 ;; Hardware stack levels required when called:    1
  8232 ;; This function calls:
  8233 ;;		Nothing
  8234 ;; This function is called by:
  8235 ;;		_CCPConfig
  8236 ;; This function uses a non-reentrant model
  8237 ;;
  8238                           psect	text26,class=CODE,space=0,reloc=2,group=0
  8239                           	line	489
  8240                           global __ptext26
  8241                           __ptext26:
  8242  006248                     psect	text26
  8243                           	file	"main.c"
  8244                           	line	489
  8245                           	global	__size_of_PWM1_Start
  8246                           	__size_of_PWM1_Start	equ	__end_of_PWM1_Start-_PWM1_Start
  8247  0000                     	
  8248                           _PWM1_Start:
  8249  006248                     ;incstack = 0
  8250                           	opt	stack 27
  8251                           	line	491
  8252                           	
  8253                           l2486:
  8254  006248                     ;main.c: 491:     CCP1M3 = 1;
  8255                           	bsf	c:(32235/8),(32235)&7	;volatile
  8256  006248  86BD               	line	492
  8257                           ;main.c: 492:     CCP1M2 = 1;
  8258                           	bsf	c:(32234/8),(32234)&7	;volatile
  8259  00624A  84BD               	line	500
  8260                           ;main.c: 500:     T2CKPS0 = 1;
  8261                           	bsf	c:(32336/8),(32336)&7	;volatile
  8262  00624C  80CA               	line	501
  8263                           ;main.c: 501:     T2CKPS1 = 1;
  8264                           	bsf	c:(32337/8),(32337)&7	;volatile
  8265  00624E  82CA               	line	503
  8266                           ;main.c: 503:     TMR2ON = 1;
  8267                           	bsf	c:(32338/8),(32338)&7	;volatile
  8268  006250  84CA               	line	505
  8269                           	
  8270                           l356:
  8271  006252                     	return	;funcret
  8272  006252  0012               	opt stack 0
  8273                           GLOBAL	__end_of_PWM1_Start
  8274                           	__end_of_PWM1_Start:
  8275  006254                     	signat	_PWM1_Start,89
  8276                           	global	_PWM1_Init
  8277                           
  8278 ;; *************** function _PWM1_Init *****************
  8279 ;; Defined at:
  8280 ;;		line 479 in file "main.c"
  8281 ;; Parameters:    Size  Location     Type
  8282 ;;  fre             4   14[COMRAM] long 
  8283 ;; Auto vars:     Size  Location     Type
  8284 ;;		None
  8285 ;; Return value:  Size  Location     Type
  8286 ;;                  1    wreg      void 
  8287 ;; Registers used:
  8288 ;;		wreg, status,2, status,0, cstack
  8289 ;; Tracked objects:
  8290 ;;		On entry : 0/0
  8291 ;;		On exit  : 0/0
  8292 ;;		Unchanged: 0/0
  8293 ;; Data sizes:     COMRAM   BANK0   BANK1   BANK2   BANK3   BANK4   BANK5   BANK6   BANK7
  8294 ;;      Params:         4       0       0       0       0       0       0       0       0
  8295 ;;      Locals:         0       0       0       0       0       0       0       0       0
  8296 ;;      Temps:          4       0       0       0       0       0       0       0       0
  8297 ;;      Totals:         8       0       0       0       0       0       0       0       0
  8298 ;;Total ram usage:        8 bytes
  8299 ;; Hardware stack levels used:    1
  8300 ;; Hardware stack levels required when called:    2
  8301 ;; This function calls:
  8302 ;;		___aldiv
  8303 ;; This function is called by:
  8304 ;;		_CCPConfig
  8305 ;; This function uses a non-reentrant model
  8306 ;;
  8307                           psect	text27,class=CODE,space=0,reloc=2,group=0
  8308                           	line	479
  8309                           global __ptext27
  8310                           __ptext27:
  8311  0064C2                     psect	text27
  8312                           	file	"main.c"
  8313                           	line	479
  8314                           	global	__size_of_PWM1_Init
  8315                           	__size_of_PWM1_Init	equ	__end_of_PWM1_Init-_PWM1_Init
  8316  0000                     	
  8317                           _PWM1_Init:
  8318  0064C2                     ;incstack = 0
  8319                           	opt	stack 26
  8320                           	line	481
  8321                           	
  8322                           l2478:
  8323  0064C2                     ;main.c: 479: void PWM1_Init(long fre);main.c: 480: {;main.c: 481:     PR2 = (24000000 /
                                  (fre * 4 * 16)) - 1;
  8324                           	movlw	low(016E3600h)
  8325  0064C2  0E00               	movwf	((c:___aldiv@dividend)),c
  8326  0064C4  6E01               	movlw	high(016E3600h)
  8327  0064C6  0E36               	movwf	((c:___aldiv@dividend+1)),c
  8328  0064C8  6E02               	movlw	low highword(016E3600h)
  8329  0064CA  0E6E               	movwf	((c:___aldiv@dividend+2)),c
  8330  0064CC  6E03               	movlw	high highword(016E3600h)
  8331  0064CE  0E01               	movwf	((c:___aldiv@dividend+3)),c
  8332  0064D0  6E04               	movff	(c:PWM1_Init@fre),??_PWM1_Init+0+0
  8333  0064D2  C00F  F013         	movff	(c:PWM1_Init@fre+1),??_PWM1_Init+0+0+1
  8334  0064D6  C010  F014         	movff	(c:PWM1_Init@fre+2),??_PWM1_Init+0+0+2
  8335  0064DA  C011  F015         	movff	(c:PWM1_Init@fre+3),??_PWM1_Init+0+0+3
  8336  0064DE  C012  F016         	movlw	02h
  8337  0064E2  0E02               u2685:
  8338  0064E4                     	bcf	status,0
  8339  0064E4  90D8               	rlcf	(??_PWM1_Init+0+0),c
  8340  0064E6  3613               	rlcf	(??_PWM1_Init+0+1),c
  8341  0064E8  3614               	rlcf	(??_PWM1_Init+0+2),c
  8342  0064EA  3615               	rlcf	(??_PWM1_Init+0+3),c
  8343  0064EC  3616               	decfsz	wreg
  8344  0064EE  2EE8               	goto	u2685
  8345  0064F0  EF72  F032         	movlw	04h
  8346  0064F4  0E04               u2695:
  8347  0064F6                     	bcf	status,0
  8348  0064F6  90D8               	rlcf	(??_PWM1_Init+0+0),c
  8349  0064F8  3613               	rlcf	(??_PWM1_Init+0+1),c
  8350  0064FA  3614               	rlcf	(??_PWM1_Init+0+2),c
  8351  0064FC  3615               	rlcf	(??_PWM1_Init+0+3),c
  8352  0064FE  3616               	decfsz	wreg
  8353  006500  2EE8               	goto	u2695
  8354  006502  EF7B  F032         	movff	??_PWM1_Init+0+0,(c:___aldiv@divisor)
  8355  006506  C013  F005         	movff	??_PWM1_Init+0+1,(c:___aldiv@divisor+1)
  8356  00650A  C014  F006         	movff	??_PWM1_Init+0+2,(c:___aldiv@divisor+2)
  8357  00650E  C015  F007         	movff	??_PWM1_Init+0+3,(c:___aldiv@divisor+3)
  8358  006512  C016  F008         	call	___aldiv	;wreg free
  8359  006516  EC40  F033         	decf	(0+?___aldiv),c,w
  8360  00651A  0401               	movwf	((c:4043)),c	;volatile
  8361  00651C  6ECB               	line	482
  8362                           	
  8363                           l2480:
  8364  00651E                     ;main.c: 482:     freq = fre;
  8365                           	movff	(c:PWM1_Init@fre),(_freq)
  8366  00651E  C00F  F070         	movff	(c:PWM1_Init@fre+1),(_freq+1)
  8367  006522  C010  F071         	movff	(c:PWM1_Init@fre+2),(_freq+2)
  8368  006526  C011  F072         	movff	(c:PWM1_Init@fre+3),(_freq+3)
  8369  00652A  C012  F073         	line	483
  8370                           	
  8371                           l350:
  8372  00652E                     	return	;funcret
  8373  00652E  0012               	opt stack 0
  8374                           GLOBAL	__end_of_PWM1_Init
  8375                           	__end_of_PWM1_Init:
  8376  006530                     	signat	_PWM1_Init,4217
  8377                           	global	___aldiv
  8378                           
  8379 ;; *************** function ___aldiv *****************
  8380 ;; Defined at:
  8381 ;;		line 7 in file "C:\Program Files (x86)\Microchip\xc8\v2.00\pic\sources\c99\common\aldiv.c"
  8382 ;; Parameters:    Size  Location     Type
  8383 ;;  dividend        4    0[COMRAM] long 
  8384 ;;  divisor         4    4[COMRAM] long 
  8385 ;; Auto vars:     Size  Location     Type
  8386 ;;  quotient        4   10[COMRAM] long 
  8387 ;;  sign            1    9[COMRAM] unsigned char 
  8388 ;;  counter         1    8[COMRAM] unsigned char 
  8389 ;; Return value:  Size  Location     Type
  8390 ;;                  4    0[COMRAM] long 
  8391 ;; Registers used:
  8392 ;;		wreg, status,2, status,0
  8393 ;; Tracked objects:
  8394 ;;		On entry : 0/0
  8395 ;;		On exit  : 0/0
  8396 ;;		Unchanged: 0/0
  8397 ;; Data sizes:     COMRAM   BANK0   BANK1   BANK2   BANK3   BANK4   BANK5   BANK6   BANK7
  8398 ;;      Params:         8       0       0       0       0       0       0       0       0
  8399 ;;      Locals:         6       0       0       0       0       0       0       0       0
  8400 ;;      Temps:          0       0       0       0       0       0       0       0       0
  8401 ;;      Totals:        14       0       0       0       0       0       0       0       0
  8402 ;;Total ram usage:       14 bytes
  8403 ;; Hardware stack levels used:    1
  8404 ;; Hardware stack levels required when called:    1
  8405 ;; This function calls:
  8406 ;;		Nothing
  8407 ;; This function is called by:
  8408 ;;		_PWM_Max_Duty
  8409 ;;		_PWM1_Init
  8410 ;;		_PWM2_Init
  8411 ;;		_SerialBegin
  8412 ;; This function uses a non-reentrant model
  8413 ;;
  8414                           psect	text28,class=CODE,space=0,reloc=2,group=1
  8415                           	file	"C:\Program Files (x86)\Microchip\xc8\v2.00\pic\sources\c99\common\aldiv.c"
  8416                           	line	7
  8417                           global __ptext28
  8418                           __ptext28:
  8419  006680                     psect	text28
  8420                           	file	"C:\Program Files (x86)\Microchip\xc8\v2.00\pic\sources\c99\common\aldiv.c"
  8421                           	line	7
  8422                           	global	__size_of___aldiv
  8423                           	__size_of___aldiv	equ	__end_of___aldiv-___aldiv
  8424  0000                     	
  8425                           ___aldiv:
  8426  006680                     ;incstack = 0
  8427                           	opt	stack 25
  8428                           	line	13
  8429                           	
  8430                           l2032:
  8431  006680                     	movlw	low(0)
  8432  006680  0E00               	movwf	((c:___aldiv@sign)),c
  8433  006682  6E0A               	line	14
  8434                           	
  8435                           l2034:
  8436  006684                     	btfsc	((c:___aldiv@divisor+3)),c,7
  8437  006684  BE08               	goto	u1770
  8438  006686  EF49  F033         	goto	u1771
  8439  00668A  EF47  F033         
  8440                           u1771:
  8441  00668E                     	goto	l2040
  8442  00668E  EF55  F033         u1770:
  8443  006692                     	line	15
  8444                           	
  8445                           l2036:
  8446  006692                     	comf	((c:___aldiv@divisor+3)),c
  8447  006692  1E08               	comf	((c:___aldiv@divisor+2)),c
  8448  006694  1E07               	comf	((c:___aldiv@divisor+1)),c
  8449  006696  1E06               	negf	((c:___aldiv@divisor)),c
  8450  006698  6C05               	movlw	0
  8451  00669A  0E00               	addwfc	((c:___aldiv@divisor+1)),c
  8452  00669C  2206               	addwfc	((c:___aldiv@divisor+2)),c
  8453  00669E  2207               	addwfc	((c:___aldiv@divisor+3)),c
  8454  0066A0  2208               	line	16
  8455                           	
  8456                           l2038:
  8457  0066A2                     	movlw	low(01h)
  8458  0066A2  0E01               	movwf	((c:___aldiv@sign)),c
  8459  0066A4  6E0A               	goto	l2040
  8460  0066A6  EF55  F033         	line	17
  8461                           	
  8462                           l572:
  8463  0066AA                     	line	18
  8464                           	
  8465                           l2040:
  8466  0066AA                     	btfsc	((c:___aldiv@dividend+3)),c,7
  8467  0066AA  BE04               	goto	u1780
  8468  0066AC  EF5C  F033         	goto	u1781
  8469  0066B0  EF5A  F033         
  8470                           u1781:
  8471  0066B4                     	goto	l2046
  8472  0066B4  EF68  F033         u1780:
  8473  0066B8                     	line	19
  8474                           	
  8475                           l2042:
  8476  0066B8                     	comf	((c:___aldiv@dividend+3)),c
  8477  0066B8  1E04               	comf	((c:___aldiv@dividend+2)),c
  8478  0066BA  1E03               	comf	((c:___aldiv@dividend+1)),c
  8479  0066BC  1E02               	negf	((c:___aldiv@dividend)),c
  8480  0066BE  6C01               	movlw	0
  8481  0066C0  0E00               	addwfc	((c:___aldiv@dividend+1)),c
  8482  0066C2  2202               	addwfc	((c:___aldiv@dividend+2)),c
  8483  0066C4  2203               	addwfc	((c:___aldiv@dividend+3)),c
  8484  0066C6  2204               	line	20
  8485                           	
  8486                           l2044:
  8487  0066C8                     	movlw	(01h)&0ffh
  8488  0066C8  0E01               	xorwf	((c:___aldiv@sign)),c
  8489  0066CA  1A0A               	goto	l2046
  8490  0066CC  EF68  F033         	line	21
  8491                           	
  8492                           l573:
  8493  0066D0                     	line	22
  8494                           	
  8495                           l2046:
  8496  0066D0                     	movlw	low(0)
  8497  0066D0  0E00               	movwf	((c:___aldiv@quotient)),c
  8498  0066D2  6E0B               	movlw	high(0)
  8499  0066D4  0E00               	movwf	((c:___aldiv@quotient+1)),c
  8500  0066D6  6E0C               	movlw	low highword(0)
  8501  0066D8  0E00               	movwf	((c:___aldiv@quotient+2)),c
  8502  0066DA  6E0D               	movlw	high highword(0)
  8503  0066DC  0E00               	movwf	((c:___aldiv@quotient+3)),c
  8504  0066DE  6E0E               	line	23
  8505                           	
  8506                           l2048:
  8507  0066E0                     	movf	((c:___aldiv@divisor)),c,w
  8508  0066E0  5005               iorwf	((c:___aldiv@divisor+1)),c,w
  8509  0066E2  1006               iorwf	((c:___aldiv@divisor+2)),c,w
  8510  0066E4  1007               iorwf	((c:___aldiv@divisor+3)),c,w
  8511  0066E6  1008               	btfsc	status,2
  8512  0066E8  B4D8               	goto	u1791
  8513  0066EA  EF79  F033         	goto	u1790
  8514  0066EE  EF7B  F033         
  8515                           u1791:
  8516  0066F2                     	goto	l2068
  8517  0066F2  EFBD  F033         u1790:
  8518  0066F6                     	line	24
  8519                           	
  8520                           l2050:
  8521  0066F6                     	movlw	low(01h)
  8522  0066F6  0E01               	movwf	((c:___aldiv@counter)),c
  8523  0066F8  6E09               	line	25
  8524                           	goto	l2054
  8525  0066FA  EF87  F033         	
  8526                           l576:
  8527  0066FE                     	line	26
  8528                           	
  8529                           l2052:
  8530  0066FE                     	bcf	status,0
  8531  0066FE  90D8               	rlcf	((c:___aldiv@divisor)),c
  8532  006700  3605               	rlcf	((c:___aldiv@divisor+1)),c
  8533  006702  3606               	rlcf	((c:___aldiv@divisor+2)),c
  8534  006704  3607               	rlcf	((c:___aldiv@divisor+3)),c
  8535  006706  3608               	line	27
  8536                           	incf	((c:___aldiv@counter)),c
  8537  006708  2A09               	goto	l2054
  8538  00670A  EF87  F033         	line	28
  8539                           	
  8540                           l575:
  8541  00670E                     	line	25
  8542                           	
  8543                           l2054:
  8544  00670E                     	
  8545                           	btfss	((c:___aldiv@divisor+3)),c,(31)&7
  8546  00670E  AE08               	goto	u1801
  8547  006710  EF8C  F033         	goto	u1800
  8548  006714  EF8E  F033         u1801:
  8549  006718                     	goto	l2052
  8550  006718  EF7F  F033         u1800:
  8551  00671C                     	goto	l2056
  8552  00671C  EF92  F033         	
  8553                           l577:
  8554  006720                     	goto	l2056
  8555  006720  EF92  F033         	line	29
  8556                           	
  8557                           l578:
  8558  006724                     	line	30
  8559                           	
  8560                           l2056:
  8561  006724                     	bcf	status,0
  8562  006724  90D8               	rlcf	((c:___aldiv@quotient)),c
  8563  006726  360B               	rlcf	((c:___aldiv@quotient+1)),c
  8564  006728  360C               	rlcf	((c:___aldiv@quotient+2)),c
  8565  00672A  360D               	rlcf	((c:___aldiv@quotient+3)),c
  8566  00672C  360E               	line	31
  8567                           	
  8568                           l2058:
  8569  00672E                     		movf	((c:___aldiv@divisor)),c,w
  8570  00672E  5005               	subwf	((c:___aldiv@dividend)),c,w
  8571  006730  5C01               	movf	((c:___aldiv@divisor+1)),c,w
  8572  006732  5006               	subwfb	((c:___aldiv@dividend+1)),c,w
  8573  006734  5802               	movf	((c:___aldiv@divisor+2)),c,w
  8574  006736  5007               	subwfb	((c:___aldiv@dividend+2)),c,w
  8575  006738  5803               	movf	((c:___aldiv@divisor+3)),c,w
  8576  00673A  5008               	subwfb	((c:___aldiv@dividend+3)),c,w
  8577  00673C  5804               	btfss	status,0
  8578  00673E  A0D8               	goto	u1811
  8579  006740  EFA4  F033         	goto	u1810
  8580  006744  EFA6  F033         
  8581                           u1811:
  8582  006748                     	goto	l2064
  8583  006748  EFB1  F033         u1810:
  8584  00674C                     	line	32
  8585                           	
  8586                           l2060:
  8587  00674C                     	movf	((c:___aldiv@divisor)),c,w
  8588  00674C  5005               	subwf	((c:___aldiv@dividend)),c
  8589  00674E  5E01               	movf	((c:___aldiv@divisor+1)),c,w
  8590  006750  5006               	subwfb	((c:___aldiv@dividend+1)),c
  8591  006752  5A02               	movf	((c:___aldiv@divisor+2)),c,w
  8592  006754  5007               	subwfb	((c:___aldiv@dividend+2)),c
  8593  006756  5A03               	movf	((c:___aldiv@divisor+3)),c,w
  8594  006758  5008               	subwfb	((c:___aldiv@dividend+3)),c
  8595  00675A  5A04               	line	33
  8596                           	
  8597                           l2062:
  8598  00675C                     	bsf	(0+(0/8)+(c:___aldiv@quotient)),c,(0)&7
  8599  00675C  800B               	goto	l2064
  8600  00675E  EFB1  F033         	line	34
  8601                           	
  8602                           l579:
  8603  006762                     	line	35
  8604                           	
  8605                           l2064:
  8606  006762                     	bcf	status,0
  8607  006762  90D8               	rrcf	((c:___aldiv@divisor+3)),c
  8608  006764  3208               	rrcf	((c:___aldiv@divisor+2)),c
  8609  006766  3207               	rrcf	((c:___aldiv@divisor+1)),c
  8610  006768  3206               	rrcf	((c:___aldiv@divisor)),c
  8611  00676A  3205               	line	36
  8612                           	
  8613                           l2066:
  8614  00676C                     	decfsz	((c:___aldiv@counter)),c
  8615  00676C  2E09               	
  8616                           	goto	l2056
  8617  00676E  EF92  F033         	goto	l2068
  8618  006772  EFBD  F033         	
  8619                           l580:
  8620  006776                     	goto	l2068
  8621  006776  EFBD  F033         	line	37
  8622                           	
  8623                           l574:
  8624  00677A                     	line	38
  8625                           	
  8626                           l2068:
  8627  00677A                     	movf	((c:___aldiv@sign)),c,w
  8628  00677A  500A               	btfsc	status,2
  8629  00677C  B4D8               	goto	u1821
  8630  00677E  EFC3  F033         	goto	u1820
  8631  006782  EFC5  F033         u1821:
  8632  006786                     	goto	l2072
  8633  006786  EFCF  F033         u1820:
  8634  00678A                     	line	39
  8635                           	
  8636                           l2070:
  8637  00678A                     	comf	((c:___aldiv@quotient+3)),c
  8638  00678A  1E0E               	comf	((c:___aldiv@quotient+2)),c
  8639  00678C  1E0D               	comf	((c:___aldiv@quotient+1)),c
  8640  00678E  1E0C               	negf	((c:___aldiv@quotient)),c
  8641  006790  6C0B               	movlw	0
  8642  006792  0E00               	addwfc	((c:___aldiv@quotient+1)),c
  8643  006794  220C               	addwfc	((c:___aldiv@quotient+2)),c
  8644  006796  220D               	addwfc	((c:___aldiv@quotient+3)),c
  8645  006798  220E               	goto	l2072
  8646  00679A  EFCF  F033         	
  8647                           l581:
  8648  00679E                     	line	40
  8649                           	
  8650                           l2072:
  8651  00679E                     	movff	(c:___aldiv@quotient),(c:?___aldiv)
  8652  00679E  C00B  F001         	movff	(c:___aldiv@quotient+1),(c:?___aldiv+1)
  8653  0067A2  C00C  F002         	movff	(c:___aldiv@quotient+2),(c:?___aldiv+2)
  8654  0067A6  C00D  F003         	movff	(c:___aldiv@quotient+3),(c:?___aldiv+3)
  8655  0067AA  C00E  F004         	goto	l582
  8656  0067AE  EFD9  F033         	
  8657                           l2074:
  8658  0067B2                     	line	41
  8659                           	
  8660                           l582:
  8661  0067B2                     	return	;funcret
  8662  0067B2  0012               	opt stack 0
  8663                           GLOBAL	__end_of___aldiv
  8664                           	__end_of___aldiv:
  8665  0067B4                     	signat	___aldiv,8316
  8666                           	global	_ADCConfig
  8667                           
  8668 ;; *************** function _ADCConfig *****************
  8669 ;; Defined at:
  8670 ;;		line 310 in file "main.c"
  8671 ;; Parameters:    Size  Location     Type
  8672 ;;		None
  8673 ;; Auto vars:     Size  Location     Type
  8674 ;;		None
  8675 ;; Return value:  Size  Location     Type
  8676 ;;                  1    wreg      void 
  8677 ;; Registers used:
  8678 ;;		wreg, status,2
  8679 ;; Tracked objects:
  8680 ;;		On entry : 0/0
  8681 ;;		On exit  : 0/0
  8682 ;;		Unchanged: 0/0
  8683 ;; Data sizes:     COMRAM   BANK0   BANK1   BANK2   BANK3   BANK4   BANK5   BANK6   BANK7
  8684 ;;      Params:         0       0       0       0       0       0       0       0       0
  8685 ;;      Locals:         0       0       0       0       0       0       0       0       0
  8686 ;;      Temps:          0       0       0       0       0       0       0       0       0
  8687 ;;      Totals:         0       0       0       0       0       0       0       0       0
  8688 ;;Total ram usage:        0 bytes
  8689 ;; Hardware stack levels used:    1
  8690 ;; Hardware stack levels required when called:    1
  8691 ;; This function calls:
  8692 ;;		Nothing
  8693 ;; This function is called by:
  8694 ;;		_configuracionInicial
  8695 ;; This function uses a non-reentrant model
  8696 ;;
  8697                           psect	text29,class=CODE,space=0,reloc=2,group=0
  8698                           	file	"main.c"
  8699                           	line	310
  8700                           global __ptext29
  8701                           __ptext29:
  8702  006274                     psect	text29
  8703                           	file	"main.c"
  8704                           	line	310
  8705                           	global	__size_of_ADCConfig
  8706                           	__size_of_ADCConfig	equ	__end_of_ADCConfig-_ADCConfig
  8707  0000                     	
  8708                           _ADCConfig:
  8709  006274                     ;incstack = 0
  8710                           	opt	stack 28
  8711                           	line	312
  8712                           	
  8713                           l2498:
  8714  006274                     ;main.c: 312:     TRISAbits.RA0 = 1;
  8715                           	bsf	((c:3986)),c,0	;volatile
  8716  006274  8092               	line	313
  8717                           ;main.c: 313:     TRISAbits.RA1 = 1;
  8718                           	bsf	((c:3986)),c,1	;volatile
  8719  006276  8292               	line	314
  8720                           ;main.c: 314:     TRISAbits.RA2 = 1;
  8721                           	bsf	((c:3986)),c,2	;volatile
  8722  006278  8492               	line	315
  8723                           ;main.c: 315:     TRISAbits.RA3 = 1;
  8724                           	bsf	((c:3986)),c,3	;volatile
  8725  00627A  8692               	line	316
  8726                           	
  8727                           l2500:
  8728  00627C                     ;main.c: 316:     ADCON0 = 0x01;
  8729                           	movlw	low(01h)
  8730  00627C  0E01               	movwf	((c:4034)),c	;volatile
  8731  00627E  6EC2               	line	317
  8732                           ;main.c: 317:     ADCON1 = 0x0B;
  8733                           	movlw	low(0Bh)
  8734  006280  0E0B               	movwf	((c:4033)),c	;volatile
  8735  006282  6EC1               	line	318
  8736                           ;main.c: 318:     ADCON2 = 0xAB;
  8737                           	movlw	low(0ABh)
  8738  006284  0EAB               	movwf	((c:4032)),c	;volatile
  8739  006286  6EC0               	line	320
  8740                           	
  8741                           l281:
  8742  006288                     	return	;funcret
  8743  006288  0012               	opt stack 0
  8744                           GLOBAL	__end_of_ADCConfig
  8745                           	__end_of_ADCConfig:
  8746  00628A                     	signat	_ADCConfig,89
  8747                           	global	_TimerOverflow
  8748                           
  8749 ;; *************** function _TimerOverflow *****************
  8750 ;; Defined at:
  8751 ;;		line 389 in file "main.c"
  8752 ;; Parameters:    Size  Location     Type
  8753 ;;		None
  8754 ;; Auto vars:     Size  Location     Type
  8755 ;;		None
  8756 ;; Return value:  Size  Location     Type
  8757 ;;                  1    wreg      void 
  8758 ;; Registers used:
  8759 ;;		wreg, status,2, status,0
  8760 ;; Tracked objects:
  8761 ;;		On entry : 0/0
  8762 ;;		On exit  : 0/0
  8763 ;;		Unchanged: 0/0
  8764 ;; Data sizes:     COMRAM   BANK0   BANK1   BANK2   BANK3   BANK4   BANK5   BANK6   BANK7
  8765 ;;      Params:         0       0       0       0       0       0       0       0       0
  8766 ;;      Locals:         0       0       0       0       0       0       0       0       0
  8767 ;;      Temps:          0       0       0       0       0       0       0       0       0
  8768 ;;      Totals:         0       0       0       0       0       0       0       0       0
  8769 ;;Total ram usage:        0 bytes
  8770 ;; Hardware stack levels used:    1
  8771 ;; This function calls:
  8772 ;;		Nothing
  8773 ;; This function is called by:
  8774 ;;		Interrupt level 2
  8775 ;; This function uses a non-reentrant model
  8776 ;;
  8777                           psect	intcode,class=CODE,space=0,reloc=2
  8778                           global __pintcode
  8779                           __pintcode:
  8780  000008                     psect	intcode
  8781                           	file	"main.c"
  8782                           	line	389
  8783                           	global	__size_of_TimerOverflow
  8784                           	__size_of_TimerOverflow	equ	__end_of_TimerOverflow-_TimerOverflow
  8785  0000                     	
  8786                           _TimerOverflow:
  8787  000008                     ;incstack = 0
  8788                           	opt	stack 25
  8789                           	bsf int$flags,1,c ;set compiler interrupt flag (level 2)
  8790  000008  825F               	global	int_func
  8791                           	call	int_func,f	;refresh shadow registers
  8792  00000A  EDBD  F031         psect	intcode_body,class=CODE,space=0,reloc=2
  8793                           global __pintcode_body
  8794                           __pintcode_body:
  8795  00637A                     int_func:
  8796  00637A                     
  8797                           	pop	; remove dummy address from shadow register refresh
  8798  00637A  0006               	line	391
  8799                           	
  8800                           i2l2844:
  8801  00637C                     ;main.c: 391:     if(INTCONbits.TMR0IF == 1)
  8802                           	btfss	((c:4082)),c,2	;volatile
  8803  00637C  A4F2               	goto	i2u363_41
  8804  00637E  EFC3  F031         	goto	i2u363_40
  8805  006382  EFC5  F031         i2u363_41:
  8806  006386                     	goto	i2l313
  8807  006386  EFD3  F031         i2u363_40:
  8808  00638A                     	line	394
  8809                           	
  8810                           i2l2846:
  8811  00638A                     ;main.c: 392:     {;main.c: 394:         millis++;
  8812                           	movlw	low(01h)
  8813  00638A  0E01               	movlb	0	; () banked
  8814  00638C  0100               	addwf	((_millis))&0ffh
  8815  00638E  2774               	movlw	0
  8816  006390  0E00               	addwfc	((_millis+1))&0ffh
  8817  006392  2375               	addwfc	((_millis+2))&0ffh
  8818  006394  2376               	addwfc	((_millis+3))&0ffh
  8819  006396  2377               	line	395
  8820                           	
  8821                           i2l2848:; BSR set to: 0
  8822  006398                     
  8823                           ;main.c: 395:         INTCONbits.TMR0IF = 0;
  8824                           	bcf	((c:4082)),c,2	;volatile
  8825  006398  94F2               	line	396
  8826                           	
  8827                           i2l2850:; BSR set to: 0
  8828  00639A                     
  8829                           ;main.c: 396:         TMR0L = 0x00;
  8830                           	movlw	low(0)
  8831  00639A  0E00               	movwf	((c:4054)),c	;volatile
  8832  00639C  6ED6               	line	397
  8833                           	
  8834                           i2l2852:; BSR set to: 0
  8835  00639E                     
  8836                           ;main.c: 397:         TMR0H = 0x00;
  8837                           	movlw	low(0)
  8838  00639E  0E00               	movwf	((c:4055)),c	;volatile
  8839  0063A0  6ED7               	goto	i2l313
  8840  0063A2  EFD3  F031         	line	399
  8841                           ;main.c: 399:     }
  8842                           	
  8843                           i2l312:; BSR set to: 0
  8844  0063A6                     
  8845                           	line	400
  8846                           	
  8847                           i2l313:
  8848  0063A6                     	bcf int$flags,1,c ;clear compiler interrupt flag (level 2)
  8849  0063A6  925F               	retfie f
  8850  0063A8  0011               	opt stack 0
  8851                           GLOBAL	__end_of_TimerOverflow
  8852                           	__end_of_TimerOverflow:
  8853  0063AA                     	signat	_TimerOverflow,89
  8854                           	GLOBAL	__activetblptr
  8855                           __activetblptr	EQU	2
  8856  0000                     	psect	intsave_regs,class=BIGRAM,space=1,noexec
  8857                           	PSECT	rparam,class=COMRAM,space=1,noexec
  8858                           	GLOBAL	__Lrparam
  8859                           	FNCONF	rparam,??,?
  8860                           	GLOBAL	___rparam_used
  8861                           	___rparam_used EQU 1
  8862  0000                     	GLOBAL	___param_bank
  8863                           	___param_bank EQU 0
  8864  0000                     GLOBAL	__Lparam, __Hparam
  8865                           GLOBAL	__Lrparam, __Hrparam
  8866                           __Lparam	EQU	__Lrparam
  8867  0000                     __Hparam	EQU	__Hrparam
  8868  0000                            psect   temp,common,ovrld,class=COMRAM,space=1
  8869                           	global	btemp
  8870                           btemp:
  8871  00005F                     	ds	1
  8872  00005F                     	global	int$flags
  8873                           	int$flags	set btemp
  8874  0000                     	global	wtemp8
  8875                           	wtemp8 set btemp+1
  8876  0000                     	global	ttemp5
  8877                           	ttemp5 set btemp+1
  8878  0000                     	global	ttemp6
  8879                           	ttemp6 set btemp+4
  8880  0000                     	global	ttemp7
  8881                           	ttemp7 set btemp+8
  8882  0000                     	end


Data Sizes:
    Strings     0
    Constant    0
    Data        7
    BSS         6
    Persistent  6
    Stack       0

Auto Spaces:
    Space          Size  Autos    Used
    COMRAM           94     94      94
    BANK0           160      7      26
    BANK1           256      0       0
    BANK2           256      0       0
    BANK3           256      0       0
    BANK4           256      0       0
    BANK5           256      0       0
    BANK6           256      0       0
    BANK7           256      0       0

Pointer List with Targets:

    None.

Critical Paths under _main in COMRAM

    _setup->_pinMode
    _M1Atras->_digitalWrite
    _M2Atras->_digitalWrite
    _analogWrite->___fltol
    ___xxtofl->_PWM_Max_Duty
    ___fltol->___flmul
    ___flmul->___fldiv
    ___fldiv->___xxtofl
    _PWM_Max_Duty->___aldiv
    _M2Adelante->_digitalWrite
    _M1Adelante->_digitalWrite
    _CCPConfig->_PWM1_Init
    _CCPConfig->_PWM2_Init
    _PWM2_Init->___aldiv
    _PWM1_Init->___aldiv

Critical Paths under _TimerOverflow in COMRAM

    None.

Critical Paths under _main in BANK0

    _loop->_RobotAdelante
    _loop->_RobotCCW
    _loop->_RobotCW
    _RobotCW->_analogWrite
    _RobotCCW->_analogWrite
    _RobotAdelante->_analogWrite

Critical Paths under _TimerOverflow in BANK0

    None.

Critical Paths under _main in BANK1

    None.

Critical Paths under _TimerOverflow in BANK1

    None.

Critical Paths under _main in BANK2

    None.

Critical Paths under _TimerOverflow in BANK2

    None.

Critical Paths under _main in BANK3

    None.

Critical Paths under _TimerOverflow in BANK3

    None.

Critical Paths under _main in BANK4

    None.

Critical Paths under _TimerOverflow in BANK4

    None.

Critical Paths under _main in BANK5

    None.

Critical Paths under _TimerOverflow in BANK5

    None.

Critical Paths under _main in BANK6

    None.

Critical Paths under _TimerOverflow in BANK6

    None.

Critical Paths under _main in BANK7

    None.

Critical Paths under _TimerOverflow in BANK7

    None.

Call Graph Tables:

 ---------------------------------------------------------------------------------
 (Depth) Function   	        Calls       Base Space   Used Autos Params    Refs
 ---------------------------------------------------------------------------------
 (0) _main                                                 0     0      0   33678
               _configuracionInicial
                               _loop
                              _setup
 ---------------------------------------------------------------------------------
 (1) _setup                                                0     0      0    1136
                            _pinMode
 ---------------------------------------------------------------------------------
 (2) _pinMode                                              4     3      1    1136
                                              0 COMRAM     4     3      1
 ---------------------------------------------------------------------------------
 (1) _loop                                                 0     0      0   30182
                      _RobotAdelante
                           _RobotCCW
                            _RobotCW
                        _digitalRead
 ---------------------------------------------------------------------------------
 (2) _digitalRead                                          3     3      0      22
                                              0 COMRAM     3     3      0
 ---------------------------------------------------------------------------------
 (2) _RobotCW                                              2     0      2   10028
                                              5 BANK0      2     0      2
                            _M1Atras
                         _M2Adelante
                        _analogWrite
 ---------------------------------------------------------------------------------
 (3) _M1Atras                                              0     0      0    1288
                       _digitalWrite
 ---------------------------------------------------------------------------------
 (2) _RobotCCW                                             2     0      2   10028
                                              5 BANK0      2     0      2
                         _M1Adelante
                            _M2Atras
                        _analogWrite
 ---------------------------------------------------------------------------------
 (3) _M2Atras                                              0     0      0    1288
                       _digitalWrite
 ---------------------------------------------------------------------------------
 (2) _RobotAdelante                                        2     0      2   10104
                                              5 BANK0      2     0      2
                         _M1Adelante
                         _M2Adelante
                        _analogWrite
 ---------------------------------------------------------------------------------
 (3) _analogWrite                                          5     3      2    7354
                                              0 BANK0      5     3      2
                       _PWM_Max_Duty
                            ___fldiv
                            ___flmul
                            ___fltol
                           ___xxtofl
 ---------------------------------------------------------------------------------
 (4) ___xxtofl                                            14    10      4     854
                                             20 COMRAM    14    10      4
                       _PWM_Max_Duty (ARG)
 ---------------------------------------------------------------------------------
 (4) ___fltol                                             10     6      4     381
                                             84 COMRAM    10     6      4
                       _PWM_Max_Duty (ARG)
                            ___fldiv (ARG)
                            ___flmul (ARG)
                           ___xxtofl (ARG)
 ---------------------------------------------------------------------------------
 (4) ___flmul                                             25    17      8    2656
                                             59 COMRAM    25    17      8
                       _PWM_Max_Duty (ARG)
                            ___fldiv (ARG)
                           ___xxtofl (ARG)
 ---------------------------------------------------------------------------------
 (4) ___fldiv                                             25    17      8    1855
                                             34 COMRAM    25    17      8
                           ___xxtofl (ARG)
 ---------------------------------------------------------------------------------
 (4) _PWM_Max_Duty                                         6     4      2    1060
                                             14 COMRAM     6     4      2
                            ___aldiv
 ---------------------------------------------------------------------------------
 (3) _M2Adelante                                           0     0      0    1288
                       _digitalWrite
 ---------------------------------------------------------------------------------
 (3) _M1Adelante                                           0     0      0    1288
                       _digitalWrite
 ---------------------------------------------------------------------------------
 (4) _digitalWrite                                         4     3      1    1288
                                              0 COMRAM     4     3      1
 ---------------------------------------------------------------------------------
 (1) _configuracionInicial                                 0     0      0    2360
                          _ADCConfig
                          _CCPConfig
                 _PORTSConfiguration
                         _TMR0Config
                         _TMR1Config
 ---------------------------------------------------------------------------------
 (2) _TMR1Config                                           0     0      0       0
 ---------------------------------------------------------------------------------
 (2) _TMR0Config                                           0     0      0       0
 ---------------------------------------------------------------------------------
 (2) _PORTSConfiguration                                   0     0      0       0
 ---------------------------------------------------------------------------------
 (2) _CCPConfig                                            0     0      0    2360
                          _PWM1_Init
                         _PWM1_Start
                          _PWM2_Init
                         _PWM2_Start
 ---------------------------------------------------------------------------------
 (3) _PWM2_Start                                           0     0      0       0
 ---------------------------------------------------------------------------------
 (3) _PWM2_Init                                            8     4      4    1180
                                             14 COMRAM     8     4      4
                            ___aldiv
 ---------------------------------------------------------------------------------
 (3) _PWM1_Start                                           0     0      0       0
 ---------------------------------------------------------------------------------
 (3) _PWM1_Init                                            8     4      4    1180
                                             14 COMRAM     8     4      4
                            ___aldiv
 ---------------------------------------------------------------------------------
 (5) ___aldiv                                             14     6      8    1060
                                              0 COMRAM    14     6      8
 ---------------------------------------------------------------------------------
 (2) _ADCConfig                                            0     0      0       0
 ---------------------------------------------------------------------------------
 Estimated maximum stack depth 5
 ---------------------------------------------------------------------------------
 (Depth) Function   	        Calls       Base Space   Used Autos Params    Refs
 ---------------------------------------------------------------------------------
 (6) _TimerOverflow                                        0     0      0       0
 ---------------------------------------------------------------------------------
 Estimated maximum stack depth 6
 ---------------------------------------------------------------------------------

 Call Graph Graphs:

 _main (ROOT)
   _configuracionInicial
     _ADCConfig
     _CCPConfig
       _PWM1_Init
         ___aldiv
       _PWM1_Start
       _PWM2_Init
         ___aldiv
       _PWM2_Start
     _PORTSConfiguration
     _TMR0Config
     _TMR1Config
   _loop
     _RobotAdelante
       _M1Adelante
         _digitalWrite
       _M2Adelante
         _digitalWrite
       _analogWrite
         _PWM_Max_Duty
           ___aldiv
         ___fldiv
           ___xxtofl (ARG)
             _PWM_Max_Duty (ARG)
               ___aldiv
         ___flmul
           _PWM_Max_Duty (ARG)
             ___aldiv
           ___fldiv (ARG)
             ___xxtofl (ARG)
               _PWM_Max_Duty (ARG)
                 ___aldiv
           ___xxtofl (ARG)
             _PWM_Max_Duty (ARG)
               ___aldiv
         ___fltol
           _PWM_Max_Duty (ARG)
             ___aldiv
           ___fldiv (ARG)
             ___xxtofl (ARG)
               _PWM_Max_Duty (ARG)
                 ___aldiv
           ___flmul (ARG)
             _PWM_Max_Duty (ARG)
               ___aldiv
             ___fldiv (ARG)
               ___xxtofl (ARG)
                 _PWM_Max_Duty (ARG)
                   ___aldiv
             ___xxtofl (ARG)
               _PWM_Max_Duty (ARG)
                 ___aldiv
           ___xxtofl (ARG)
             _PWM_Max_Duty (ARG)
               ___aldiv
         ___xxtofl
           _PWM_Max_Duty (ARG)
             ___aldiv
     _RobotCCW
       _M1Adelante
         _digitalWrite
       _M2Atras
         _digitalWrite
       _analogWrite
         _PWM_Max_Duty
           ___aldiv
         ___fldiv
           ___xxtofl (ARG)
             _PWM_Max_Duty (ARG)
               ___aldiv
         ___flmul
           _PWM_Max_Duty (ARG)
             ___aldiv
           ___fldiv (ARG)
             ___xxtofl (ARG)
               _PWM_Max_Duty (ARG)
                 ___aldiv
           ___xxtofl (ARG)
             _PWM_Max_Duty (ARG)
               ___aldiv
         ___fltol
           _PWM_Max_Duty (ARG)
             ___aldiv
           ___fldiv (ARG)
             ___xxtofl (ARG)
               _PWM_Max_Duty (ARG)
                 ___aldiv
           ___flmul (ARG)
             _PWM_Max_Duty (ARG)
               ___aldiv
             ___fldiv (ARG)
               ___xxtofl (ARG)
                 _PWM_Max_Duty (ARG)
                   ___aldiv
             ___xxtofl (ARG)
               _PWM_Max_Duty (ARG)
                 ___aldiv
           ___xxtofl (ARG)
             _PWM_Max_Duty (ARG)
               ___aldiv
         ___xxtofl
           _PWM_Max_Duty (ARG)
             ___aldiv
     _RobotCW
       _M1Atras
         _digitalWrite
       _M2Adelante
         _digitalWrite
       _analogWrite
         _PWM_Max_Duty
           ___aldiv
         ___fldiv
           ___xxtofl (ARG)
             _PWM_Max_Duty (ARG)
               ___aldiv
         ___flmul
           _PWM_Max_Duty (ARG)
             ___aldiv
           ___fldiv (ARG)
             ___xxtofl (ARG)
               _PWM_Max_Duty (ARG)
                 ___aldiv
           ___xxtofl (ARG)
             _PWM_Max_Duty (ARG)
               ___aldiv
         ___fltol
           _PWM_Max_Duty (ARG)
             ___aldiv
           ___fldiv (ARG)
             ___xxtofl (ARG)
               _PWM_Max_Duty (ARG)
                 ___aldiv
           ___flmul (ARG)
             _PWM_Max_Duty (ARG)
               ___aldiv
             ___fldiv (ARG)
               ___xxtofl (ARG)
                 _PWM_Max_Duty (ARG)
                   ___aldiv
             ___xxtofl (ARG)
               _PWM_Max_Duty (ARG)
                 ___aldiv
           ___xxtofl (ARG)
             _PWM_Max_Duty (ARG)
               ___aldiv
         ___xxtofl
           _PWM_Max_Duty (ARG)
             ___aldiv
     _digitalRead
   _setup
     _pinMode

 _TimerOverflow (ROOT)

 Address spaces:
Name               Size   Autos  Total    Cost      Usage
BIGRAM             7FF      0       0      21        0.0%
EEDATA             100      0       0       0        0.0%
BITBANK7           100      0       0      18        0.0%
BANK7              100      0       0      19        0.0%
BITBANK6           100      0       0      16        0.0%
BANK6              100      0       0      17        0.0%
BITBANK5           100      0       0      14        0.0%
BANK5              100      0       0      15        0.0%
BITBANK4           100      0       0      12        0.0%
BANK4              100      0       0      13        0.0%
BITBANK3           100      0       0      10        0.0%
BANK3              100      0       0      11        0.0%
BITBANK2           100      0       0       8        0.0%
BANK2              100      0       0       9        0.0%
BITBANK1           100      0       0       6        0.0%
BANK1              100      0       0       7        0.0%
BITBANK0            A0      0       0       4        0.0%
BANK0               A0      7      1A       5       16.3%
BITCOMRAM           5E      0       0       0        0.0%
COMRAM              5E     5E      5E       1      100.0%
BITSFR               0      0       0     200        0.0%
SFR                  0      0       0     200        0.0%
STACK                0      0       0       2        0.0%
NULL                 0      0       0       0        0.0%
ABS                  0      0      78      20        0.0%
DATA                 0      0      78       3        0.0%
CODE                 0      0       0       0        0.0%


Microchip Technology PIC18 Macro Assembler V2.00 build -1524193055 
Symbol Table                                                                                   Sun Jan 13 22:21:13 2019

           __size_of_ADCConfig 0016                   ___fldiv@aexp 003B                   ___fldiv@bexp 003A  
                 ___fldiv@sign 0033                    __CFG_BORV$3 000000                   __CFG_CP0$OFF 000000  
                 __CFG_CP1$OFF 000000                   __CFG_CP2$OFF 000000                   __CFG_CP3$OFF 000000  
                          l200 7058                            l201 713C                            l210 6D3C  
                          l211 6D4A                            l204 6E4A                            l220 6DC8  
                          l212 6D58                            l301 63DA                            l221 6DD6  
                          l213 6D66                            l205 6D04                            l206 6F1C  
                          l222 6DE4                            l214 6D74                            l223 6DF2  
                          l215 6D82                            l207 6D12                            l304 6238  
                          l224 6E00                            l216 6D90                            l208 6D20  
                          l232 739E                            l240 71C6                            l161 629E  
                          l225 6E0E                            l217 6D9E                            l209 6D2E  
                          l241 71E0                            l233 7144                            l226 6E1C  
                          l218 6DAC                            l250 72CA                            l242 71FA  
                          l234 7470                            l227 6E2A                            l219 6DBA  
                          l235 7470                            l251 72E4                            l243 7214  
                          l155 636A                            l316 623E                            l228 6E38  
                          l252 72FE                            l244 722E                            l236 715E  
                          l180 6F40                            l156 6372                            l229 6F1C  
                          l253 7318                            l245 7248                            l237 7178  
                          l181 6F4E                            l157 6376                            l350 652E  
                          l254 7332                            l246 7262                            l238 7192  
                          l190 6FCC                            l182 6F5C                            l158 6376  
                          l255 734C                            l247 727C                            l239 71AC  
                          l191 6FDA                            l183 6F6A                            l336 6272  
                          l256 7366                            l248 7296                            l176 706A  
                          l192 6FE8                            l184 6F78                            l281 6288  
                          l353 659C                            l257 7380                            l249 72B0  
                          l193 6FF6                            l185 6F86                            l177 6F24  
                          l362 625E                            l178 713C                            l194 7004  
                          l186 6F94                            l347 646A                            l195 7012  
                          l187 6FA2                            l179 6F32                            l356 6252  
                          l292 6CD0                            l460 6622                            l196 7020  
                          l188 6FB0                            l293 6AEA                            l461 667A  
                          l197 702E                            l189 6FBE                            l294 6BD8  
                          l470 633A                            l462 6664                            l198 703C  
                          l295 6CFC                            l463 6676                            l199 704A  
                          l455 64C0                            l800 6904                            l296 6BDC  
                          l464 667E                            l473 62D2                            l801 6878  
                          l297 6CC8                            l810 68F0                            l802 685C  
                          l298 6CFC                            l458 65E0                            l467 62B8  
                          l803 6860                            l459 667E                            l580 6776  
                          l572 66AA                            l804 6874                            l476 6306  
                          l581 679E                            l573 66D0                            l805 68CC  
                          l485 6320                            l582 67B2                            l574 677A  
                          l806 68A0                            l575 670E                            l807 68B4  
                          l479 62EC                            l576 66FE                            l808 68A4  
                          l488 6354                            l577 6720                            l809 68C8  
                          l578 6724                            l579 6762                            l799 67E2  
                 __CFG_CPB$OFF 000000                            _PR2 000FCB                   __CFG_CPD$OFF 000000  
                          _PWM 0062                   __CFG_BOR$OFF 000000             __size_of_CCPConfig 0032  
                          wreg 000FE8                   ___flmul@aexp 004D                   ___flmul@bexp 004E  
                 ___flmul@sign 0048                   ___flmul@temp 0053                   ___flmul@prod 004F  
              __end_of_M1Atras 633C                __end_of_M2Atras 6308                   __CFG_LVP$OFF 000000  
                 ___fltol@exp1 005E                   __CFG_WDT$OFF 000000                           l1100 7786  
                         l1101 7782                           l1102 77E6                           l1110 78B2  
                         l1103 77E2                           l1111 78EC                           l1104 781A  
                         l1120 798E                           l1112 78E6                           l1105 7854  
                         l1121 7CFE                           l1113 7900                           l1106 786C  
                         l1130 7C50                           l1122 7B7C                           l1114 7920  
                         l1107 7872                           l1131 7C4C                           l1123 7B4E  
                         l1115 795A                           l2100 74B2                           l1132 7C7E  
                         l1124 7B68                           l1116 7954                           l1133 7CE6  
                         l1125 7B8E                           l1117 796A                           l2110 74EA  
                         l2102 74C6                           l1134 7CB0                           l1126 7BF0  
                         l1118 79A6                           l1135 7CE2                           l1127 7BD6  
                         l2040 66AA                           l2032 6680                           l2200 77B0  
                         l2120 7524                           l1080 7504                           l2112 74F0  
                         l2104 74C8                           l1136 7CD8                           l1128 7BF0  
                         l1160 699E                           l1081 7542                           l1129 7BEC  
                         l1161 6AE0                           l2050 66F6                           l2042 66B8  
                         l2034 6684                           l2210 7834                           l2202 77DA  
                         l1090 766C                           l2130 756C                           l1082 7538  
                         l2122 7538                           l2114 74FE                           l2106 74D0  
                         l1162 69B6                           l1091 76AE                           l1083 7556  
                         l1171 6A6C                           l1163 69A6                           l2060 674C  
                         l2052 66FE                           l2044 66C8                           l2036 6692  
                         l2220 7872                           l2212 7854                           l2204 77E6  
                         l1092 76C4                           l1084 75A0                           l2132 757C  
                         l2140 75A0                           l2124 753A                           l2116 7504  
                         l2108 74E4                           l1076 7492                           l2300 7AA6  
                         l1172 6A6C                           l1164 69E8                           l3020 6CE6  
                         l1093 76E0                           l1085 7890                           l1077 74D0  
                         l1173 6A80                           l1165 6A04                           l2070 678A  
                         l2062 675C                           l2054 670E                           l2046 66D0  
                         l2038 66A2                           l3022 6E5E                           l2222 7878  
                         l2214 7858                           l2206 7800                           l1094 7712  
                         l2150 7600                           l1086 75D8                           l2142 75B0  
                         l2134 7584                           l2118 7514                           l2126 7542  
                         l1078 74C6                           l2310 7B4E                           l2302 7AC2  
                         l2230 789E                           l1174 6ACC                           l1166 69EC  
                         l1158 695C                           l1095 76E4                           l1087 76B0  
                         l1079 74E4                           l1167 6A36                           l1159 6970  
                         l2072 679E                           l2064 6762                           l2056 6724  
                         l2048 66E0                           l2080 6E4A                           l2224 787C  
                         l2216 7866                           l2208 781A                           l1096 76FE  
                         l2160 7648                           l1088 7638                           l2152 7610  
                         l2144 75C0                           l2136 7588                           l2128 7556  
                         l2320 7B92                           l2312 7B58                           l2304 7AEC  
                         l2240 78E6                           l2232 78AC                           l2400 6904  
                         l1168 6A4A                           l3016 707E                           l1097 7724  
                         l1089 767A                           l1169 6A3A                           l2074 67B2  
                         l2066 676C                           l2058 672E                           l2226 7890  
                         l2218 786C                           l1098 7786                           l2170 769A  
                         l2162 765C                           l2154 7620                           l2146 75D4  
                         l2138 759C                           l2090 7472                           l2330 7C0C  
                         l2322 7BA0                           l2314 7B66                           l2306 7B22  
                         l2250 791A                           l2242 78EC                           l2234 78B2  
                         l2410 6986                           l2402 6908                           l3018 73B2  
                         l1099 776C                           l2500 627C                           l2068 677A  
                         l2076 6D00                           l2180 76EE                           l2172 76AE  
                         l2164 766A                           l2156 7630                           l2148 75D8  
                         l2092 747E                           l2340 7C7E                           l2332 7C1A  
                         l2324 7BCE                           l2316 7B7C                           l2308 7B30  
                         l2260 795A                           l2252 7920                           l2244 7900  
                         l2236 78C2                           l2228 7892                           l2420 69EC  
                         l2412 699A                           l2404 6918                           l2502 63AA  
                         l2510 6264                           l2078 6E46                           l2086 6418  
                         l2190 7736                           l2182 76FC                           l2174 76C4  
                         l2166 767A                           l2158 7638                           l2094 748C  
                         l2350 7CD8                           l2342 7C98                           l2334 7C44  
                         l2326 7BE4                           l2318 7B8E                           l2270 79B2  
                         l2262 797A                           l2254 7930                           l2246 7906  
                         l2238 78D2                           l2430 6A58                           l2422 69EE  
                         l2414 699E                           l2406 6926                           l2504 63D2  
                         l2512 626A                           l2520 623A                           l2600 628A  
                         l2088 646A                           l2192 7764                           l2176 76DA  
                         l2184 7712                           l2168 7698                           l2096 7492  
                         l2344 7CB4                           l2352 7CE6                           l2328 7C00  
                         l2336 7C50                           l2280 7A02                           l2272 79BC  
                         l2264 798E                           l2256 7940                           l2248 790C  
                         l2360 67CA                           l2440 6AB8                           l2432 6A7A  
                         l2424 69FA                           l2416 69A6                           l2408 6970  
                         l2506 63D6                           l2514 626C                           l2602 628E  
                         l2194 777A                           l2186 7724                           l2178 76E4  
                         l2098 74A2                           l2354 7CEA                           l2346 7CC4  
                         l2338 7C6A                           l2290 7A44                           l2282 7A0E  
                         l2274 79D2                           l2266 79A2                           l2258 7954  
                         l2370 681E                           l2362 67DE                           l2442 6AC6  
                         l2434 6A80                           l2426 6A3A                           l2418 69B6  
                         l2450 6AEA                           l2522 6F20                           l2610 646C  
                         l2516 626E                           l2508 6260                           l2604 6292  
                         l2196 7796                           l2188 7728                           l2356 7CFE  
                         l2348 7CD2                           l2292 7A54                           l2284 7A1C  
                         l2276 79DE                           l2268 79A6                           l2380 6860  
                         l2372 6822                           l2364 67E2                           l2444 6ACC  
                         l2436 6A84                           l2428 6A4A                           l2460 6BDC  
                         l2452 6AFE                           l2540 71A8                           l2532 7140  
                         l2620 65F8                           l2612 659E                           l2524 7066  
                         l2518 6270                           l2606 6296                           l2198 77A2  
                         l2294 7A6E                           l2286 7A28                           l2278 79F6  
                         l2390 68A4                           l2382 686A                           l2374 6830  
                         l2366 680C                           l2358 67B4                           l2446 6AE0  
                         l2438 6AA8                           l2470 6CCC                           l2462 6BEE  
                         l2454 6B90                           l2550 722A                           l2542 71C2  
                         l2534 715A                           l2630 6664                           l2622 6610  
                         l2614 65B6                           l2526 706A                           l2480 651E  
                         l2608 629A                           l2296 7A7E                           l2288 7A38  
                         l2392 68B4                           l2376 6844                           l2384 6878  
                         l2368 680E                           l2464 6C80                           l2456 6BA8  
                         l2472 6CD0                           l2448 6AE6                           l2560 72AC  
                         l2552 7244                           l2544 71DC                           l2536 7174  
                         l2624 6622                           l2616 65CE                           l2482 6530  
                         l2490 62A0                           l2298 7A9A                           l2386 6888  
                         l2394 68CC                           l2378 6858                           l2466 6C98  
                         l2458 6BBC                           l2570 732E                           l2562 72C6  
                         l2554 725E                           l2546 71F6                           l2538 718E  
                         l2626 663A                           l2618 65E0                           l2484 658C  
                         l2396 68DC                           l2388 689C                           l2468 6CAC  
                         l2492 6322                           l2580 739A                           l2572 7348  
                         l2564 72E0                           l2556 7278                           l2548 7210  
                         l2628 6652                           l2478 64C2                           l2486 6248  
                         l2494 62BA                           l2398 68F0                           l2590 62DC  
                         l2574 7362                           l2566 72FA                           l2558 7292  
                         l2582 739E                           l2488 6254                           l2496 62EE  
                         l2592 633C                           l2576 737C                           l2568 7314  
                         l2840 635E                           l2498 6274                           l2594 6344  
                         l2578 7396                           l2842 636A                           l2588 62D4  
                         l2596 6308                           l2598 6310                           l2838 6356  
                         _BRGH 007D62                           _CREN 007D5C                           _FERR 007D5A  
                         u2100 74FE                           u2005 6DFA                           u2101 74FA  
                         u2006 6DFC                           u2110 7514                           u2015 6E08  
                         u2111 7510                           u2016 6E0A                           u2200 76FC  
                         u2120 7524                           u3000 71D6                           u2025 6E16  
                         u2201 76F8                           u2121 7520                           u3001 71D0  
                         u2026 6E18                           u2210 7720                           u2130 756C  
                         u3010 71F0                           u2035 6E24                           u2211 771C  
                         u2131 7568                           u3011 71EA                           u2036 6E26  
                         u2220 7736                           u2140 75B0                           u2300 78AC  
                         u3100 72DA                           u3020 720A                           u2045 6E32  
                         u2221 7732                           u2141 75AC                           u2301 78A8  
                         u3101 72D4                           u3021 7204                           u2046 6E34  
                         u2230 7764                           u2150 7648                           u2070 748C  
                         u2310 78C2                           u3110 72F4                           u3030 7224  
                         u3006 71D8                           u2055 6E40                           u2231 7760  
                         u2151 7644                           u2071 7488                           u2311 78BE  
                         u3111 72EE                           u3031 721E                           u2056 6E42  
                         u2240 777A                           u2160 766A                           u2080 74A2  
                         u2400 7B8A                           u2320 78D2                           u3120 730E  
                         u3040 723E                           u3016 71F2                           u3200 65F8  
                         u2065 643A                           u2241 7776                           u2161 7666  
                         u2081 749E                           u2401 7B86                           u2321 78CE  
                         u3121 7308                           u3041 7238                           u3201 65F4  
                         u2250 7796                           u2170 7698                           u2090 74B2  
                         u2410 7BA0                           u2330 791A                           u3130 7328  
                         u3106 72DC                           u3050 7258                           u3026 720C  
                         u3210 6610                           u2251 7792                           u2171 7694  
                         u2091 74AE                           u2411 7B9C                           u2331 7916  
                         u3131 7322                           u3051 7252                           u3211 660C  
                         u2260 77B0                           u2180 76C0                           u2420 7BCE  
                         u2340 7930                           u2500 6802                           u3140 7342  
                         u3116 72F6                           u3060 7272                           u3036 7226  
                         u3220 663A                           u2261 77AC                           u2181 76BC  
                         u2421 7BCA                           u2341 792C                           u3141 733C  
                         u3061 726C                           u3221 6636                           u2270 7800  
                         u2190 76DA                           u2430 7BE4                           u2350 7940  
                         u2510 6830                           u3150 735C                           u3126 7310  
                         u3070 728C                           u3046 7240                           u3230 6652  
                         u2271 77FC                           u2191 76D6                           u2431 7BE0  
                         u2351 793C                           u2511 682C                           u3151 7356  
                         u3071 7286                           u3231 664E                           u1800 671C  
                         u2280 7834                           u2440 7C00                           u2360 797A  
                         u2520 6844                           u2600 6A32                           u3160 7376  
                         u3136 732A                           u3080 72A6                           u3056 725A  
                         u1801 6718                           u2281 7830                           u2441 7BFC  
                         u2361 7976                           u2521 6840                           u2505 67F8  
                         u2601 6A2E                           u3161 7370                           u3081 72A0  
                         u1810 674C                           u2290 7866                           u2450 7C1A  
                         u2370 798A                           u2530 6888                           u2610 6A58  
                         u3170 7390                           u3146 7344                           u3090 72C0  
                         u3066 7274                           u1811 6748                           u2291 7862  
                         u2451 7C16                           u2371 7986                           u2531 6884  
                         u2611 6A54                           u3171 738A                           u3091 72BA  
                         u1820 678A                           u2460 7C6A                           u2380 7B0C  
                         u2540 68C4                           u2620 6A68                           u3156 735E  
                         u3076 728E                           u3180 65B6                           u1821 6786  
                         u2461 7C66                           u2541 68C0                           u2621 6A64  
                         u3181 65B2                           u2470 7C98                           u2390 7B66  
                         u2550 68DC                           u2630 6A7A                           u3166 7378  
                         u3086 72A8                           u3190 65CE                           u2471 7C94  
                         u2391 7B62                           u2551 68D8                           u2631 6A76  
                         u3191 65CA                           u2480 7CD2                           u2640 6AB8  
                         u2560 6918                           u3176 7392                           u3096 72C2  
                         u2705 6552                           u1905 6D6E                           u2481 7CCE  
                         u2385 7B02                           u2641 6AB4                           u2561 6914  
                         u1770 6692                           u1906 6D70                           u2490 67CA  
                         u2650 6AC6                           u2570 6926                           u1771 668E  
                         u2715 6564                           u1915 6D7C                           u1835 6D0C  
                         u2491 67C6                           u2651 6AC2                           u2571 6922  
                         u1780 66B8                           u1916 6D7E                           u1836 6D0E  
                         u2580 6986                           u2660 6AFE                           u1781 66B4  
                         u1925 6D8A                           u1845 6D1A                           u2581 6982  
                         u2661 6AFA                           u2805 6F9C                           u2725 6F2C  
                         u1790 66F6                           u1926 6D8C                           u1846 6D1C  
                         u2590 69E4                           u2670 6BEE                           u2806 6F9E  
                         u2726 6F2E                           u1791 66F2                           u1935 6D98  
                         u1855 6D28                           u2591 69E0                           u2671 6BEA  
                         u2815 6FAA                           u2735 6F3A                           u1936 6D9A  
                         u1856 6D2A                           u2816 6FAC                           u2736 6F3C  
                         u1945 6DA6                           u1865 6D36                           u2905 7028  
                         u2825 6FB8                           u2745 6F48                           u1946 6DA8  
                         u1866 6D38                           u2906 702A                           u2826 6FBA  
                         u2746 6F4A                           u1955 6DB4                           u1875 6D44  
                         u2915 7036                           u2835 6FC6                           u2755 6F56  
                         u1956 6DB6                           u1876 6D46                           u2916 7038  
                         u2836 6FC8                           u2756 6F58                           u2685 64E4  
                         u1965 6DC2                           u1885 6D52                           u2925 7044  
                         u2845 6FD4                           u2765 6F64                           u1966 6DC4  
                         u1886 6D54                           u2950 7154                           u2926 7046  
                         u2846 6FD6                           u2766 6F66                           u2695 64F6  
                         u1975 6DD0                           u1895 6D60                           u2951 714E  
                         u2935 7052                           u2855 6FE2                           u2775 6F72  
                         u1976 6DD2                           u1896 6D62                           u2960 716E  
                         u2936 7054                           u2856 6FE4                           u2776 6F74  
                         u1985 6DDE                           u2961 7168                           u2945 7060  
                         u2865 6FF0                           u2785 6F80                           u1986 6DE0  
                         u2970 7188                           u2946 7062                           u2866 6FF2  
                         u2786 6F82                           u1995 6DEC                           u2971 7182  
                         u2875 6FFE                           u2795 6F8E                           u1996 6DEE  
                         u2980 71A2                           u2956 7156                           u2876 7000  
                         u2796 6F90                           _RCIF 007CF5                           u2981 719C  
                         u2885 700C                           u2990 71BC                           u2966 7170  
                         u2886 700E                           u2991 71B6                           u2895 701A  
                         u2976 718A                           u2896 701C                   _PWM_Max_Duty 6418  
                         u2986 71A4                           u2996 71BE                           _OERR 007D59  
                         _TMR0 000FD6                           _SPEN 007D5F                           _TRMT 007D61  
                         _TXEN 007D65                           _SYNC 007D64                           _main 6356  
                         _freq 0070                           _loop 659E                           fsr1l 000FE1  
                         btemp 005F            __size_of_M1Adelante 001A                           prodh 000FF4  
                         prodl 000FF3                           start 000E                  __CFG_IESO$OFF 000000  
          __size_of_M2Adelante 001A                ___fldiv@new_exp 0034                  __CFG_MCLRE$ON 000000  
                 ___param_bank 000000                __end_of_RobotCW 6356                  __CFG_PLLDIV$5 000000  
               __CFG_CCP2MX$ON 000000                  ___fltol@sign1 005D                __end_of___aldiv 67B4  
                        ?_main 0001                __end_of___fldiv 7892                          ?_loop 0001  
              __end_of___flmul 7D00                __end_of___fltol 6906                          _T1CON 000FCD  
                        i2l312 63A6                          i2l313 63A6                          _RCIDL 007DC6  
                        _RCREG 000FAE                          _TMR0H 000FD7                          _TMR1H 000FCF  
                        _TMR0L 000FD6                          _TMR1L 000FCE                          _SPBRG 000FAF  
                __CFG_USBDIV$1 000000                          _TRISA 000F92                          _TRISB 000F93  
                        _TRISC 000F94                          _TRISD 000F95                          _TXREG 000FAD  
                  ?_TMR0Config 0001                  __CFG_PWRT$OFF 000000                    ?_TMR1Config 0001  
                __CFG_WRT0$OFF 000000                  __CFG_WRT1$OFF 000000                  __CFG_WRT2$OFF 000000  
                __CFG_WRT3$OFF 000000                 __CFG_EBTR0$OFF 000000                 __CFG_FCMEN$OFF 000000  
               __CFG_EBTR1$OFF 000000                 __CFG_EBTR2$OFF 000000                 __CFG_EBTR3$OFF 000000  
                __CFG_WRTB$OFF 000000                  __CFG_WRTC$OFF 000000                  __CFG_WRTD$OFF 000000  
           __size_of_PWM1_Init 006E                    ?_PWM1_Start 0001             __size_of_PWM2_Init 006E  
                  ?_PWM2_Start 0001                 __CFG_EBTRB$OFF 000000              __end_of_ADCConfig 628A  
              __end_of_pinMode 713E                          _setup 646C                          tablat 000FF5  
                        ttemp5 0060                          ttemp6 0063                          ttemp7 0067  
                        status 000FD8                          wtemp8 0060                 __CFG_ICPRT$OFF 000000  
            __end_of_CCPConfig 63DC           __size_of_analogWrite 021C           __end_of_digitalWrite 6F1E  
              __initialization 63DC                   __end_of_main 637A                   __end_of_loop 6680  
        __end_of_RobotAdelante 62EE                         ??_main 005F                         ??_loop 005F  
                    ??_M1Atras 0005                      ??_M2Atras 0005                  __activetblptr 000002  
         __size_of_digitalRead 0334               __end_of_RobotCCW 6322                         _ADCON0 000FC2  
                       _ADCON1 000FC1                         _ADCON2 000FC0                         _CCP1M2 007DEA  
                       _CCP1M3 007DEB                         _CCP2M2 007DD2                         _CCP2M3 007DD3  
                       _ADRESH 000FC4                         _ADRESL 000FC3                         _CCPR1L 000FBE  
                       _CCPR2L 000FBB                         ?_setup 0001                         i2l2850 639A  
                       i2l2852 639E                         i2l2844 637C                         i2l2846 638A  
                       i2l2848 6398                         _TMR2ON 007E52                         _TRISC6 007CA6  
                       _TRISC7 007CA7               __end_of___xxtofl 6AE2                 __CFG_XINST$OFF 000000  
          __size_of_TMR0Config 0002                      ??_RobotCW 005F            __size_of_TMR1Config 0006  
            __end_of_PWM1_Init 6530              __end_of_PWM2_Init 659E                      ??___aldiv 0009  
                    ??___fldiv 002B                 __CFG_STVREN$ON 000000            __size_of_PWM1_Start 000C  
                    ??___flmul 0044                      ??___fltol 0059  __size_of_configuracionInicial 0016  
          __size_of_PWM2_Start 000C                         _estado 0078                         _millis 0074  
                 ??_M1Adelante 0005          __end_of_TimerOverflow 63AA                   ??_M2Adelante 0005  
                    ??_pinMode 0002                         tblptrh 000FF7                         tblptrl 000FF6  
                       tblptru 000FF8                   ___xxtofl@arg 001F                   ___xxtofl@exp 001E  
                 ___xxtofl@val 0015                     __accesstop 0060        __end_of__initialization 640A  
              __CFG_PBADEN$OFF 000000                  ___rparam_used 000001                     ___fltol@f1 0055  
           __end_of_M1Adelante 62BA             __end_of_M2Adelante 62D4                    pinMode@mode 0001  
               __pcstackCOMRAM 0001                   __pidataBANK0 6241                  __end_of_setup 64C2  
                      ??_setup 0005                     __pbssBANK0 0074    __size_of_PORTSConfiguration 0014  
        __size_of_digitalWrite 0220                      ?_RobotCCW 006C                        _T2CKPS0 007E50  
                      _T2CKPS1 007E51                        _M1Atras 6322                        _M2Atras 62EE  
                 ??_TMR0Config 0001                      ?___xxtofl 0015                   ??_TMR1Config 0001  
                 ??_PWM1_Start 0001                   _digitalWrite 6CFE                   ??_PWM2_Start 0001  
              __CFG_VREGEN$OFF 000000                      _ADCConfig 6274                        __Hparam 0000  
                      __Lparam 0000                     ??_RobotCCW 005F                        _RobotCW 633C  
           __end_of_TMR0Config 623A             __end_of_TMR1Config 6240                 _SPBRG_Register 006E  
                      ___aldiv 6680                        ___fldiv 7472                      _CCPConfig 63AA  
                      ___flmul 7892                        ___fltol 67B4             __end_of_PWM1_Start 6254  
           __end_of_PWM2_Start 6260                        __pcinit 63DC                        __ramtop 0800  
                      __ptext0 6356                        __ptext1 646C                        __ptext2 6F1E  
                      __ptext3 659E                        __ptext4 713E                        __ptext5 633C  
                      __ptext6 6322                        __ptext7 6308                        __ptext8 62EE  
                      __ptext9 62D4                      _T1CONbits 000FCD                     ??___xxtofl 0019  
                      _pinMode 6F1E               ___aldiv@dividend 0001                 __pintcode_body 637A  
         end_of_initialization 640A                  ??_analogWrite 0069                  __Lmediumconst 0000  
                      int_func 637A                     ?_ADCConfig 0001                 digitalRead@pin 0003  
             ___aldiv@quotient 000B                        postdec1 000FE5                        postinc0 000FEE  
                   ?_CCPConfig 0001                  ??_digitalRead 0001                      _PWM1_Init 64C2  
                    _PWM2_Init 6530                      _PORTAbits 000F80                      _PORTBbits 000F81  
                    _PORTCbits 000F82                      _PORTDbits 000F83                      _PORTEbits 000F84  
                ___xxtofl@sign 001D                      _TRISAbits 000F92                      _TRISBbits 000F93  
                    _TRISCbits 000F94                      _TRISDbits 000F95                      _TRISEbits 000F96  
                  ___fldiv@grs 0036   __end_of_configuracionInicial 62A0                    ___fldiv@rem 002F  
                  ___flmul@grs 0049         __size_of_RobotAdelante 001A                    _CCP1CONbits 000FBD  
                  _CCP2CONbits 000FBA            __end_of_analogWrite 6CFE              RobotCCW@velocidad 006C  
                   ?_PWM1_Init 000F                     ?_PWM2_Init 000F            start_initialization 63DC  
          __end_of_digitalRead 7472                  ?_PWM_Max_Duty 000F                    ??_ADCConfig 0001  
       __size_of_TimerOverflow 63A2                      _SensorDer 0060                      _SensorIzq 0061  
                  ??_CCPConfig 0017              __size_of_RobotCCW 001A                    __pdataBANK0 0060  
             __CFG_LPT1OSC$OFF 000000               RobotCW@velocidad 006C                  _RobotAdelante 62D4  
                     ?_M1Atras 0001                       ?_M2Atras 0001                      ___fldiv@a 0027  
                    ___fldiv@b 0023                      ___flmul@a 0040                      ___flmul@b 003C  
                __pcstackBANK0 0067                     pinMode@pin 0004              __size_of___xxtofl 01DC  
   __end_of_PORTSConfiguration 6274                 ??_PWM_Max_Duty 0011                    _analogWrite 6AE2  
                    __pnvBANK0 006E                       ?_RobotCW 006C                      __pintcode 0008  
                     ?___aldiv 0001                       ?___fldiv 0023                       ?___flmul 003C  
                     ?___fltol 0055           _configuracionInicial 628A                 ?_RobotAdelante 006C  
                  _digitalRead 713E                    ??_PWM1_Init 0013                    ??_PWM2_Init 0013  
                _TimerOverflow 0008                       ?_pinMode 0001                 __size_of_setup 0056  
              ___aldiv@divisor 0005                ___aldiv@counter 0009                       _LATAbits 000F89  
                     _LATBbits 000F8A                       _LATCbits 000F8B                       _LATDbits 000F8C  
                     i2u363_40 638A                       i2u363_41 6386               __CFG_WDTPS$32768 000000  
        ?_configuracionInicial 0001                     _ADCON0bits 000FC2                 ?_TimerOverflow 0001  
             __size_of_M1Atras 001A               __size_of_M2Atras 001A                      copy_data0 63F0  
                     __Hrparam 0000                       _RobotCCW 6308                       __Lrparam 0000  
             __size_of_RobotCW 001A                ??_RobotAdelante 005F               __size_of___aldiv 0134  
         __end_of_PWM_Max_Duty 646C               __size_of___fldiv 0420               __size_of___flmul 046E  
             __size_of___fltol 0152                     _M1Adelante 62A0                     _M2Adelante 62BA  
                     ___xxtofl 6906               __size_of_pinMode 0220                       __ptext10 6AE2  
                     __ptext11 6906                       __ptext20 623A                       __ptext12 67B4  
                     __ptext21 6238                       __ptext13 7892                       __ptext22 6260  
                     __ptext14 7472                       __ptext23 63AA                       __ptext15 6418  
                     __ptext24 6254                       __ptext16 62BA                       __ptext25 6530  
                     __ptext17 62A0                       __ptext26 6248                       __ptext18 6CFE  
                     __ptext27 64C2                       __ptext19 628A                       __ptext28 6680  
                     __ptext29 6274                       _control1 0066                       _control2 0065  
                     _control3 0064                       _control4 0063                  __size_of_main 0024  
                __size_of_loop 00E2                   PWM1_Init@fre 000F         ??_configuracionInicial 0017  
                 PWM2_Init@fre 000F                       int$flags 005F         RobotAdelante@velocidad 006C  
              ??_TimerOverflow 0001          __CFG_CPUDIV$OSC3_PLL4 000000                     _INTCONbits 000FF2  
             analogWrite@value 0067                  ?_digitalWrite 0001                       intlevel2 0000  
                 ?_analogWrite 0067             _PORTSConfiguration 6260                   ?_digitalRead 0001  
          ?_PORTSConfiguration 0001                    ?_M1Adelante 0001                    ?_M2Adelante 0001  
             digitalWrite@mode 0001                     _TMR0Config 6238                     _TMR1Config 623A  
               ??_digitalWrite 0002                   ___aldiv@sign 000A                     _PWM1_Start 6248  
                   _PWM2_Start 6254                 analogWrite@pin 006B             __CFG_FOSC$HSPLL_HS 000000  
              digitalWrite@pin 0004           ??_PORTSConfiguration 0001          __size_of_PWM_Max_Duty 0054  
