

Microchip Technology PIC18 LITE Macro Assembler V2.00 build -1524193055 
                                                                                               Wed Mar 13 10:29:38 2019

Microchip Technology Omniscient Code Generator v2.00 (Free mode) build 20180527130849
     1  0000                     
     2                           ; Version 2.00
     3                           ; Generated 27/05/2018 GMT
     4                           
     5                           ; 
     6                           ; Copyright © 2018, Microchip Technology Inc. and its subsidiaries ("Microchip")
     7                           ; All rights reserved.
     8                           ; 
     9                           ; This software is developed by Microchip Technology Inc. and its subsidiaries ("Microch
                                 ip").
    10                           ; 
    11                           ; Redistribution and use in source and binary forms, with or without modification, are
    12                           ; permitted provided that the following conditions are met:
    13                           ; 
    14                           ;     1. Redistributions of source code must retain the above copyright notice, this lis
                                 t of
    15                           ;        conditions and the following disclaimer.
    16                           ; 
    17                           ;     2. Redistributions in binary form must reproduce the above copyright notice, this 
                                 list
    18                           ;        of conditions and the following disclaimer in the documentation and/or other
    19                           ;        materials provided with the distribution.
    20                           ; 
    21                           ;     3. Microchip's name may not be used to endorse or promote products derived from th
                                 is
    22                           ;        software without specific prior written permission.
    23                           ; 
    24                           ; THIS SOFTWARE IS PROVIDED BY MICROCHIP "AS IS" AND ANY EXPRESS OR IMPLIED WARRANTIES,

    25                           ; INCLUDING, BUT NOT LIMITED TO, THE IMPLIED WARRANTIES OF MERCHANTABILITY AND FITNESS F
                                 OR
    26                           ; PURPOSE ARE DISCLAIMED.  IN NO EVENT SHALL MICROCHIP BE LIABLE FOR ANY DIRECT, INDIREC
                                 T,
    27                           ; INCIDENTAL, SPECIAL, EXEMPLARY, OR CONSEQUENTIAL DAMAGES (INCLUDING BUT NOT LIMITED TO
                                 
    28                           ; PROCUREMENT OF SUBSTITUTE GOODS OR SERVICES; LOSS OF USE, DATA OR PROFITS; OR BUSINESS
                                 
    29                           ; INTERRUPTION) HOWSOEVER CAUSED AND ON ANY THEORY OF LIABILITY, WHETHER IN CONTRACT, ST
                                 RICT
    30                           ; LIABILITY, OR TORT (INCLUDING NEGLIGENCE OR OTHERWISE) ARISING IN ANY WAY OUT OF THE U
                                 SE OF
    31                           ; THIS SOFTWARE, EVEN IF ADVISED OF THE POSSIBILITY OF SUCH DAMAGE.
    32                           ; 
    33                           
    34                           
    35                           ; 
    36                           ; Code-generator required, PIC18F4550 Definitions
    37                           ; 
    38  0000                     fsr0 equ 0FE9h
    39  0000                     fsr0h equ 0FEAh
    40  0000                     fsr0l equ 0FE9h
    41  0000                     fsr1 equ 0FE1h
    42  0000                     fsr1h equ 0FE2h
    43  0000                     fsr1l equ 0FE1h
    44  0000                     fsr2 equ 0FD9h
    45  0000                     fsr2h equ 0FDAh
    46  0000                     fsr2l equ 0FD9h
    47  0000                     indf0 equ 0FEFh
    48  0000                     indf1 equ 0FE7h
    49  0000                     indf2 equ 0FDFh
    50  0000                     intcon equ 0FF2h
    51  0000                     nvmcon equ 00h
    52  0000                     pcl equ 0FF9h
    53  0000                     pclath equ 0FFAh
    54  0000                     pclatu equ 0FFBh
    55  0000                     plusw0 equ 0FEBh
    56  0000                     plusw1 equ 0FE3h
    57  0000                     plusw2 equ 0FDBh
    58  0000                     postdec0 equ 0FEDh
    59  0000                     postdec1 equ 0FE5h
    60  0000                     postdec2 equ 0FDDh
    61  0000                     postinc0 equ 0FEEh
    62  0000                     postinc1 equ 0FE6h
    63  0000                     postinc2 equ 0FDEh
    64  0000                     preinc0 equ 0FECh
    65  0000                     preinc1 equ 0FE4h
    66  0000                     preinc2 equ 0FDCh
    67  0000                     prod equ 0FF3h
    68  0000                     prodh equ 0FF4h
    69  0000                     prodl equ 0FF3h
    70  0000                     status equ 0FD8h
    71  0000                     tablat equ 0FF5h
    72  0000                     tblptr equ 0FF6h
    73  0000                     tblptrh equ 0FF7h
    74  0000                     tblptrl equ 0FF6h
    75  0000                     tblptru equ 0FF8h
    76  0000                     tosl equ 0FFDh
    77  0000                     wreg equ 0FE8h
    78  0000                     
     2                           opt pagewidth 120
     3  0000                     byte0	macro	val
     4                           	(getbyte(val,0))
     5                           endm
     6  0000                     byte1	macro	val
     7                           	(getbyte(val,1))
     8                           endm
     9  0000                     byte2	macro	val
    10                           	(getbyte(val,2))
    11                           endm
    12  0000                     byte3	macro	val
    13                           	(getbyte(val,3))
    14                           endm
    15  0000                     byte4	macro	val
    16                           	(getbyte(val,4))
    17                           endm
    18  0000                     byte5	macro	val
    19                           	(getbyte(val,5))
    20                           endm
    21  0000                     byte6	macro	val
    22                           	(getbyte(val,6))
    23                           endm
    24  0000                     byte7	macro	val
    25                           	(getbyte(val,7))
    26                           endm
    27  0000                     getword	macro	val,pos
    28                           	(((val) >> (8 * pos)) and 0xffff)
    29                           endm
    30  0000                     word0	macro	val
    31                           	(getword(val,0))
    32                           endm
    33  0000                     word1	macro	val
    34                           	(getword(val,2))
    35                           endm
    36  0000                     word2	macro	val
    37                           	(getword(val,4))
    38                           endm
    39  0000                     word3	macro	val
    40                           	(getword(val,6))
    41                           endm
    42  0000                     gettword	macro	val,pos
    43                           	(((val) >> (8 * pos)) and 0xffffff)
    44                           endm
    45  0000                     tword0	macro	val
    46                           	(gettword(val,0))
    47                           endm
    48  0000                     tword1	macro	val
    49                           	(gettword(val,3))
    50                           endm
    51  0000                     tword2	macro	val
    52                           	(gettword(val,6))
    53                           endm
    54  0000                     getdword	macro	val,pos
    55                           	(((val) >> (8 * pos)) and 0xffffffff)
    56                           endm
    57  0000                     dword0	macro	val
    58                           	(getdword(val,0))
    59                           endm
    60  0000                     dword1	macro	val
    61                           	(getdword(val,4))
    62                           endm
    63  0000                     clrc   macro
    64                           	bcf	status,0
    65                           endm
    66  0000                     setc   macro
    67                           	bsf	status,0
    68                           endm
    69  0000                     clrz   macro
    70                           	bcf	status,2
    71                           endm
    72  0000                     setz   macro
    73                           	bsf	status,2
    74                           endm
    75  0000                     skipnz macro
    76                           	btfsc	status,2
    77                           endm
    78  0000                     skipz  macro
    79                           	btfss	status,2
    80                           endm
    81  0000                     skipnc macro
    82                           	btfsc	status,0
    83                           endm
    84  0000                     skipc  macro
    85                           	btfss	status,0
    86                           endm
    87  0000                     pushw macro
    88                           	movwf postinc1
    89                           endm
    90  0000                     pushf macro arg1
    91                           	movff arg1, postinc1
    92                           endm
    93  0000                     popw macro
    94                           	movf postdec1,f
    95                           	movf indf1,w
    96                           endm
    97  0000                     popf macro arg1
    98                           	movf postdec1,f
    99                           	movff indf1,arg1
   100                           endm
   101  0000                     popfc macro arg1
   102                           	movff plusw1,arg1
   103                           	decfsz fsr1,f
   104                           endm
   105  0000                     	global	__ramtop
   106                           	global	__accesstop
   107                           # 54 "C:\Program Files (x86)\Microchip\xc8\v2.00\pic\include\pic18f4550.h"
   108                           SPPDATA equ 0F62h ;# 
   109  0000                     # 74 "C:\Program Files (x86)\Microchip\xc8\v2.00\pic\include\pic18f4550.h"
   110                           SPPCFG equ 0F63h ;# 
   111  0000                     # 151 "C:\Program Files (x86)\Microchip\xc8\v2.00\pic\include\pic18f4550.h"
   112                           SPPEPS equ 0F64h ;# 
   113  0000                     # 225 "C:\Program Files (x86)\Microchip\xc8\v2.00\pic\include\pic18f4550.h"
   114                           SPPCON equ 0F65h ;# 
   115  0000                     # 251 "C:\Program Files (x86)\Microchip\xc8\v2.00\pic\include\pic18f4550.h"
   116                           UFRM equ 0F66h ;# 
   117  0000                     # 258 "C:\Program Files (x86)\Microchip\xc8\v2.00\pic\include\pic18f4550.h"
   118                           UFRML equ 0F66h ;# 
   119  0000                     # 336 "C:\Program Files (x86)\Microchip\xc8\v2.00\pic\include\pic18f4550.h"
   120                           UFRMH equ 0F67h ;# 
   121  0000                     # 376 "C:\Program Files (x86)\Microchip\xc8\v2.00\pic\include\pic18f4550.h"
   122                           UIR equ 0F68h ;# 
   123  0000                     # 432 "C:\Program Files (x86)\Microchip\xc8\v2.00\pic\include\pic18f4550.h"
   124                           UIE equ 0F69h ;# 
   125  0000                     # 488 "C:\Program Files (x86)\Microchip\xc8\v2.00\pic\include\pic18f4550.h"
   126                           UEIR equ 0F6Ah ;# 
   127  0000                     # 539 "C:\Program Files (x86)\Microchip\xc8\v2.00\pic\include\pic18f4550.h"
   128                           UEIE equ 0F6Bh ;# 
   129  0000                     # 590 "C:\Program Files (x86)\Microchip\xc8\v2.00\pic\include\pic18f4550.h"
   130                           USTAT equ 0F6Ch ;# 
   131  0000                     # 650 "C:\Program Files (x86)\Microchip\xc8\v2.00\pic\include\pic18f4550.h"
   132                           UCON equ 0F6Dh ;# 
   133  0000                     # 701 "C:\Program Files (x86)\Microchip\xc8\v2.00\pic\include\pic18f4550.h"
   134                           UADDR equ 0F6Eh ;# 
   135  0000                     # 765 "C:\Program Files (x86)\Microchip\xc8\v2.00\pic\include\pic18f4550.h"
   136                           UCFG equ 0F6Fh ;# 
   137  0000                     # 844 "C:\Program Files (x86)\Microchip\xc8\v2.00\pic\include\pic18f4550.h"
   138                           UEP0 equ 0F70h ;# 
   139  0000                     # 952 "C:\Program Files (x86)\Microchip\xc8\v2.00\pic\include\pic18f4550.h"
   140                           UEP1 equ 0F71h ;# 
   141  0000                     # 1060 "C:\Program Files (x86)\Microchip\xc8\v2.00\pic\include\pic18f4550.h"
   142                           UEP2 equ 0F72h ;# 
   143  0000                     # 1168 "C:\Program Files (x86)\Microchip\xc8\v2.00\pic\include\pic18f4550.h"
   144                           UEP3 equ 0F73h ;# 
   145  0000                     # 1276 "C:\Program Files (x86)\Microchip\xc8\v2.00\pic\include\pic18f4550.h"
   146                           UEP4 equ 0F74h ;# 
   147  0000                     # 1384 "C:\Program Files (x86)\Microchip\xc8\v2.00\pic\include\pic18f4550.h"
   148                           UEP5 equ 0F75h ;# 
   149  0000                     # 1492 "C:\Program Files (x86)\Microchip\xc8\v2.00\pic\include\pic18f4550.h"
   150                           UEP6 equ 0F76h ;# 
   151  0000                     # 1600 "C:\Program Files (x86)\Microchip\xc8\v2.00\pic\include\pic18f4550.h"
   152                           UEP7 equ 0F77h ;# 
   153  0000                     # 1708 "C:\Program Files (x86)\Microchip\xc8\v2.00\pic\include\pic18f4550.h"
   154                           UEP8 equ 0F78h ;# 
   155  0000                     # 1784 "C:\Program Files (x86)\Microchip\xc8\v2.00\pic\include\pic18f4550.h"
   156                           UEP9 equ 0F79h ;# 
   157  0000                     # 1860 "C:\Program Files (x86)\Microchip\xc8\v2.00\pic\include\pic18f4550.h"
   158                           UEP10 equ 0F7Ah ;# 
   159  0000                     # 1936 "C:\Program Files (x86)\Microchip\xc8\v2.00\pic\include\pic18f4550.h"
   160                           UEP11 equ 0F7Bh ;# 
   161  0000                     # 2012 "C:\Program Files (x86)\Microchip\xc8\v2.00\pic\include\pic18f4550.h"
   162                           UEP12 equ 0F7Ch ;# 
   163  0000                     # 2088 "C:\Program Files (x86)\Microchip\xc8\v2.00\pic\include\pic18f4550.h"
   164                           UEP13 equ 0F7Dh ;# 
   165  0000                     # 2164 "C:\Program Files (x86)\Microchip\xc8\v2.00\pic\include\pic18f4550.h"
   166                           UEP14 equ 0F7Eh ;# 
   167  0000                     # 2240 "C:\Program Files (x86)\Microchip\xc8\v2.00\pic\include\pic18f4550.h"
   168                           UEP15 equ 0F7Fh ;# 
   169  0000                     # 2316 "C:\Program Files (x86)\Microchip\xc8\v2.00\pic\include\pic18f4550.h"
   170                           PORTA equ 0F80h ;# 
   171  0000                     # 2455 "C:\Program Files (x86)\Microchip\xc8\v2.00\pic\include\pic18f4550.h"
   172                           PORTB equ 0F81h ;# 
   173  0000                     # 2565 "C:\Program Files (x86)\Microchip\xc8\v2.00\pic\include\pic18f4550.h"
   174                           PORTC equ 0F82h ;# 
   175  0000                     # 2707 "C:\Program Files (x86)\Microchip\xc8\v2.00\pic\include\pic18f4550.h"
   176                           PORTD equ 0F83h ;# 
   177  0000                     # 2828 "C:\Program Files (x86)\Microchip\xc8\v2.00\pic\include\pic18f4550.h"
   178                           PORTE equ 0F84h ;# 
   179  0000                     # 2975 "C:\Program Files (x86)\Microchip\xc8\v2.00\pic\include\pic18f4550.h"
   180                           LATA equ 0F89h ;# 
   181  0000                     # 3075 "C:\Program Files (x86)\Microchip\xc8\v2.00\pic\include\pic18f4550.h"
   182                           LATB equ 0F8Ah ;# 
   183  0000                     # 3187 "C:\Program Files (x86)\Microchip\xc8\v2.00\pic\include\pic18f4550.h"
   184                           LATC equ 0F8Bh ;# 
   185  0000                     # 3265 "C:\Program Files (x86)\Microchip\xc8\v2.00\pic\include\pic18f4550.h"
   186                           LATD equ 0F8Ch ;# 
   187  0000                     # 3377 "C:\Program Files (x86)\Microchip\xc8\v2.00\pic\include\pic18f4550.h"
   188                           LATE equ 0F8Dh ;# 
   189  0000                     # 3429 "C:\Program Files (x86)\Microchip\xc8\v2.00\pic\include\pic18f4550.h"
   190                           TRISA equ 0F92h ;# 
   191  0000                     # 3434 "C:\Program Files (x86)\Microchip\xc8\v2.00\pic\include\pic18f4550.h"
   192                           DDRA equ 0F92h ;# 
   193  0000                     # 3627 "C:\Program Files (x86)\Microchip\xc8\v2.00\pic\include\pic18f4550.h"
   194                           TRISB equ 0F93h ;# 
   195  0000                     # 3632 "C:\Program Files (x86)\Microchip\xc8\v2.00\pic\include\pic18f4550.h"
   196                           DDRB equ 0F93h ;# 
   197  0000                     # 3849 "C:\Program Files (x86)\Microchip\xc8\v2.00\pic\include\pic18f4550.h"
   198                           TRISC equ 0F94h ;# 
   199  0000                     # 3854 "C:\Program Files (x86)\Microchip\xc8\v2.00\pic\include\pic18f4550.h"
   200                           DDRC equ 0F94h ;# 
   201  0000                     # 4003 "C:\Program Files (x86)\Microchip\xc8\v2.00\pic\include\pic18f4550.h"
   202                           TRISD equ 0F95h ;# 
   203  0000                     # 4008 "C:\Program Files (x86)\Microchip\xc8\v2.00\pic\include\pic18f4550.h"
   204                           DDRD equ 0F95h ;# 
   205  0000                     # 4225 "C:\Program Files (x86)\Microchip\xc8\v2.00\pic\include\pic18f4550.h"
   206                           TRISE equ 0F96h ;# 
   207  0000                     # 4230 "C:\Program Files (x86)\Microchip\xc8\v2.00\pic\include\pic18f4550.h"
   208                           DDRE equ 0F96h ;# 
   209  0000                     # 4327 "C:\Program Files (x86)\Microchip\xc8\v2.00\pic\include\pic18f4550.h"
   210                           OSCTUNE equ 0F9Bh ;# 
   211  0000                     # 4386 "C:\Program Files (x86)\Microchip\xc8\v2.00\pic\include\pic18f4550.h"
   212                           PIE1 equ 0F9Dh ;# 
   213  0000                     # 4470 "C:\Program Files (x86)\Microchip\xc8\v2.00\pic\include\pic18f4550.h"
   214                           PIR1 equ 0F9Eh ;# 
   215  0000                     # 4554 "C:\Program Files (x86)\Microchip\xc8\v2.00\pic\include\pic18f4550.h"
   216                           IPR1 equ 0F9Fh ;# 
   217  0000                     # 4638 "C:\Program Files (x86)\Microchip\xc8\v2.00\pic\include\pic18f4550.h"
   218                           PIE2 equ 0FA0h ;# 
   219  0000                     # 4709 "C:\Program Files (x86)\Microchip\xc8\v2.00\pic\include\pic18f4550.h"
   220                           PIR2 equ 0FA1h ;# 
   221  0000                     # 4780 "C:\Program Files (x86)\Microchip\xc8\v2.00\pic\include\pic18f4550.h"
   222                           IPR2 equ 0FA2h ;# 
   223  0000                     # 4851 "C:\Program Files (x86)\Microchip\xc8\v2.00\pic\include\pic18f4550.h"
   224                           EECON1 equ 0FA6h ;# 
   225  0000                     # 4917 "C:\Program Files (x86)\Microchip\xc8\v2.00\pic\include\pic18f4550.h"
   226                           EECON2 equ 0FA7h ;# 
   227  0000                     # 4924 "C:\Program Files (x86)\Microchip\xc8\v2.00\pic\include\pic18f4550.h"
   228                           EEDATA equ 0FA8h ;# 
   229  0000                     # 4931 "C:\Program Files (x86)\Microchip\xc8\v2.00\pic\include\pic18f4550.h"
   230                           EEADR equ 0FA9h ;# 
   231  0000                     # 4938 "C:\Program Files (x86)\Microchip\xc8\v2.00\pic\include\pic18f4550.h"
   232                           RCSTA equ 0FABh ;# 
   233  0000                     # 4943 "C:\Program Files (x86)\Microchip\xc8\v2.00\pic\include\pic18f4550.h"
   234                           RCSTA1 equ 0FABh ;# 
   235  0000                     # 5148 "C:\Program Files (x86)\Microchip\xc8\v2.00\pic\include\pic18f4550.h"
   236                           TXSTA equ 0FACh ;# 
   237  0000                     # 5153 "C:\Program Files (x86)\Microchip\xc8\v2.00\pic\include\pic18f4550.h"
   238                           TXSTA1 equ 0FACh ;# 
   239  0000                     # 5404 "C:\Program Files (x86)\Microchip\xc8\v2.00\pic\include\pic18f4550.h"
   240                           TXREG equ 0FADh ;# 
   241  0000                     # 5409 "C:\Program Files (x86)\Microchip\xc8\v2.00\pic\include\pic18f4550.h"
   242                           TXREG1 equ 0FADh ;# 
   243  0000                     # 5416 "C:\Program Files (x86)\Microchip\xc8\v2.00\pic\include\pic18f4550.h"
   244                           RCREG equ 0FAEh ;# 
   245  0000                     # 5421 "C:\Program Files (x86)\Microchip\xc8\v2.00\pic\include\pic18f4550.h"
   246                           RCREG1 equ 0FAEh ;# 
   247  0000                     # 5428 "C:\Program Files (x86)\Microchip\xc8\v2.00\pic\include\pic18f4550.h"
   248                           SPBRG equ 0FAFh ;# 
   249  0000                     # 5433 "C:\Program Files (x86)\Microchip\xc8\v2.00\pic\include\pic18f4550.h"
   250                           SPBRG1 equ 0FAFh ;# 
   251  0000                     # 5440 "C:\Program Files (x86)\Microchip\xc8\v2.00\pic\include\pic18f4550.h"
   252                           SPBRGH equ 0FB0h ;# 
   253  0000                     # 5447 "C:\Program Files (x86)\Microchip\xc8\v2.00\pic\include\pic18f4550.h"
   254                           T3CON equ 0FB1h ;# 
   255  0000                     # 5568 "C:\Program Files (x86)\Microchip\xc8\v2.00\pic\include\pic18f4550.h"
   256                           TMR3 equ 0FB2h ;# 
   257  0000                     # 5575 "C:\Program Files (x86)\Microchip\xc8\v2.00\pic\include\pic18f4550.h"
   258                           TMR3L equ 0FB2h ;# 
   259  0000                     # 5582 "C:\Program Files (x86)\Microchip\xc8\v2.00\pic\include\pic18f4550.h"
   260                           TMR3H equ 0FB3h ;# 
   261  0000                     # 5589 "C:\Program Files (x86)\Microchip\xc8\v2.00\pic\include\pic18f4550.h"
   262                           CMCON equ 0FB4h ;# 
   263  0000                     # 5679 "C:\Program Files (x86)\Microchip\xc8\v2.00\pic\include\pic18f4550.h"
   264                           CVRCON equ 0FB5h ;# 
   265  0000                     # 5764 "C:\Program Files (x86)\Microchip\xc8\v2.00\pic\include\pic18f4550.h"
   266                           ECCP1AS equ 0FB6h ;# 
   267  0000                     # 5769 "C:\Program Files (x86)\Microchip\xc8\v2.00\pic\include\pic18f4550.h"
   268                           CCP1AS equ 0FB6h ;# 
   269  0000                     # 5926 "C:\Program Files (x86)\Microchip\xc8\v2.00\pic\include\pic18f4550.h"
   270                           ECCP1DEL equ 0FB7h ;# 
   271  0000                     # 5931 "C:\Program Files (x86)\Microchip\xc8\v2.00\pic\include\pic18f4550.h"
   272                           CCP1DEL equ 0FB7h ;# 
   273  0000                     # 6064 "C:\Program Files (x86)\Microchip\xc8\v2.00\pic\include\pic18f4550.h"
   274                           BAUDCON equ 0FB8h ;# 
   275  0000                     # 6069 "C:\Program Files (x86)\Microchip\xc8\v2.00\pic\include\pic18f4550.h"
   276                           BAUDCTL equ 0FB8h ;# 
   277  0000                     # 6244 "C:\Program Files (x86)\Microchip\xc8\v2.00\pic\include\pic18f4550.h"
   278                           CCP2CON equ 0FBAh ;# 
   279  0000                     # 6308 "C:\Program Files (x86)\Microchip\xc8\v2.00\pic\include\pic18f4550.h"
   280                           CCPR2 equ 0FBBh ;# 
   281  0000                     # 6315 "C:\Program Files (x86)\Microchip\xc8\v2.00\pic\include\pic18f4550.h"
   282                           CCPR2L equ 0FBBh ;# 
   283  0000                     # 6322 "C:\Program Files (x86)\Microchip\xc8\v2.00\pic\include\pic18f4550.h"
   284                           CCPR2H equ 0FBCh ;# 
   285  0000                     # 6329 "C:\Program Files (x86)\Microchip\xc8\v2.00\pic\include\pic18f4550.h"
   286                           CCP1CON equ 0FBDh ;# 
   287  0000                     # 6334 "C:\Program Files (x86)\Microchip\xc8\v2.00\pic\include\pic18f4550.h"
   288                           ECCP1CON equ 0FBDh ;# 
   289  0000                     # 6491 "C:\Program Files (x86)\Microchip\xc8\v2.00\pic\include\pic18f4550.h"
   290                           CCPR1 equ 0FBEh ;# 
   291  0000                     # 6498 "C:\Program Files (x86)\Microchip\xc8\v2.00\pic\include\pic18f4550.h"
   292                           CCPR1L equ 0FBEh ;# 
   293  0000                     # 6505 "C:\Program Files (x86)\Microchip\xc8\v2.00\pic\include\pic18f4550.h"
   294                           CCPR1H equ 0FBFh ;# 
   295  0000                     # 6512 "C:\Program Files (x86)\Microchip\xc8\v2.00\pic\include\pic18f4550.h"
   296                           ADCON2 equ 0FC0h ;# 
   297  0000                     # 6583 "C:\Program Files (x86)\Microchip\xc8\v2.00\pic\include\pic18f4550.h"
   298                           ADCON1 equ 0FC1h ;# 
   299  0000                     # 6668 "C:\Program Files (x86)\Microchip\xc8\v2.00\pic\include\pic18f4550.h"
   300                           ADCON0 equ 0FC2h ;# 
   301  0000                     # 6787 "C:\Program Files (x86)\Microchip\xc8\v2.00\pic\include\pic18f4550.h"
   302                           ADRES equ 0FC3h ;# 
   303  0000                     # 6794 "C:\Program Files (x86)\Microchip\xc8\v2.00\pic\include\pic18f4550.h"
   304                           ADRESL equ 0FC3h ;# 
   305  0000                     # 6801 "C:\Program Files (x86)\Microchip\xc8\v2.00\pic\include\pic18f4550.h"
   306                           ADRESH equ 0FC4h ;# 
   307  0000                     # 6808 "C:\Program Files (x86)\Microchip\xc8\v2.00\pic\include\pic18f4550.h"
   308                           SSPCON2 equ 0FC5h ;# 
   309  0000                     # 6870 "C:\Program Files (x86)\Microchip\xc8\v2.00\pic\include\pic18f4550.h"
   310                           SSPCON1 equ 0FC6h ;# 
   311  0000                     # 6940 "C:\Program Files (x86)\Microchip\xc8\v2.00\pic\include\pic18f4550.h"
   312                           SSPSTAT equ 0FC7h ;# 
   313  0000                     # 7188 "C:\Program Files (x86)\Microchip\xc8\v2.00\pic\include\pic18f4550.h"
   314                           SSPADD equ 0FC8h ;# 
   315  0000                     # 7195 "C:\Program Files (x86)\Microchip\xc8\v2.00\pic\include\pic18f4550.h"
   316                           SSPBUF equ 0FC9h ;# 
   317  0000                     # 7202 "C:\Program Files (x86)\Microchip\xc8\v2.00\pic\include\pic18f4550.h"
   318                           T2CON equ 0FCAh ;# 
   319  0000                     # 7300 "C:\Program Files (x86)\Microchip\xc8\v2.00\pic\include\pic18f4550.h"
   320                           PR2 equ 0FCBh ;# 
   321  0000                     # 7305 "C:\Program Files (x86)\Microchip\xc8\v2.00\pic\include\pic18f4550.h"
   322                           MEMCON equ 0FCBh ;# 
   323  0000                     # 7410 "C:\Program Files (x86)\Microchip\xc8\v2.00\pic\include\pic18f4550.h"
   324                           TMR2 equ 0FCCh ;# 
   325  0000                     # 7417 "C:\Program Files (x86)\Microchip\xc8\v2.00\pic\include\pic18f4550.h"
   326                           T1CON equ 0FCDh ;# 
   327  0000                     # 7520 "C:\Program Files (x86)\Microchip\xc8\v2.00\pic\include\pic18f4550.h"
   328                           TMR1 equ 0FCEh ;# 
   329  0000                     # 7527 "C:\Program Files (x86)\Microchip\xc8\v2.00\pic\include\pic18f4550.h"
   330                           TMR1L equ 0FCEh ;# 
   331  0000                     # 7534 "C:\Program Files (x86)\Microchip\xc8\v2.00\pic\include\pic18f4550.h"
   332                           TMR1H equ 0FCFh ;# 
   333  0000                     # 7541 "C:\Program Files (x86)\Microchip\xc8\v2.00\pic\include\pic18f4550.h"
   334                           RCON equ 0FD0h ;# 
   335  0000                     # 7690 "C:\Program Files (x86)\Microchip\xc8\v2.00\pic\include\pic18f4550.h"
   336                           WDTCON equ 0FD1h ;# 
   337  0000                     # 7718 "C:\Program Files (x86)\Microchip\xc8\v2.00\pic\include\pic18f4550.h"
   338                           HLVDCON equ 0FD2h ;# 
   339  0000                     # 7723 "C:\Program Files (x86)\Microchip\xc8\v2.00\pic\include\pic18f4550.h"
   340                           LVDCON equ 0FD2h ;# 
   341  0000                     # 7988 "C:\Program Files (x86)\Microchip\xc8\v2.00\pic\include\pic18f4550.h"
   342                           OSCCON equ 0FD3h ;# 
   343  0000                     # 8071 "C:\Program Files (x86)\Microchip\xc8\v2.00\pic\include\pic18f4550.h"
   344                           T0CON equ 0FD5h ;# 
   345  0000                     # 8141 "C:\Program Files (x86)\Microchip\xc8\v2.00\pic\include\pic18f4550.h"
   346                           TMR0 equ 0FD6h ;# 
   347  0000                     # 8148 "C:\Program Files (x86)\Microchip\xc8\v2.00\pic\include\pic18f4550.h"
   348                           TMR0L equ 0FD6h ;# 
   349  0000                     # 8155 "C:\Program Files (x86)\Microchip\xc8\v2.00\pic\include\pic18f4550.h"
   350                           TMR0H equ 0FD7h ;# 
   351  0000                     # 8162 "C:\Program Files (x86)\Microchip\xc8\v2.00\pic\include\pic18f4550.h"
   352                           STATUS equ 0FD8h ;# 
   353  0000                     # 8233 "C:\Program Files (x86)\Microchip\xc8\v2.00\pic\include\pic18f4550.h"
   354                           FSR2 equ 0FD9h ;# 
   355  0000                     # 8240 "C:\Program Files (x86)\Microchip\xc8\v2.00\pic\include\pic18f4550.h"
   356                           FSR2L equ 0FD9h ;# 
   357  0000                     # 8247 "C:\Program Files (x86)\Microchip\xc8\v2.00\pic\include\pic18f4550.h"
   358                           FSR2H equ 0FDAh ;# 
   359  0000                     # 8254 "C:\Program Files (x86)\Microchip\xc8\v2.00\pic\include\pic18f4550.h"
   360                           PLUSW2 equ 0FDBh ;# 
   361  0000                     # 8261 "C:\Program Files (x86)\Microchip\xc8\v2.00\pic\include\pic18f4550.h"
   362                           PREINC2 equ 0FDCh ;# 
   363  0000                     # 8268 "C:\Program Files (x86)\Microchip\xc8\v2.00\pic\include\pic18f4550.h"
   364                           POSTDEC2 equ 0FDDh ;# 
   365  0000                     # 8275 "C:\Program Files (x86)\Microchip\xc8\v2.00\pic\include\pic18f4550.h"
   366                           POSTINC2 equ 0FDEh ;# 
   367  0000                     # 8282 "C:\Program Files (x86)\Microchip\xc8\v2.00\pic\include\pic18f4550.h"
   368                           INDF2 equ 0FDFh ;# 
   369  0000                     # 8289 "C:\Program Files (x86)\Microchip\xc8\v2.00\pic\include\pic18f4550.h"
   370                           BSR equ 0FE0h ;# 
   371  0000                     # 8296 "C:\Program Files (x86)\Microchip\xc8\v2.00\pic\include\pic18f4550.h"
   372                           FSR1 equ 0FE1h ;# 
   373  0000                     # 8303 "C:\Program Files (x86)\Microchip\xc8\v2.00\pic\include\pic18f4550.h"
   374                           FSR1L equ 0FE1h ;# 
   375  0000                     # 8310 "C:\Program Files (x86)\Microchip\xc8\v2.00\pic\include\pic18f4550.h"
   376                           FSR1H equ 0FE2h ;# 
   377  0000                     # 8317 "C:\Program Files (x86)\Microchip\xc8\v2.00\pic\include\pic18f4550.h"
   378                           PLUSW1 equ 0FE3h ;# 
   379  0000                     # 8324 "C:\Program Files (x86)\Microchip\xc8\v2.00\pic\include\pic18f4550.h"
   380                           PREINC1 equ 0FE4h ;# 
   381  0000                     # 8331 "C:\Program Files (x86)\Microchip\xc8\v2.00\pic\include\pic18f4550.h"
   382                           POSTDEC1 equ 0FE5h ;# 
   383  0000                     # 8338 "C:\Program Files (x86)\Microchip\xc8\v2.00\pic\include\pic18f4550.h"
   384                           POSTINC1 equ 0FE6h ;# 
   385  0000                     # 8345 "C:\Program Files (x86)\Microchip\xc8\v2.00\pic\include\pic18f4550.h"
   386                           INDF1 equ 0FE7h ;# 
   387  0000                     # 8352 "C:\Program Files (x86)\Microchip\xc8\v2.00\pic\include\pic18f4550.h"
   388                           WREG equ 0FE8h ;# 
   389  0000                     # 8359 "C:\Program Files (x86)\Microchip\xc8\v2.00\pic\include\pic18f4550.h"
   390                           FSR0 equ 0FE9h ;# 
   391  0000                     # 8366 "C:\Program Files (x86)\Microchip\xc8\v2.00\pic\include\pic18f4550.h"
   392                           FSR0L equ 0FE9h ;# 
   393  0000                     # 8373 "C:\Program Files (x86)\Microchip\xc8\v2.00\pic\include\pic18f4550.h"
   394                           FSR0H equ 0FEAh ;# 
   395  0000                     # 8380 "C:\Program Files (x86)\Microchip\xc8\v2.00\pic\include\pic18f4550.h"
   396                           PLUSW0 equ 0FEBh ;# 
   397  0000                     # 8387 "C:\Program Files (x86)\Microchip\xc8\v2.00\pic\include\pic18f4550.h"
   398                           PREINC0 equ 0FECh ;# 
   399  0000                     # 8394 "C:\Program Files (x86)\Microchip\xc8\v2.00\pic\include\pic18f4550.h"
   400                           POSTDEC0 equ 0FEDh ;# 
   401  0000                     # 8401 "C:\Program Files (x86)\Microchip\xc8\v2.00\pic\include\pic18f4550.h"
   402                           POSTINC0 equ 0FEEh ;# 
   403  0000                     # 8408 "C:\Program Files (x86)\Microchip\xc8\v2.00\pic\include\pic18f4550.h"
   404                           INDF0 equ 0FEFh ;# 
   405  0000                     # 8415 "C:\Program Files (x86)\Microchip\xc8\v2.00\pic\include\pic18f4550.h"
   406                           INTCON3 equ 0FF0h ;# 
   407  0000                     # 8507 "C:\Program Files (x86)\Microchip\xc8\v2.00\pic\include\pic18f4550.h"
   408                           INTCON2 equ 0FF1h ;# 
   409  0000                     # 8584 "C:\Program Files (x86)\Microchip\xc8\v2.00\pic\include\pic18f4550.h"
   410                           INTCON equ 0FF2h ;# 
   411  0000                     # 8701 "C:\Program Files (x86)\Microchip\xc8\v2.00\pic\include\pic18f4550.h"
   412                           PROD equ 0FF3h ;# 
   413  0000                     # 8708 "C:\Program Files (x86)\Microchip\xc8\v2.00\pic\include\pic18f4550.h"
   414                           PRODL equ 0FF3h ;# 
   415  0000                     # 8715 "C:\Program Files (x86)\Microchip\xc8\v2.00\pic\include\pic18f4550.h"
   416                           PRODH equ 0FF4h ;# 
   417  0000                     # 8722 "C:\Program Files (x86)\Microchip\xc8\v2.00\pic\include\pic18f4550.h"
   418                           TABLAT equ 0FF5h ;# 
   419  0000                     # 8731 "C:\Program Files (x86)\Microchip\xc8\v2.00\pic\include\pic18f4550.h"
   420                           TBLPTR equ 0FF6h ;# 
   421  0000                     # 8738 "C:\Program Files (x86)\Microchip\xc8\v2.00\pic\include\pic18f4550.h"
   422                           TBLPTRL equ 0FF6h ;# 
   423  0000                     # 8745 "C:\Program Files (x86)\Microchip\xc8\v2.00\pic\include\pic18f4550.h"
   424                           TBLPTRH equ 0FF7h ;# 
   425  0000                     # 8752 "C:\Program Files (x86)\Microchip\xc8\v2.00\pic\include\pic18f4550.h"
   426                           TBLPTRU equ 0FF8h ;# 
   427  0000                     # 8761 "C:\Program Files (x86)\Microchip\xc8\v2.00\pic\include\pic18f4550.h"
   428                           PCLAT equ 0FF9h ;# 
   429  0000                     # 8768 "C:\Program Files (x86)\Microchip\xc8\v2.00\pic\include\pic18f4550.h"
   430                           PC equ 0FF9h ;# 
   431  0000                     # 8775 "C:\Program Files (x86)\Microchip\xc8\v2.00\pic\include\pic18f4550.h"
   432                           PCL equ 0FF9h ;# 
   433  0000                     # 8782 "C:\Program Files (x86)\Microchip\xc8\v2.00\pic\include\pic18f4550.h"
   434                           PCLATH equ 0FFAh ;# 
   435  0000                     # 8789 "C:\Program Files (x86)\Microchip\xc8\v2.00\pic\include\pic18f4550.h"
   436                           PCLATU equ 0FFBh ;# 
   437  0000                     # 8796 "C:\Program Files (x86)\Microchip\xc8\v2.00\pic\include\pic18f4550.h"
   438                           STKPTR equ 0FFCh ;# 
   439  0000                     # 8872 "C:\Program Files (x86)\Microchip\xc8\v2.00\pic\include\pic18f4550.h"
   440                           TOS equ 0FFDh ;# 
   441  0000                     # 8879 "C:\Program Files (x86)\Microchip\xc8\v2.00\pic\include\pic18f4550.h"
   442                           TOSL equ 0FFDh ;# 
   443  0000                     # 8886 "C:\Program Files (x86)\Microchip\xc8\v2.00\pic\include\pic18f4550.h"
   444                           TOSH equ 0FFEh ;# 
   445  0000                     # 8893 "C:\Program Files (x86)\Microchip\xc8\v2.00\pic\include\pic18f4550.h"
   446                           TOSU equ 0FFFh ;# 
   447  0000                     # 54 "C:\Program Files (x86)\Microchip\xc8\v2.00\pic\include\pic18f4550.h"
   448                           SPPDATA equ 0F62h ;# 
   449  0000                     # 74 "C:\Program Files (x86)\Microchip\xc8\v2.00\pic\include\pic18f4550.h"
   450                           SPPCFG equ 0F63h ;# 
   451  0000                     # 151 "C:\Program Files (x86)\Microchip\xc8\v2.00\pic\include\pic18f4550.h"
   452                           SPPEPS equ 0F64h ;# 
   453  0000                     # 225 "C:\Program Files (x86)\Microchip\xc8\v2.00\pic\include\pic18f4550.h"
   454                           SPPCON equ 0F65h ;# 
   455  0000                     # 251 "C:\Program Files (x86)\Microchip\xc8\v2.00\pic\include\pic18f4550.h"
   456                           UFRM equ 0F66h ;# 
   457  0000                     # 258 "C:\Program Files (x86)\Microchip\xc8\v2.00\pic\include\pic18f4550.h"
   458                           UFRML equ 0F66h ;# 
   459  0000                     # 336 "C:\Program Files (x86)\Microchip\xc8\v2.00\pic\include\pic18f4550.h"
   460                           UFRMH equ 0F67h ;# 
   461  0000                     # 376 "C:\Program Files (x86)\Microchip\xc8\v2.00\pic\include\pic18f4550.h"
   462                           UIR equ 0F68h ;# 
   463  0000                     # 432 "C:\Program Files (x86)\Microchip\xc8\v2.00\pic\include\pic18f4550.h"
   464                           UIE equ 0F69h ;# 
   465  0000                     # 488 "C:\Program Files (x86)\Microchip\xc8\v2.00\pic\include\pic18f4550.h"
   466                           UEIR equ 0F6Ah ;# 
   467  0000                     # 539 "C:\Program Files (x86)\Microchip\xc8\v2.00\pic\include\pic18f4550.h"
   468                           UEIE equ 0F6Bh ;# 
   469  0000                     # 590 "C:\Program Files (x86)\Microchip\xc8\v2.00\pic\include\pic18f4550.h"
   470                           USTAT equ 0F6Ch ;# 
   471  0000                     # 650 "C:\Program Files (x86)\Microchip\xc8\v2.00\pic\include\pic18f4550.h"
   472                           UCON equ 0F6Dh ;# 
   473  0000                     # 701 "C:\Program Files (x86)\Microchip\xc8\v2.00\pic\include\pic18f4550.h"
   474                           UADDR equ 0F6Eh ;# 
   475  0000                     # 765 "C:\Program Files (x86)\Microchip\xc8\v2.00\pic\include\pic18f4550.h"
   476                           UCFG equ 0F6Fh ;# 
   477  0000                     # 844 "C:\Program Files (x86)\Microchip\xc8\v2.00\pic\include\pic18f4550.h"
   478                           UEP0 equ 0F70h ;# 
   479  0000                     # 952 "C:\Program Files (x86)\Microchip\xc8\v2.00\pic\include\pic18f4550.h"
   480                           UEP1 equ 0F71h ;# 
   481  0000                     # 1060 "C:\Program Files (x86)\Microchip\xc8\v2.00\pic\include\pic18f4550.h"
   482                           UEP2 equ 0F72h ;# 
   483  0000                     # 1168 "C:\Program Files (x86)\Microchip\xc8\v2.00\pic\include\pic18f4550.h"
   484                           UEP3 equ 0F73h ;# 
   485  0000                     # 1276 "C:\Program Files (x86)\Microchip\xc8\v2.00\pic\include\pic18f4550.h"
   486                           UEP4 equ 0F74h ;# 
   487  0000                     # 1384 "C:\Program Files (x86)\Microchip\xc8\v2.00\pic\include\pic18f4550.h"
   488                           UEP5 equ 0F75h ;# 
   489  0000                     # 1492 "C:\Program Files (x86)\Microchip\xc8\v2.00\pic\include\pic18f4550.h"
   490                           UEP6 equ 0F76h ;# 
   491  0000                     # 1600 "C:\Program Files (x86)\Microchip\xc8\v2.00\pic\include\pic18f4550.h"
   492                           UEP7 equ 0F77h ;# 
   493  0000                     # 1708 "C:\Program Files (x86)\Microchip\xc8\v2.00\pic\include\pic18f4550.h"
   494                           UEP8 equ 0F78h ;# 
   495  0000                     # 1784 "C:\Program Files (x86)\Microchip\xc8\v2.00\pic\include\pic18f4550.h"
   496                           UEP9 equ 0F79h ;# 
   497  0000                     # 1860 "C:\Program Files (x86)\Microchip\xc8\v2.00\pic\include\pic18f4550.h"
   498                           UEP10 equ 0F7Ah ;# 
   499  0000                     # 1936 "C:\Program Files (x86)\Microchip\xc8\v2.00\pic\include\pic18f4550.h"
   500                           UEP11 equ 0F7Bh ;# 
   501  0000                     # 2012 "C:\Program Files (x86)\Microchip\xc8\v2.00\pic\include\pic18f4550.h"
   502                           UEP12 equ 0F7Ch ;# 
   503  0000                     # 2088 "C:\Program Files (x86)\Microchip\xc8\v2.00\pic\include\pic18f4550.h"
   504                           UEP13 equ 0F7Dh ;# 
   505  0000                     # 2164 "C:\Program Files (x86)\Microchip\xc8\v2.00\pic\include\pic18f4550.h"
   506                           UEP14 equ 0F7Eh ;# 
   507  0000                     # 2240 "C:\Program Files (x86)\Microchip\xc8\v2.00\pic\include\pic18f4550.h"
   508                           UEP15 equ 0F7Fh ;# 
   509  0000                     # 2316 "C:\Program Files (x86)\Microchip\xc8\v2.00\pic\include\pic18f4550.h"
   510                           PORTA equ 0F80h ;# 
   511  0000                     # 2455 "C:\Program Files (x86)\Microchip\xc8\v2.00\pic\include\pic18f4550.h"
   512                           PORTB equ 0F81h ;# 
   513  0000                     # 2565 "C:\Program Files (x86)\Microchip\xc8\v2.00\pic\include\pic18f4550.h"
   514                           PORTC equ 0F82h ;# 
   515  0000                     # 2707 "C:\Program Files (x86)\Microchip\xc8\v2.00\pic\include\pic18f4550.h"
   516                           PORTD equ 0F83h ;# 
   517  0000                     # 2828 "C:\Program Files (x86)\Microchip\xc8\v2.00\pic\include\pic18f4550.h"
   518                           PORTE equ 0F84h ;# 
   519  0000                     # 2975 "C:\Program Files (x86)\Microchip\xc8\v2.00\pic\include\pic18f4550.h"
   520                           LATA equ 0F89h ;# 
   521  0000                     # 3075 "C:\Program Files (x86)\Microchip\xc8\v2.00\pic\include\pic18f4550.h"
   522                           LATB equ 0F8Ah ;# 
   523  0000                     # 3187 "C:\Program Files (x86)\Microchip\xc8\v2.00\pic\include\pic18f4550.h"
   524                           LATC equ 0F8Bh ;# 
   525  0000                     # 3265 "C:\Program Files (x86)\Microchip\xc8\v2.00\pic\include\pic18f4550.h"
   526                           LATD equ 0F8Ch ;# 
   527  0000                     # 3377 "C:\Program Files (x86)\Microchip\xc8\v2.00\pic\include\pic18f4550.h"
   528                           LATE equ 0F8Dh ;# 
   529  0000                     # 3429 "C:\Program Files (x86)\Microchip\xc8\v2.00\pic\include\pic18f4550.h"
   530                           TRISA equ 0F92h ;# 
   531  0000                     # 3434 "C:\Program Files (x86)\Microchip\xc8\v2.00\pic\include\pic18f4550.h"
   532                           DDRA equ 0F92h ;# 
   533  0000                     # 3627 "C:\Program Files (x86)\Microchip\xc8\v2.00\pic\include\pic18f4550.h"
   534                           TRISB equ 0F93h ;# 
   535  0000                     # 3632 "C:\Program Files (x86)\Microchip\xc8\v2.00\pic\include\pic18f4550.h"
   536                           DDRB equ 0F93h ;# 
   537  0000                     # 3849 "C:\Program Files (x86)\Microchip\xc8\v2.00\pic\include\pic18f4550.h"
   538                           TRISC equ 0F94h ;# 
   539  0000                     # 3854 "C:\Program Files (x86)\Microchip\xc8\v2.00\pic\include\pic18f4550.h"
   540                           DDRC equ 0F94h ;# 
   541  0000                     # 4003 "C:\Program Files (x86)\Microchip\xc8\v2.00\pic\include\pic18f4550.h"
   542                           TRISD equ 0F95h ;# 
   543  0000                     # 4008 "C:\Program Files (x86)\Microchip\xc8\v2.00\pic\include\pic18f4550.h"
   544                           DDRD equ 0F95h ;# 
   545  0000                     # 4225 "C:\Program Files (x86)\Microchip\xc8\v2.00\pic\include\pic18f4550.h"
   546                           TRISE equ 0F96h ;# 
   547  0000                     # 4230 "C:\Program Files (x86)\Microchip\xc8\v2.00\pic\include\pic18f4550.h"
   548                           DDRE equ 0F96h ;# 
   549  0000                     # 4327 "C:\Program Files (x86)\Microchip\xc8\v2.00\pic\include\pic18f4550.h"
   550                           OSCTUNE equ 0F9Bh ;# 
   551  0000                     # 4386 "C:\Program Files (x86)\Microchip\xc8\v2.00\pic\include\pic18f4550.h"
   552                           PIE1 equ 0F9Dh ;# 
   553  0000                     # 4470 "C:\Program Files (x86)\Microchip\xc8\v2.00\pic\include\pic18f4550.h"
   554                           PIR1 equ 0F9Eh ;# 
   555  0000                     # 4554 "C:\Program Files (x86)\Microchip\xc8\v2.00\pic\include\pic18f4550.h"
   556                           IPR1 equ 0F9Fh ;# 
   557  0000                     # 4638 "C:\Program Files (x86)\Microchip\xc8\v2.00\pic\include\pic18f4550.h"
   558                           PIE2 equ 0FA0h ;# 
   559  0000                     # 4709 "C:\Program Files (x86)\Microchip\xc8\v2.00\pic\include\pic18f4550.h"
   560                           PIR2 equ 0FA1h ;# 
   561  0000                     # 4780 "C:\Program Files (x86)\Microchip\xc8\v2.00\pic\include\pic18f4550.h"
   562                           IPR2 equ 0FA2h ;# 
   563  0000                     # 4851 "C:\Program Files (x86)\Microchip\xc8\v2.00\pic\include\pic18f4550.h"
   564                           EECON1 equ 0FA6h ;# 
   565  0000                     # 4917 "C:\Program Files (x86)\Microchip\xc8\v2.00\pic\include\pic18f4550.h"
   566                           EECON2 equ 0FA7h ;# 
   567  0000                     # 4924 "C:\Program Files (x86)\Microchip\xc8\v2.00\pic\include\pic18f4550.h"
   568                           EEDATA equ 0FA8h ;# 
   569  0000                     # 4931 "C:\Program Files (x86)\Microchip\xc8\v2.00\pic\include\pic18f4550.h"
   570                           EEADR equ 0FA9h ;# 
   571  0000                     # 4938 "C:\Program Files (x86)\Microchip\xc8\v2.00\pic\include\pic18f4550.h"
   572                           RCSTA equ 0FABh ;# 
   573  0000                     # 4943 "C:\Program Files (x86)\Microchip\xc8\v2.00\pic\include\pic18f4550.h"
   574                           RCSTA1 equ 0FABh ;# 
   575  0000                     # 5148 "C:\Program Files (x86)\Microchip\xc8\v2.00\pic\include\pic18f4550.h"
   576                           TXSTA equ 0FACh ;# 
   577  0000                     # 5153 "C:\Program Files (x86)\Microchip\xc8\v2.00\pic\include\pic18f4550.h"
   578                           TXSTA1 equ 0FACh ;# 
   579  0000                     # 5404 "C:\Program Files (x86)\Microchip\xc8\v2.00\pic\include\pic18f4550.h"
   580                           TXREG equ 0FADh ;# 
   581  0000                     # 5409 "C:\Program Files (x86)\Microchip\xc8\v2.00\pic\include\pic18f4550.h"
   582                           TXREG1 equ 0FADh ;# 
   583  0000                     # 5416 "C:\Program Files (x86)\Microchip\xc8\v2.00\pic\include\pic18f4550.h"
   584                           RCREG equ 0FAEh ;# 
   585  0000                     # 5421 "C:\Program Files (x86)\Microchip\xc8\v2.00\pic\include\pic18f4550.h"
   586                           RCREG1 equ 0FAEh ;# 
   587  0000                     # 5428 "C:\Program Files (x86)\Microchip\xc8\v2.00\pic\include\pic18f4550.h"
   588                           SPBRG equ 0FAFh ;# 
   589  0000                     # 5433 "C:\Program Files (x86)\Microchip\xc8\v2.00\pic\include\pic18f4550.h"
   590                           SPBRG1 equ 0FAFh ;# 
   591  0000                     # 5440 "C:\Program Files (x86)\Microchip\xc8\v2.00\pic\include\pic18f4550.h"
   592                           SPBRGH equ 0FB0h ;# 
   593  0000                     # 5447 "C:\Program Files (x86)\Microchip\xc8\v2.00\pic\include\pic18f4550.h"
   594                           T3CON equ 0FB1h ;# 
   595  0000                     # 5568 "C:\Program Files (x86)\Microchip\xc8\v2.00\pic\include\pic18f4550.h"
   596                           TMR3 equ 0FB2h ;# 
   597  0000                     # 5575 "C:\Program Files (x86)\Microchip\xc8\v2.00\pic\include\pic18f4550.h"
   598                           TMR3L equ 0FB2h ;# 
   599  0000                     # 5582 "C:\Program Files (x86)\Microchip\xc8\v2.00\pic\include\pic18f4550.h"
   600                           TMR3H equ 0FB3h ;# 
   601  0000                     # 5589 "C:\Program Files (x86)\Microchip\xc8\v2.00\pic\include\pic18f4550.h"
   602                           CMCON equ 0FB4h ;# 
   603  0000                     # 5679 "C:\Program Files (x86)\Microchip\xc8\v2.00\pic\include\pic18f4550.h"
   604                           CVRCON equ 0FB5h ;# 
   605  0000                     # 5764 "C:\Program Files (x86)\Microchip\xc8\v2.00\pic\include\pic18f4550.h"
   606                           ECCP1AS equ 0FB6h ;# 
   607  0000                     # 5769 "C:\Program Files (x86)\Microchip\xc8\v2.00\pic\include\pic18f4550.h"
   608                           CCP1AS equ 0FB6h ;# 
   609  0000                     # 5926 "C:\Program Files (x86)\Microchip\xc8\v2.00\pic\include\pic18f4550.h"
   610                           ECCP1DEL equ 0FB7h ;# 
   611  0000                     # 5931 "C:\Program Files (x86)\Microchip\xc8\v2.00\pic\include\pic18f4550.h"
   612                           CCP1DEL equ 0FB7h ;# 
   613  0000                     # 6064 "C:\Program Files (x86)\Microchip\xc8\v2.00\pic\include\pic18f4550.h"
   614                           BAUDCON equ 0FB8h ;# 
   615  0000                     # 6069 "C:\Program Files (x86)\Microchip\xc8\v2.00\pic\include\pic18f4550.h"
   616                           BAUDCTL equ 0FB8h ;# 
   617  0000                     # 6244 "C:\Program Files (x86)\Microchip\xc8\v2.00\pic\include\pic18f4550.h"
   618                           CCP2CON equ 0FBAh ;# 
   619  0000                     # 6308 "C:\Program Files (x86)\Microchip\xc8\v2.00\pic\include\pic18f4550.h"
   620                           CCPR2 equ 0FBBh ;# 
   621  0000                     # 6315 "C:\Program Files (x86)\Microchip\xc8\v2.00\pic\include\pic18f4550.h"
   622                           CCPR2L equ 0FBBh ;# 
   623  0000                     # 6322 "C:\Program Files (x86)\Microchip\xc8\v2.00\pic\include\pic18f4550.h"
   624                           CCPR2H equ 0FBCh ;# 
   625  0000                     # 6329 "C:\Program Files (x86)\Microchip\xc8\v2.00\pic\include\pic18f4550.h"
   626                           CCP1CON equ 0FBDh ;# 
   627  0000                     # 6334 "C:\Program Files (x86)\Microchip\xc8\v2.00\pic\include\pic18f4550.h"
   628                           ECCP1CON equ 0FBDh ;# 
   629  0000                     # 6491 "C:\Program Files (x86)\Microchip\xc8\v2.00\pic\include\pic18f4550.h"
   630                           CCPR1 equ 0FBEh ;# 
   631  0000                     # 6498 "C:\Program Files (x86)\Microchip\xc8\v2.00\pic\include\pic18f4550.h"
   632                           CCPR1L equ 0FBEh ;# 
   633  0000                     # 6505 "C:\Program Files (x86)\Microchip\xc8\v2.00\pic\include\pic18f4550.h"
   634                           CCPR1H equ 0FBFh ;# 
   635  0000                     # 6512 "C:\Program Files (x86)\Microchip\xc8\v2.00\pic\include\pic18f4550.h"
   636                           ADCON2 equ 0FC0h ;# 
   637  0000                     # 6583 "C:\Program Files (x86)\Microchip\xc8\v2.00\pic\include\pic18f4550.h"
   638                           ADCON1 equ 0FC1h ;# 
   639  0000                     # 6668 "C:\Program Files (x86)\Microchip\xc8\v2.00\pic\include\pic18f4550.h"
   640                           ADCON0 equ 0FC2h ;# 
   641  0000                     # 6787 "C:\Program Files (x86)\Microchip\xc8\v2.00\pic\include\pic18f4550.h"
   642                           ADRES equ 0FC3h ;# 
   643  0000                     # 6794 "C:\Program Files (x86)\Microchip\xc8\v2.00\pic\include\pic18f4550.h"
   644                           ADRESL equ 0FC3h ;# 
   645  0000                     # 6801 "C:\Program Files (x86)\Microchip\xc8\v2.00\pic\include\pic18f4550.h"
   646                           ADRESH equ 0FC4h ;# 
   647  0000                     # 6808 "C:\Program Files (x86)\Microchip\xc8\v2.00\pic\include\pic18f4550.h"
   648                           SSPCON2 equ 0FC5h ;# 
   649  0000                     # 6870 "C:\Program Files (x86)\Microchip\xc8\v2.00\pic\include\pic18f4550.h"
   650                           SSPCON1 equ 0FC6h ;# 
   651  0000                     # 6940 "C:\Program Files (x86)\Microchip\xc8\v2.00\pic\include\pic18f4550.h"
   652                           SSPSTAT equ 0FC7h ;# 
   653  0000                     # 7188 "C:\Program Files (x86)\Microchip\xc8\v2.00\pic\include\pic18f4550.h"
   654                           SSPADD equ 0FC8h ;# 
   655  0000                     # 7195 "C:\Program Files (x86)\Microchip\xc8\v2.00\pic\include\pic18f4550.h"
   656                           SSPBUF equ 0FC9h ;# 
   657  0000                     # 7202 "C:\Program Files (x86)\Microchip\xc8\v2.00\pic\include\pic18f4550.h"
   658                           T2CON equ 0FCAh ;# 
   659  0000                     # 7300 "C:\Program Files (x86)\Microchip\xc8\v2.00\pic\include\pic18f4550.h"
   660                           PR2 equ 0FCBh ;# 
   661  0000                     # 7305 "C:\Program Files (x86)\Microchip\xc8\v2.00\pic\include\pic18f4550.h"
   662                           MEMCON equ 0FCBh ;# 
   663  0000                     # 7410 "C:\Program Files (x86)\Microchip\xc8\v2.00\pic\include\pic18f4550.h"
   664                           TMR2 equ 0FCCh ;# 
   665  0000                     # 7417 "C:\Program Files (x86)\Microchip\xc8\v2.00\pic\include\pic18f4550.h"
   666                           T1CON equ 0FCDh ;# 
   667  0000                     # 7520 "C:\Program Files (x86)\Microchip\xc8\v2.00\pic\include\pic18f4550.h"
   668                           TMR1 equ 0FCEh ;# 
   669  0000                     # 7527 "C:\Program Files (x86)\Microchip\xc8\v2.00\pic\include\pic18f4550.h"
   670                           TMR1L equ 0FCEh ;# 
   671  0000                     # 7534 "C:\Program Files (x86)\Microchip\xc8\v2.00\pic\include\pic18f4550.h"
   672                           TMR1H equ 0FCFh ;# 
   673  0000                     # 7541 "C:\Program Files (x86)\Microchip\xc8\v2.00\pic\include\pic18f4550.h"
   674                           RCON equ 0FD0h ;# 
   675  0000                     # 7690 "C:\Program Files (x86)\Microchip\xc8\v2.00\pic\include\pic18f4550.h"
   676                           WDTCON equ 0FD1h ;# 
   677  0000                     # 7718 "C:\Program Files (x86)\Microchip\xc8\v2.00\pic\include\pic18f4550.h"
   678                           HLVDCON equ 0FD2h ;# 
   679  0000                     # 7723 "C:\Program Files (x86)\Microchip\xc8\v2.00\pic\include\pic18f4550.h"
   680                           LVDCON equ 0FD2h ;# 
   681  0000                     # 7988 "C:\Program Files (x86)\Microchip\xc8\v2.00\pic\include\pic18f4550.h"
   682                           OSCCON equ 0FD3h ;# 
   683  0000                     # 8071 "C:\Program Files (x86)\Microchip\xc8\v2.00\pic\include\pic18f4550.h"
   684                           T0CON equ 0FD5h ;# 
   685  0000                     # 8141 "C:\Program Files (x86)\Microchip\xc8\v2.00\pic\include\pic18f4550.h"
   686                           TMR0 equ 0FD6h ;# 
   687  0000                     # 8148 "C:\Program Files (x86)\Microchip\xc8\v2.00\pic\include\pic18f4550.h"
   688                           TMR0L equ 0FD6h ;# 
   689  0000                     # 8155 "C:\Program Files (x86)\Microchip\xc8\v2.00\pic\include\pic18f4550.h"
   690                           TMR0H equ 0FD7h ;# 
   691  0000                     # 8162 "C:\Program Files (x86)\Microchip\xc8\v2.00\pic\include\pic18f4550.h"
   692                           STATUS equ 0FD8h ;# 
   693  0000                     # 8233 "C:\Program Files (x86)\Microchip\xc8\v2.00\pic\include\pic18f4550.h"
   694                           FSR2 equ 0FD9h ;# 
   695  0000                     # 8240 "C:\Program Files (x86)\Microchip\xc8\v2.00\pic\include\pic18f4550.h"
   696                           FSR2L equ 0FD9h ;# 
   697  0000                     # 8247 "C:\Program Files (x86)\Microchip\xc8\v2.00\pic\include\pic18f4550.h"
   698                           FSR2H equ 0FDAh ;# 
   699  0000                     # 8254 "C:\Program Files (x86)\Microchip\xc8\v2.00\pic\include\pic18f4550.h"
   700                           PLUSW2 equ 0FDBh ;# 
   701  0000                     # 8261 "C:\Program Files (x86)\Microchip\xc8\v2.00\pic\include\pic18f4550.h"
   702                           PREINC2 equ 0FDCh ;# 
   703  0000                     # 8268 "C:\Program Files (x86)\Microchip\xc8\v2.00\pic\include\pic18f4550.h"
   704                           POSTDEC2 equ 0FDDh ;# 
   705  0000                     # 8275 "C:\Program Files (x86)\Microchip\xc8\v2.00\pic\include\pic18f4550.h"
   706                           POSTINC2 equ 0FDEh ;# 
   707  0000                     # 8282 "C:\Program Files (x86)\Microchip\xc8\v2.00\pic\include\pic18f4550.h"
   708                           INDF2 equ 0FDFh ;# 
   709  0000                     # 8289 "C:\Program Files (x86)\Microchip\xc8\v2.00\pic\include\pic18f4550.h"
   710                           BSR equ 0FE0h ;# 
   711  0000                     # 8296 "C:\Program Files (x86)\Microchip\xc8\v2.00\pic\include\pic18f4550.h"
   712                           FSR1 equ 0FE1h ;# 
   713  0000                     # 8303 "C:\Program Files (x86)\Microchip\xc8\v2.00\pic\include\pic18f4550.h"
   714                           FSR1L equ 0FE1h ;# 
   715  0000                     # 8310 "C:\Program Files (x86)\Microchip\xc8\v2.00\pic\include\pic18f4550.h"
   716                           FSR1H equ 0FE2h ;# 
   717  0000                     # 8317 "C:\Program Files (x86)\Microchip\xc8\v2.00\pic\include\pic18f4550.h"
   718                           PLUSW1 equ 0FE3h ;# 
   719  0000                     # 8324 "C:\Program Files (x86)\Microchip\xc8\v2.00\pic\include\pic18f4550.h"
   720                           PREINC1 equ 0FE4h ;# 
   721  0000                     # 8331 "C:\Program Files (x86)\Microchip\xc8\v2.00\pic\include\pic18f4550.h"
   722                           POSTDEC1 equ 0FE5h ;# 
   723  0000                     # 8338 "C:\Program Files (x86)\Microchip\xc8\v2.00\pic\include\pic18f4550.h"
   724                           POSTINC1 equ 0FE6h ;# 
   725  0000                     # 8345 "C:\Program Files (x86)\Microchip\xc8\v2.00\pic\include\pic18f4550.h"
   726                           INDF1 equ 0FE7h ;# 
   727  0000                     # 8352 "C:\Program Files (x86)\Microchip\xc8\v2.00\pic\include\pic18f4550.h"
   728                           WREG equ 0FE8h ;# 
   729  0000                     # 8359 "C:\Program Files (x86)\Microchip\xc8\v2.00\pic\include\pic18f4550.h"
   730                           FSR0 equ 0FE9h ;# 
   731  0000                     # 8366 "C:\Program Files (x86)\Microchip\xc8\v2.00\pic\include\pic18f4550.h"
   732                           FSR0L equ 0FE9h ;# 
   733  0000                     # 8373 "C:\Program Files (x86)\Microchip\xc8\v2.00\pic\include\pic18f4550.h"
   734                           FSR0H equ 0FEAh ;# 
   735  0000                     # 8380 "C:\Program Files (x86)\Microchip\xc8\v2.00\pic\include\pic18f4550.h"
   736                           PLUSW0 equ 0FEBh ;# 
   737  0000                     # 8387 "C:\Program Files (x86)\Microchip\xc8\v2.00\pic\include\pic18f4550.h"
   738                           PREINC0 equ 0FECh ;# 
   739  0000                     # 8394 "C:\Program Files (x86)\Microchip\xc8\v2.00\pic\include\pic18f4550.h"
   740                           POSTDEC0 equ 0FEDh ;# 
   741  0000                     # 8401 "C:\Program Files (x86)\Microchip\xc8\v2.00\pic\include\pic18f4550.h"
   742                           POSTINC0 equ 0FEEh ;# 
   743  0000                     # 8408 "C:\Program Files (x86)\Microchip\xc8\v2.00\pic\include\pic18f4550.h"
   744                           INDF0 equ 0FEFh ;# 
   745  0000                     # 8415 "C:\Program Files (x86)\Microchip\xc8\v2.00\pic\include\pic18f4550.h"
   746                           INTCON3 equ 0FF0h ;# 
   747  0000                     # 8507 "C:\Program Files (x86)\Microchip\xc8\v2.00\pic\include\pic18f4550.h"
   748                           INTCON2 equ 0FF1h ;# 
   749  0000                     # 8584 "C:\Program Files (x86)\Microchip\xc8\v2.00\pic\include\pic18f4550.h"
   750                           INTCON equ 0FF2h ;# 
   751  0000                     # 8701 "C:\Program Files (x86)\Microchip\xc8\v2.00\pic\include\pic18f4550.h"
   752                           PROD equ 0FF3h ;# 
   753  0000                     # 8708 "C:\Program Files (x86)\Microchip\xc8\v2.00\pic\include\pic18f4550.h"
   754                           PRODL equ 0FF3h ;# 
   755  0000                     # 8715 "C:\Program Files (x86)\Microchip\xc8\v2.00\pic\include\pic18f4550.h"
   756                           PRODH equ 0FF4h ;# 
   757  0000                     # 8722 "C:\Program Files (x86)\Microchip\xc8\v2.00\pic\include\pic18f4550.h"
   758                           TABLAT equ 0FF5h ;# 
   759  0000                     # 8731 "C:\Program Files (x86)\Microchip\xc8\v2.00\pic\include\pic18f4550.h"
   760                           TBLPTR equ 0FF6h ;# 
   761  0000                     # 8738 "C:\Program Files (x86)\Microchip\xc8\v2.00\pic\include\pic18f4550.h"
   762                           TBLPTRL equ 0FF6h ;# 
   763  0000                     # 8745 "C:\Program Files (x86)\Microchip\xc8\v2.00\pic\include\pic18f4550.h"
   764                           TBLPTRH equ 0FF7h ;# 
   765  0000                     # 8752 "C:\Program Files (x86)\Microchip\xc8\v2.00\pic\include\pic18f4550.h"
   766                           TBLPTRU equ 0FF8h ;# 
   767  0000                     # 8761 "C:\Program Files (x86)\Microchip\xc8\v2.00\pic\include\pic18f4550.h"
   768                           PCLAT equ 0FF9h ;# 
   769  0000                     # 8768 "C:\Program Files (x86)\Microchip\xc8\v2.00\pic\include\pic18f4550.h"
   770                           PC equ 0FF9h ;# 
   771  0000                     # 8775 "C:\Program Files (x86)\Microchip\xc8\v2.00\pic\include\pic18f4550.h"
   772                           PCL equ 0FF9h ;# 
   773  0000                     # 8782 "C:\Program Files (x86)\Microchip\xc8\v2.00\pic\include\pic18f4550.h"
   774                           PCLATH equ 0FFAh ;# 
   775  0000                     # 8789 "C:\Program Files (x86)\Microchip\xc8\v2.00\pic\include\pic18f4550.h"
   776                           PCLATU equ 0FFBh ;# 
   777  0000                     # 8796 "C:\Program Files (x86)\Microchip\xc8\v2.00\pic\include\pic18f4550.h"
   778                           STKPTR equ 0FFCh ;# 
   779  0000                     # 8872 "C:\Program Files (x86)\Microchip\xc8\v2.00\pic\include\pic18f4550.h"
   780                           TOS equ 0FFDh ;# 
   781  0000                     # 8879 "C:\Program Files (x86)\Microchip\xc8\v2.00\pic\include\pic18f4550.h"
   782                           TOSL equ 0FFDh ;# 
   783  0000                     # 8886 "C:\Program Files (x86)\Microchip\xc8\v2.00\pic\include\pic18f4550.h"
   784                           TOSH equ 0FFEh ;# 
   785  0000                     # 8893 "C:\Program Files (x86)\Microchip\xc8\v2.00\pic\include\pic18f4550.h"
   786                           TOSU equ 0FFFh ;# 
   787  0000                     # 54 "C:\Program Files (x86)\Microchip\xc8\v2.00\pic\include\pic18f4550.h"
   788                           SPPDATA equ 0F62h ;# 
   789  0000                     # 74 "C:\Program Files (x86)\Microchip\xc8\v2.00\pic\include\pic18f4550.h"
   790                           SPPCFG equ 0F63h ;# 
   791  0000                     # 151 "C:\Program Files (x86)\Microchip\xc8\v2.00\pic\include\pic18f4550.h"
   792                           SPPEPS equ 0F64h ;# 
   793  0000                     # 225 "C:\Program Files (x86)\Microchip\xc8\v2.00\pic\include\pic18f4550.h"
   794                           SPPCON equ 0F65h ;# 
   795  0000                     # 251 "C:\Program Files (x86)\Microchip\xc8\v2.00\pic\include\pic18f4550.h"
   796                           UFRM equ 0F66h ;# 
   797  0000                     # 258 "C:\Program Files (x86)\Microchip\xc8\v2.00\pic\include\pic18f4550.h"
   798                           UFRML equ 0F66h ;# 
   799  0000                     # 336 "C:\Program Files (x86)\Microchip\xc8\v2.00\pic\include\pic18f4550.h"
   800                           UFRMH equ 0F67h ;# 
   801  0000                     # 376 "C:\Program Files (x86)\Microchip\xc8\v2.00\pic\include\pic18f4550.h"
   802                           UIR equ 0F68h ;# 
   803  0000                     # 432 "C:\Program Files (x86)\Microchip\xc8\v2.00\pic\include\pic18f4550.h"
   804                           UIE equ 0F69h ;# 
   805  0000                     # 488 "C:\Program Files (x86)\Microchip\xc8\v2.00\pic\include\pic18f4550.h"
   806                           UEIR equ 0F6Ah ;# 
   807  0000                     # 539 "C:\Program Files (x86)\Microchip\xc8\v2.00\pic\include\pic18f4550.h"
   808                           UEIE equ 0F6Bh ;# 
   809  0000                     # 590 "C:\Program Files (x86)\Microchip\xc8\v2.00\pic\include\pic18f4550.h"
   810                           USTAT equ 0F6Ch ;# 
   811  0000                     # 650 "C:\Program Files (x86)\Microchip\xc8\v2.00\pic\include\pic18f4550.h"
   812                           UCON equ 0F6Dh ;# 
   813  0000                     # 701 "C:\Program Files (x86)\Microchip\xc8\v2.00\pic\include\pic18f4550.h"
   814                           UADDR equ 0F6Eh ;# 
   815  0000                     # 765 "C:\Program Files (x86)\Microchip\xc8\v2.00\pic\include\pic18f4550.h"
   816                           UCFG equ 0F6Fh ;# 
   817  0000                     # 844 "C:\Program Files (x86)\Microchip\xc8\v2.00\pic\include\pic18f4550.h"
   818                           UEP0 equ 0F70h ;# 
   819  0000                     # 952 "C:\Program Files (x86)\Microchip\xc8\v2.00\pic\include\pic18f4550.h"
   820                           UEP1 equ 0F71h ;# 
   821  0000                     # 1060 "C:\Program Files (x86)\Microchip\xc8\v2.00\pic\include\pic18f4550.h"
   822                           UEP2 equ 0F72h ;# 
   823  0000                     # 1168 "C:\Program Files (x86)\Microchip\xc8\v2.00\pic\include\pic18f4550.h"
   824                           UEP3 equ 0F73h ;# 
   825  0000                     # 1276 "C:\Program Files (x86)\Microchip\xc8\v2.00\pic\include\pic18f4550.h"
   826                           UEP4 equ 0F74h ;# 
   827  0000                     # 1384 "C:\Program Files (x86)\Microchip\xc8\v2.00\pic\include\pic18f4550.h"
   828                           UEP5 equ 0F75h ;# 
   829  0000                     # 1492 "C:\Program Files (x86)\Microchip\xc8\v2.00\pic\include\pic18f4550.h"
   830                           UEP6 equ 0F76h ;# 
   831  0000                     # 1600 "C:\Program Files (x86)\Microchip\xc8\v2.00\pic\include\pic18f4550.h"
   832                           UEP7 equ 0F77h ;# 
   833  0000                     # 1708 "C:\Program Files (x86)\Microchip\xc8\v2.00\pic\include\pic18f4550.h"
   834                           UEP8 equ 0F78h ;# 
   835  0000                     # 1784 "C:\Program Files (x86)\Microchip\xc8\v2.00\pic\include\pic18f4550.h"
   836                           UEP9 equ 0F79h ;# 
   837  0000                     # 1860 "C:\Program Files (x86)\Microchip\xc8\v2.00\pic\include\pic18f4550.h"
   838                           UEP10 equ 0F7Ah ;# 
   839  0000                     # 1936 "C:\Program Files (x86)\Microchip\xc8\v2.00\pic\include\pic18f4550.h"
   840                           UEP11 equ 0F7Bh ;# 
   841  0000                     # 2012 "C:\Program Files (x86)\Microchip\xc8\v2.00\pic\include\pic18f4550.h"
   842                           UEP12 equ 0F7Ch ;# 
   843  0000                     # 2088 "C:\Program Files (x86)\Microchip\xc8\v2.00\pic\include\pic18f4550.h"
   844                           UEP13 equ 0F7Dh ;# 
   845  0000                     # 2164 "C:\Program Files (x86)\Microchip\xc8\v2.00\pic\include\pic18f4550.h"
   846                           UEP14 equ 0F7Eh ;# 
   847  0000                     # 2240 "C:\Program Files (x86)\Microchip\xc8\v2.00\pic\include\pic18f4550.h"
   848                           UEP15 equ 0F7Fh ;# 
   849  0000                     # 2316 "C:\Program Files (x86)\Microchip\xc8\v2.00\pic\include\pic18f4550.h"
   850                           PORTA equ 0F80h ;# 
   851  0000                     # 2455 "C:\Program Files (x86)\Microchip\xc8\v2.00\pic\include\pic18f4550.h"
   852                           PORTB equ 0F81h ;# 
   853  0000                     # 2565 "C:\Program Files (x86)\Microchip\xc8\v2.00\pic\include\pic18f4550.h"
   854                           PORTC equ 0F82h ;# 
   855  0000                     # 2707 "C:\Program Files (x86)\Microchip\xc8\v2.00\pic\include\pic18f4550.h"
   856                           PORTD equ 0F83h ;# 
   857  0000                     # 2828 "C:\Program Files (x86)\Microchip\xc8\v2.00\pic\include\pic18f4550.h"
   858                           PORTE equ 0F84h ;# 
   859  0000                     # 2975 "C:\Program Files (x86)\Microchip\xc8\v2.00\pic\include\pic18f4550.h"
   860                           LATA equ 0F89h ;# 
   861  0000                     # 3075 "C:\Program Files (x86)\Microchip\xc8\v2.00\pic\include\pic18f4550.h"
   862                           LATB equ 0F8Ah ;# 
   863  0000                     # 3187 "C:\Program Files (x86)\Microchip\xc8\v2.00\pic\include\pic18f4550.h"
   864                           LATC equ 0F8Bh ;# 
   865  0000                     # 3265 "C:\Program Files (x86)\Microchip\xc8\v2.00\pic\include\pic18f4550.h"
   866                           LATD equ 0F8Ch ;# 
   867  0000                     # 3377 "C:\Program Files (x86)\Microchip\xc8\v2.00\pic\include\pic18f4550.h"
   868                           LATE equ 0F8Dh ;# 
   869  0000                     # 3429 "C:\Program Files (x86)\Microchip\xc8\v2.00\pic\include\pic18f4550.h"
   870                           TRISA equ 0F92h ;# 
   871  0000                     # 3434 "C:\Program Files (x86)\Microchip\xc8\v2.00\pic\include\pic18f4550.h"
   872                           DDRA equ 0F92h ;# 
   873  0000                     # 3627 "C:\Program Files (x86)\Microchip\xc8\v2.00\pic\include\pic18f4550.h"
   874                           TRISB equ 0F93h ;# 
   875  0000                     # 3632 "C:\Program Files (x86)\Microchip\xc8\v2.00\pic\include\pic18f4550.h"
   876                           DDRB equ 0F93h ;# 
   877  0000                     # 3849 "C:\Program Files (x86)\Microchip\xc8\v2.00\pic\include\pic18f4550.h"
   878                           TRISC equ 0F94h ;# 
   879  0000                     # 3854 "C:\Program Files (x86)\Microchip\xc8\v2.00\pic\include\pic18f4550.h"
   880                           DDRC equ 0F94h ;# 
   881  0000                     # 4003 "C:\Program Files (x86)\Microchip\xc8\v2.00\pic\include\pic18f4550.h"
   882                           TRISD equ 0F95h ;# 
   883  0000                     # 4008 "C:\Program Files (x86)\Microchip\xc8\v2.00\pic\include\pic18f4550.h"
   884                           DDRD equ 0F95h ;# 
   885  0000                     # 4225 "C:\Program Files (x86)\Microchip\xc8\v2.00\pic\include\pic18f4550.h"
   886                           TRISE equ 0F96h ;# 
   887  0000                     # 4230 "C:\Program Files (x86)\Microchip\xc8\v2.00\pic\include\pic18f4550.h"
   888                           DDRE equ 0F96h ;# 
   889  0000                     # 4327 "C:\Program Files (x86)\Microchip\xc8\v2.00\pic\include\pic18f4550.h"
   890                           OSCTUNE equ 0F9Bh ;# 
   891  0000                     # 4386 "C:\Program Files (x86)\Microchip\xc8\v2.00\pic\include\pic18f4550.h"
   892                           PIE1 equ 0F9Dh ;# 
   893  0000                     # 4470 "C:\Program Files (x86)\Microchip\xc8\v2.00\pic\include\pic18f4550.h"
   894                           PIR1 equ 0F9Eh ;# 
   895  0000                     # 4554 "C:\Program Files (x86)\Microchip\xc8\v2.00\pic\include\pic18f4550.h"
   896                           IPR1 equ 0F9Fh ;# 
   897  0000                     # 4638 "C:\Program Files (x86)\Microchip\xc8\v2.00\pic\include\pic18f4550.h"
   898                           PIE2 equ 0FA0h ;# 
   899  0000                     # 4709 "C:\Program Files (x86)\Microchip\xc8\v2.00\pic\include\pic18f4550.h"
   900                           PIR2 equ 0FA1h ;# 
   901  0000                     # 4780 "C:\Program Files (x86)\Microchip\xc8\v2.00\pic\include\pic18f4550.h"
   902                           IPR2 equ 0FA2h ;# 
   903  0000                     # 4851 "C:\Program Files (x86)\Microchip\xc8\v2.00\pic\include\pic18f4550.h"
   904                           EECON1 equ 0FA6h ;# 
   905  0000                     # 4917 "C:\Program Files (x86)\Microchip\xc8\v2.00\pic\include\pic18f4550.h"
   906                           EECON2 equ 0FA7h ;# 
   907  0000                     # 4924 "C:\Program Files (x86)\Microchip\xc8\v2.00\pic\include\pic18f4550.h"
   908                           EEDATA equ 0FA8h ;# 
   909  0000                     # 4931 "C:\Program Files (x86)\Microchip\xc8\v2.00\pic\include\pic18f4550.h"
   910                           EEADR equ 0FA9h ;# 
   911  0000                     # 4938 "C:\Program Files (x86)\Microchip\xc8\v2.00\pic\include\pic18f4550.h"
   912                           RCSTA equ 0FABh ;# 
   913  0000                     # 4943 "C:\Program Files (x86)\Microchip\xc8\v2.00\pic\include\pic18f4550.h"
   914                           RCSTA1 equ 0FABh ;# 
   915  0000                     # 5148 "C:\Program Files (x86)\Microchip\xc8\v2.00\pic\include\pic18f4550.h"
   916                           TXSTA equ 0FACh ;# 
   917  0000                     # 5153 "C:\Program Files (x86)\Microchip\xc8\v2.00\pic\include\pic18f4550.h"
   918                           TXSTA1 equ 0FACh ;# 
   919  0000                     # 5404 "C:\Program Files (x86)\Microchip\xc8\v2.00\pic\include\pic18f4550.h"
   920                           TXREG equ 0FADh ;# 
   921  0000                     # 5409 "C:\Program Files (x86)\Microchip\xc8\v2.00\pic\include\pic18f4550.h"
   922                           TXREG1 equ 0FADh ;# 
   923  0000                     # 5416 "C:\Program Files (x86)\Microchip\xc8\v2.00\pic\include\pic18f4550.h"
   924                           RCREG equ 0FAEh ;# 
   925  0000                     # 5421 "C:\Program Files (x86)\Microchip\xc8\v2.00\pic\include\pic18f4550.h"
   926                           RCREG1 equ 0FAEh ;# 
   927  0000                     # 5428 "C:\Program Files (x86)\Microchip\xc8\v2.00\pic\include\pic18f4550.h"
   928                           SPBRG equ 0FAFh ;# 
   929  0000                     # 5433 "C:\Program Files (x86)\Microchip\xc8\v2.00\pic\include\pic18f4550.h"
   930                           SPBRG1 equ 0FAFh ;# 
   931  0000                     # 5440 "C:\Program Files (x86)\Microchip\xc8\v2.00\pic\include\pic18f4550.h"
   932                           SPBRGH equ 0FB0h ;# 
   933  0000                     # 5447 "C:\Program Files (x86)\Microchip\xc8\v2.00\pic\include\pic18f4550.h"
   934                           T3CON equ 0FB1h ;# 
   935  0000                     # 5568 "C:\Program Files (x86)\Microchip\xc8\v2.00\pic\include\pic18f4550.h"
   936                           TMR3 equ 0FB2h ;# 
   937  0000                     # 5575 "C:\Program Files (x86)\Microchip\xc8\v2.00\pic\include\pic18f4550.h"
   938                           TMR3L equ 0FB2h ;# 
   939  0000                     # 5582 "C:\Program Files (x86)\Microchip\xc8\v2.00\pic\include\pic18f4550.h"
   940                           TMR3H equ 0FB3h ;# 
   941  0000                     # 5589 "C:\Program Files (x86)\Microchip\xc8\v2.00\pic\include\pic18f4550.h"
   942                           CMCON equ 0FB4h ;# 
   943  0000                     # 5679 "C:\Program Files (x86)\Microchip\xc8\v2.00\pic\include\pic18f4550.h"
   944                           CVRCON equ 0FB5h ;# 
   945  0000                     # 5764 "C:\Program Files (x86)\Microchip\xc8\v2.00\pic\include\pic18f4550.h"
   946                           ECCP1AS equ 0FB6h ;# 
   947  0000                     # 5769 "C:\Program Files (x86)\Microchip\xc8\v2.00\pic\include\pic18f4550.h"
   948                           CCP1AS equ 0FB6h ;# 
   949  0000                     # 5926 "C:\Program Files (x86)\Microchip\xc8\v2.00\pic\include\pic18f4550.h"
   950                           ECCP1DEL equ 0FB7h ;# 
   951  0000                     # 5931 "C:\Program Files (x86)\Microchip\xc8\v2.00\pic\include\pic18f4550.h"
   952                           CCP1DEL equ 0FB7h ;# 
   953  0000                     # 6064 "C:\Program Files (x86)\Microchip\xc8\v2.00\pic\include\pic18f4550.h"
   954                           BAUDCON equ 0FB8h ;# 
   955  0000                     # 6069 "C:\Program Files (x86)\Microchip\xc8\v2.00\pic\include\pic18f4550.h"
   956                           BAUDCTL equ 0FB8h ;# 
   957  0000                     # 6244 "C:\Program Files (x86)\Microchip\xc8\v2.00\pic\include\pic18f4550.h"
   958                           CCP2CON equ 0FBAh ;# 
   959  0000                     # 6308 "C:\Program Files (x86)\Microchip\xc8\v2.00\pic\include\pic18f4550.h"
   960                           CCPR2 equ 0FBBh ;# 
   961  0000                     # 6315 "C:\Program Files (x86)\Microchip\xc8\v2.00\pic\include\pic18f4550.h"
   962                           CCPR2L equ 0FBBh ;# 
   963  0000                     # 6322 "C:\Program Files (x86)\Microchip\xc8\v2.00\pic\include\pic18f4550.h"
   964                           CCPR2H equ 0FBCh ;# 
   965  0000                     # 6329 "C:\Program Files (x86)\Microchip\xc8\v2.00\pic\include\pic18f4550.h"
   966                           CCP1CON equ 0FBDh ;# 
   967  0000                     # 6334 "C:\Program Files (x86)\Microchip\xc8\v2.00\pic\include\pic18f4550.h"
   968                           ECCP1CON equ 0FBDh ;# 
   969  0000                     # 6491 "C:\Program Files (x86)\Microchip\xc8\v2.00\pic\include\pic18f4550.h"
   970                           CCPR1 equ 0FBEh ;# 
   971  0000                     # 6498 "C:\Program Files (x86)\Microchip\xc8\v2.00\pic\include\pic18f4550.h"
   972                           CCPR1L equ 0FBEh ;# 
   973  0000                     # 6505 "C:\Program Files (x86)\Microchip\xc8\v2.00\pic\include\pic18f4550.h"
   974                           CCPR1H equ 0FBFh ;# 
   975  0000                     # 6512 "C:\Program Files (x86)\Microchip\xc8\v2.00\pic\include\pic18f4550.h"
   976                           ADCON2 equ 0FC0h ;# 
   977  0000                     # 6583 "C:\Program Files (x86)\Microchip\xc8\v2.00\pic\include\pic18f4550.h"
   978                           ADCON1 equ 0FC1h ;# 
   979  0000                     # 6668 "C:\Program Files (x86)\Microchip\xc8\v2.00\pic\include\pic18f4550.h"
   980                           ADCON0 equ 0FC2h ;# 
   981  0000                     # 6787 "C:\Program Files (x86)\Microchip\xc8\v2.00\pic\include\pic18f4550.h"
   982                           ADRES equ 0FC3h ;# 
   983  0000                     # 6794 "C:\Program Files (x86)\Microchip\xc8\v2.00\pic\include\pic18f4550.h"
   984                           ADRESL equ 0FC3h ;# 
   985  0000                     # 6801 "C:\Program Files (x86)\Microchip\xc8\v2.00\pic\include\pic18f4550.h"
   986                           ADRESH equ 0FC4h ;# 
   987  0000                     # 6808 "C:\Program Files (x86)\Microchip\xc8\v2.00\pic\include\pic18f4550.h"
   988                           SSPCON2 equ 0FC5h ;# 
   989  0000                     # 6870 "C:\Program Files (x86)\Microchip\xc8\v2.00\pic\include\pic18f4550.h"
   990                           SSPCON1 equ 0FC6h ;# 
   991  0000                     # 6940 "C:\Program Files (x86)\Microchip\xc8\v2.00\pic\include\pic18f4550.h"
   992                           SSPSTAT equ 0FC7h ;# 
   993  0000                     # 7188 "C:\Program Files (x86)\Microchip\xc8\v2.00\pic\include\pic18f4550.h"
   994                           SSPADD equ 0FC8h ;# 
   995  0000                     # 7195 "C:\Program Files (x86)\Microchip\xc8\v2.00\pic\include\pic18f4550.h"
   996                           SSPBUF equ 0FC9h ;# 
   997  0000                     # 7202 "C:\Program Files (x86)\Microchip\xc8\v2.00\pic\include\pic18f4550.h"
   998                           T2CON equ 0FCAh ;# 
   999  0000                     # 7300 "C:\Program Files (x86)\Microchip\xc8\v2.00\pic\include\pic18f4550.h"
  1000                           PR2 equ 0FCBh ;# 
  1001  0000                     # 7305 "C:\Program Files (x86)\Microchip\xc8\v2.00\pic\include\pic18f4550.h"
  1002                           MEMCON equ 0FCBh ;# 
  1003  0000                     # 7410 "C:\Program Files (x86)\Microchip\xc8\v2.00\pic\include\pic18f4550.h"
  1004                           TMR2 equ 0FCCh ;# 
  1005  0000                     # 7417 "C:\Program Files (x86)\Microchip\xc8\v2.00\pic\include\pic18f4550.h"
  1006                           T1CON equ 0FCDh ;# 
  1007  0000                     # 7520 "C:\Program Files (x86)\Microchip\xc8\v2.00\pic\include\pic18f4550.h"
  1008                           TMR1 equ 0FCEh ;# 
  1009  0000                     # 7527 "C:\Program Files (x86)\Microchip\xc8\v2.00\pic\include\pic18f4550.h"
  1010                           TMR1L equ 0FCEh ;# 
  1011  0000                     # 7534 "C:\Program Files (x86)\Microchip\xc8\v2.00\pic\include\pic18f4550.h"
  1012                           TMR1H equ 0FCFh ;# 
  1013  0000                     # 7541 "C:\Program Files (x86)\Microchip\xc8\v2.00\pic\include\pic18f4550.h"
  1014                           RCON equ 0FD0h ;# 
  1015  0000                     # 7690 "C:\Program Files (x86)\Microchip\xc8\v2.00\pic\include\pic18f4550.h"
  1016                           WDTCON equ 0FD1h ;# 
  1017  0000                     # 7718 "C:\Program Files (x86)\Microchip\xc8\v2.00\pic\include\pic18f4550.h"
  1018                           HLVDCON equ 0FD2h ;# 
  1019  0000                     # 7723 "C:\Program Files (x86)\Microchip\xc8\v2.00\pic\include\pic18f4550.h"
  1020                           LVDCON equ 0FD2h ;# 
  1021  0000                     # 7988 "C:\Program Files (x86)\Microchip\xc8\v2.00\pic\include\pic18f4550.h"
  1022                           OSCCON equ 0FD3h ;# 
  1023  0000                     # 8071 "C:\Program Files (x86)\Microchip\xc8\v2.00\pic\include\pic18f4550.h"
  1024                           T0CON equ 0FD5h ;# 
  1025  0000                     # 8141 "C:\Program Files (x86)\Microchip\xc8\v2.00\pic\include\pic18f4550.h"
  1026                           TMR0 equ 0FD6h ;# 
  1027  0000                     # 8148 "C:\Program Files (x86)\Microchip\xc8\v2.00\pic\include\pic18f4550.h"
  1028                           TMR0L equ 0FD6h ;# 
  1029  0000                     # 8155 "C:\Program Files (x86)\Microchip\xc8\v2.00\pic\include\pic18f4550.h"
  1030                           TMR0H equ 0FD7h ;# 
  1031  0000                     # 8162 "C:\Program Files (x86)\Microchip\xc8\v2.00\pic\include\pic18f4550.h"
  1032                           STATUS equ 0FD8h ;# 
  1033  0000                     # 8233 "C:\Program Files (x86)\Microchip\xc8\v2.00\pic\include\pic18f4550.h"
  1034                           FSR2 equ 0FD9h ;# 
  1035  0000                     # 8240 "C:\Program Files (x86)\Microchip\xc8\v2.00\pic\include\pic18f4550.h"
  1036                           FSR2L equ 0FD9h ;# 
  1037  0000                     # 8247 "C:\Program Files (x86)\Microchip\xc8\v2.00\pic\include\pic18f4550.h"
  1038                           FSR2H equ 0FDAh ;# 
  1039  0000                     # 8254 "C:\Program Files (x86)\Microchip\xc8\v2.00\pic\include\pic18f4550.h"
  1040                           PLUSW2 equ 0FDBh ;# 
  1041  0000                     # 8261 "C:\Program Files (x86)\Microchip\xc8\v2.00\pic\include\pic18f4550.h"
  1042                           PREINC2 equ 0FDCh ;# 
  1043  0000                     # 8268 "C:\Program Files (x86)\Microchip\xc8\v2.00\pic\include\pic18f4550.h"
  1044                           POSTDEC2 equ 0FDDh ;# 
  1045  0000                     # 8275 "C:\Program Files (x86)\Microchip\xc8\v2.00\pic\include\pic18f4550.h"
  1046                           POSTINC2 equ 0FDEh ;# 
  1047  0000                     # 8282 "C:\Program Files (x86)\Microchip\xc8\v2.00\pic\include\pic18f4550.h"
  1048                           INDF2 equ 0FDFh ;# 
  1049  0000                     # 8289 "C:\Program Files (x86)\Microchip\xc8\v2.00\pic\include\pic18f4550.h"
  1050                           BSR equ 0FE0h ;# 
  1051  0000                     # 8296 "C:\Program Files (x86)\Microchip\xc8\v2.00\pic\include\pic18f4550.h"
  1052                           FSR1 equ 0FE1h ;# 
  1053  0000                     # 8303 "C:\Program Files (x86)\Microchip\xc8\v2.00\pic\include\pic18f4550.h"
  1054                           FSR1L equ 0FE1h ;# 
  1055  0000                     # 8310 "C:\Program Files (x86)\Microchip\xc8\v2.00\pic\include\pic18f4550.h"
  1056                           FSR1H equ 0FE2h ;# 
  1057  0000                     # 8317 "C:\Program Files (x86)\Microchip\xc8\v2.00\pic\include\pic18f4550.h"
  1058                           PLUSW1 equ 0FE3h ;# 
  1059  0000                     # 8324 "C:\Program Files (x86)\Microchip\xc8\v2.00\pic\include\pic18f4550.h"
  1060                           PREINC1 equ 0FE4h ;# 
  1061  0000                     # 8331 "C:\Program Files (x86)\Microchip\xc8\v2.00\pic\include\pic18f4550.h"
  1062                           POSTDEC1 equ 0FE5h ;# 
  1063  0000                     # 8338 "C:\Program Files (x86)\Microchip\xc8\v2.00\pic\include\pic18f4550.h"
  1064                           POSTINC1 equ 0FE6h ;# 
  1065  0000                     # 8345 "C:\Program Files (x86)\Microchip\xc8\v2.00\pic\include\pic18f4550.h"
  1066                           INDF1 equ 0FE7h ;# 
  1067  0000                     # 8352 "C:\Program Files (x86)\Microchip\xc8\v2.00\pic\include\pic18f4550.h"
  1068                           WREG equ 0FE8h ;# 
  1069  0000                     # 8359 "C:\Program Files (x86)\Microchip\xc8\v2.00\pic\include\pic18f4550.h"
  1070                           FSR0 equ 0FE9h ;# 
  1071  0000                     # 8366 "C:\Program Files (x86)\Microchip\xc8\v2.00\pic\include\pic18f4550.h"
  1072                           FSR0L equ 0FE9h ;# 
  1073  0000                     # 8373 "C:\Program Files (x86)\Microchip\xc8\v2.00\pic\include\pic18f4550.h"
  1074                           FSR0H equ 0FEAh ;# 
  1075  0000                     # 8380 "C:\Program Files (x86)\Microchip\xc8\v2.00\pic\include\pic18f4550.h"
  1076                           PLUSW0 equ 0FEBh ;# 
  1077  0000                     # 8387 "C:\Program Files (x86)\Microchip\xc8\v2.00\pic\include\pic18f4550.h"
  1078                           PREINC0 equ 0FECh ;# 
  1079  0000                     # 8394 "C:\Program Files (x86)\Microchip\xc8\v2.00\pic\include\pic18f4550.h"
  1080                           POSTDEC0 equ 0FEDh ;# 
  1081  0000                     # 8401 "C:\Program Files (x86)\Microchip\xc8\v2.00\pic\include\pic18f4550.h"
  1082                           POSTINC0 equ 0FEEh ;# 
  1083  0000                     # 8408 "C:\Program Files (x86)\Microchip\xc8\v2.00\pic\include\pic18f4550.h"
  1084                           INDF0 equ 0FEFh ;# 
  1085  0000                     # 8415 "C:\Program Files (x86)\Microchip\xc8\v2.00\pic\include\pic18f4550.h"
  1086                           INTCON3 equ 0FF0h ;# 
  1087  0000                     # 8507 "C:\Program Files (x86)\Microchip\xc8\v2.00\pic\include\pic18f4550.h"
  1088                           INTCON2 equ 0FF1h ;# 
  1089  0000                     # 8584 "C:\Program Files (x86)\Microchip\xc8\v2.00\pic\include\pic18f4550.h"
  1090                           INTCON equ 0FF2h ;# 
  1091  0000                     # 8701 "C:\Program Files (x86)\Microchip\xc8\v2.00\pic\include\pic18f4550.h"
  1092                           PROD equ 0FF3h ;# 
  1093  0000                     # 8708 "C:\Program Files (x86)\Microchip\xc8\v2.00\pic\include\pic18f4550.h"
  1094                           PRODL equ 0FF3h ;# 
  1095  0000                     # 8715 "C:\Program Files (x86)\Microchip\xc8\v2.00\pic\include\pic18f4550.h"
  1096                           PRODH equ 0FF4h ;# 
  1097  0000                     # 8722 "C:\Program Files (x86)\Microchip\xc8\v2.00\pic\include\pic18f4550.h"
  1098                           TABLAT equ 0FF5h ;# 
  1099  0000                     # 8731 "C:\Program Files (x86)\Microchip\xc8\v2.00\pic\include\pic18f4550.h"
  1100                           TBLPTR equ 0FF6h ;# 
  1101  0000                     # 8738 "C:\Program Files (x86)\Microchip\xc8\v2.00\pic\include\pic18f4550.h"
  1102                           TBLPTRL equ 0FF6h ;# 
  1103  0000                     # 8745 "C:\Program Files (x86)\Microchip\xc8\v2.00\pic\include\pic18f4550.h"
  1104                           TBLPTRH equ 0FF7h ;# 
  1105  0000                     # 8752 "C:\Program Files (x86)\Microchip\xc8\v2.00\pic\include\pic18f4550.h"
  1106                           TBLPTRU equ 0FF8h ;# 
  1107  0000                     # 8761 "C:\Program Files (x86)\Microchip\xc8\v2.00\pic\include\pic18f4550.h"
  1108                           PCLAT equ 0FF9h ;# 
  1109  0000                     # 8768 "C:\Program Files (x86)\Microchip\xc8\v2.00\pic\include\pic18f4550.h"
  1110                           PC equ 0FF9h ;# 
  1111  0000                     # 8775 "C:\Program Files (x86)\Microchip\xc8\v2.00\pic\include\pic18f4550.h"
  1112                           PCL equ 0FF9h ;# 
  1113  0000                     # 8782 "C:\Program Files (x86)\Microchip\xc8\v2.00\pic\include\pic18f4550.h"
  1114                           PCLATH equ 0FFAh ;# 
  1115  0000                     # 8789 "C:\Program Files (x86)\Microchip\xc8\v2.00\pic\include\pic18f4550.h"
  1116                           PCLATU equ 0FFBh ;# 
  1117  0000                     # 8796 "C:\Program Files (x86)\Microchip\xc8\v2.00\pic\include\pic18f4550.h"
  1118                           STKPTR equ 0FFCh ;# 
  1119  0000                     # 8872 "C:\Program Files (x86)\Microchip\xc8\v2.00\pic\include\pic18f4550.h"
  1120                           TOS equ 0FFDh ;# 
  1121  0000                     # 8879 "C:\Program Files (x86)\Microchip\xc8\v2.00\pic\include\pic18f4550.h"
  1122                           TOSL equ 0FFDh ;# 
  1123  0000                     # 8886 "C:\Program Files (x86)\Microchip\xc8\v2.00\pic\include\pic18f4550.h"
  1124                           TOSH equ 0FFEh ;# 
  1125  0000                     # 8893 "C:\Program Files (x86)\Microchip\xc8\v2.00\pic\include\pic18f4550.h"
  1126                           TOSU equ 0FFFh ;# 
  1127  0000                     	FNCALL	_main,_configuracionInicial
  1128                           	FNCALL	_main,_loop
  1129                           	FNCALL	_main,_setup
  1130                           	FNCALL	_setup,_ComunicationInit
  1131                           	FNCALL	_setup,_RobotInit
  1132                           	FNCALL	_setup,_WeaponInit
  1133                           	FNCALL	_setup,_pinMode
  1134                           	FNCALL	_WeaponInit,_digitalWrite
  1135                           	FNCALL	_WeaponInit,_pinMode
  1136                           	FNCALL	_RobotInit,_pinMode
  1137                           	FNCALL	_ComunicationInit,_USART_Init
  1138                           	FNCALL	_ComunicationInit,_delay
  1139                           	FNCALL	_USART_Init,___fladd
  1140                           	FNCALL	_USART_Init,___fldiv
  1141                           	FNCALL	_USART_Init,___fltol
  1142                           	FNCALL	_USART_Init,___xxtofl
  1143                           	FNCALL	_loop,_PBRead
  1144                           	FNCALL	_loop,_adelante
  1145                           	FNCALL	_loop,_atras
  1146                           	FNCALL	_loop,_delay
  1147                           	FNCALL	_loop,_derecha
  1148                           	FNCALL	_loop,_izquierda
  1149                           	FNCALL	_loop,_stop
  1150                           	FNCALL	_stop,_analogWrite
  1151                           	FNCALL	_stop,_digitalWrite
  1152                           	FNCALL	_izquierda,_analogWrite
  1153                           	FNCALL	_izquierda,_digitalWrite
  1154                           	FNCALL	_derecha,_analogWrite
  1155                           	FNCALL	_derecha,_digitalWrite
  1156                           	FNCALL	_atras,_analogWrite
  1157                           	FNCALL	_atras,_digitalWrite
  1158                           	FNCALL	_adelante,_analogWrite
  1159                           	FNCALL	_adelante,_digitalWrite
  1160                           	FNCALL	_configuracionInicial,_ADCConfig
  1161                           	FNCALL	_configuracionInicial,_CCPConfig
  1162                           	FNCALL	_configuracionInicial,_PORTSConfiguration
  1163                           	FNCALL	_configuracionInicial,_TMR0Config
  1164                           	FNCALL	_configuracionInicial,_TMR1Config
  1165                           	FNROOT	_main
  1166                           	FNCALL	intlevel2,_TimerOverflow
  1167                           	global	intlevel2
  1168                           	FNROOT	intlevel2
  1169                           	global	_vel
  1170                           psect	idataCOMRAM,class=CODE,space=0,delta=1,noexec
  1171                           global __pidataCOMRAM
  1172                           __pidataCOMRAM:
  1173  002656                     	file	"application.c"
  1174                           	line	20
  1175                           
  1176                           ;initializer for _vel
  1177                           	dw	(012Ch)&0ffffh
  1178  002656  012C               psect	smallconst,class=SMALLCONST,space=0,reloc=2,noexec
  1179                           global __psmallconst
  1180                           __psmallconst:
  1181  000800                     	db	0
  1182  000800  00                 	file	"application.c"
  1183                           	line	17
  1184                           	global	_data
  1185                           _data:
  1186  000801                     	db	low(061h)
  1187  000801  61                 	db	low(062h)
  1188  000802  62                 	db	low(063h)
  1189  000803  63                 	db	low(064h)
  1190  000804  64                 	db	low(065h)
  1191  000805  65                 	global __end_of_data
  1192                           __end_of_data:
  1193  000806                     	global	_pines
  1194                           psect	smallconst
  1195                           	file	"application.c"
  1196                           	line	16
  1197                           _pines:
  1198  000806                     	db	low(0Bh)
  1199  000806  0B                 	db	low(05h)
  1200  000807  05                 	db	low(06h)
  1201  000808  06                 	db	low(07h)
  1202  000809  07                 	db	low(08h)
  1203  00080A  08                 	global __end_of_pines
  1204                           __end_of_pines:
  1205  00080B                     	global	_pines
  1206                           	global	_millis
  1207                           	global	_estado
  1208                           	global	_SPBRG_Register
  1209                           psect	nvCOMRAM,class=COMRAM,space=1,noexec
  1210                           global __pnvCOMRAM
  1211                           __pnvCOMRAM:
  1212  00004E                     	global	_SPBRG_Register
  1213                           _SPBRG_Register:
  1214  00004E                            ds      2
  1215  00004E                     	global	_TMR0
  1216                           _TMR0	set	0xFD6
  1217  0000                     	global	_RCSTA
  1218                           _RCSTA	set	0xFAB
  1219  0000                     	global	_TXSTA
  1220                           _TXSTA	set	0xFAC
  1221  0000                     	global	_RCREG
  1222                           _RCREG	set	0xFAE
  1223  0000                     	global	_TXREG
  1224                           _TXREG	set	0xFAD
  1225  0000                     	global	_PORTEbits
  1226                           _PORTEbits	set	0xF84
  1227  0000                     	global	_TRISEbits
  1228                           _TRISEbits	set	0xF96
  1229  0000                     	global	_TRISD
  1230                           _TRISD	set	0xF95
  1231  0000                     	global	_TRISC
  1232                           _TRISC	set	0xF94
  1233  0000                     	global	_TRISB
  1234                           _TRISB	set	0xF93
  1235  0000                     	global	_TRISA
  1236                           _TRISA	set	0xF92
  1237  0000                     	global	_TMR1H
  1238                           _TMR1H	set	0xFCF
  1239  0000                     	global	_TMR1L
  1240                           _TMR1L	set	0xFCE
  1241  0000                     	global	_T1CONbits
  1242                           _T1CONbits	set	0xFCD
  1243  0000                     	global	_T1CON
  1244                           _T1CON	set	0xFCD
  1245  0000                     	global	_TMR0H
  1246                           _TMR0H	set	0xFD7
  1247  0000                     	global	_TMR0L
  1248                           _TMR0L	set	0xFD6
  1249  0000                     	global	_T0CONbits
  1250                           _T0CONbits	set	0xFD5
  1251  0000                     	global	_INTCONbits
  1252                           _INTCONbits	set	0xFF2
  1253  0000                     	global	_T0CON
  1254                           _T0CON	set	0xFD5
  1255  0000                     	global	_PIR1bits
  1256                           _PIR1bits	set	0xF9E
  1257  0000                     	global	_PR2
  1258                           _PR2	set	0xFCB
  1259  0000                     	global	_CCP2CONbits
  1260                           _CCP2CONbits	set	0xFBA
  1261  0000                     	global	_CCPR2L
  1262                           _CCPR2L	set	0xFBB
  1263  0000                     	global	_CCP1CONbits
  1264                           _CCP1CONbits	set	0xFBD
  1265  0000                     	global	_CCPR1L
  1266                           _CCPR1L	set	0xFBE
  1267  0000                     	global	_ADCON2
  1268                           _ADCON2	set	0xFC0
  1269  0000                     	global	_ADCON1
  1270                           _ADCON1	set	0xFC1
  1271  0000                     	global	_ADRESL
  1272                           _ADRESL	set	0xFC3
  1273  0000                     	global	_ADRESH
  1274                           _ADRESH	set	0xFC4
  1275  0000                     	global	_ADCON0bits
  1276                           _ADCON0bits	set	0xFC2
  1277  0000                     	global	_ADCON0
  1278                           _ADCON0	set	0xFC2
  1279  0000                     	global	_PORTBbits
  1280                           _PORTBbits	set	0xF81
  1281  0000                     	global	_PORTDbits
  1282                           _PORTDbits	set	0xF83
  1283  0000                     	global	_PORTCbits
  1284                           _PORTCbits	set	0xF82
  1285  0000                     	global	_PORTAbits
  1286                           _PORTAbits	set	0xF80
  1287  0000                     	global	_LATBbits
  1288                           _LATBbits	set	0xF8A
  1289  0000                     	global	_LATDbits
  1290                           _LATDbits	set	0xF8C
  1291  0000                     	global	_LATCbits
  1292                           _LATCbits	set	0xF8B
  1293  0000                     	global	_LATAbits
  1294                           _LATAbits	set	0xF89
  1295  0000                     	global	_TRISBbits
  1296                           _TRISBbits	set	0xF93
  1297  0000                     	global	_TRISDbits
  1298                           _TRISDbits	set	0xF95
  1299  0000                     	global	_TRISCbits
  1300                           _TRISCbits	set	0xF94
  1301  0000                     	global	_TRISAbits
  1302                           _TRISAbits	set	0xF92
  1303  0000                     	global	_SPBRG
  1304                           _SPBRG	set	0xFAF
  1305  0000                     	global	_RCIF
  1306                           _RCIF	set	0x7CF5
  1307  0000                     	global	_TXIF
  1308                           _TXIF	set	0x7CF4
  1309  0000                     	global	_RCIDL
  1310                           _RCIDL	set	0x7DC6
  1311  0000                     	global	_OERR
  1312                           _OERR	set	0x7D59
  1313  0000                     	global	_FERR
  1314                           _FERR	set	0x7D5A
  1315  0000                     	global	_TRMT
  1316                           _TRMT	set	0x7D61
  1317  0000                     	global	_BRGH
  1318                           _BRGH	set	0x7D62
  1319  0000                     	global	_TXEN
  1320                           _TXEN	set	0x7D65
  1321  0000                     	global	_CREN
  1322                           _CREN	set	0x7D5C
  1323  0000                     	global	_TRISC7
  1324                           _TRISC7	set	0x7CA7
  1325  0000                     	global	_TRISC6
  1326                           _TRISC6	set	0x7CA6
  1327  0000                     	global	_SPEN
  1328                           _SPEN	set	0x7D5F
  1329  0000                     	global	_SYNC
  1330                           _SYNC	set	0x7D64
  1331  0000                     	global	_TMR2ON
  1332                           _TMR2ON	set	0x7E52
  1333  0000                     	global	_DC1B0
  1334                           _DC1B0	set	0x7DEC
  1335  0000                     	global	_DC1B1
  1336                           _DC1B1	set	0x7DED
  1337  0000                     	global	_CCP1M2
  1338                           _CCP1M2	set	0x7DEA
  1339  0000                     	global	_CCP1M3
  1340                           _CCP1M3	set	0x7DEB
  1341  0000                     	global	_T2CKPS1
  1342                           _T2CKPS1	set	0x7E51
  1343  0000                     	global	_T2CKPS0
  1344                           _T2CKPS0	set	0x7E50
  1345  0000                     ; #config settings
  1346                           global __CFG_PLLDIV$5
  1347                           __CFG_PLLDIV$5 equ 0x0
  1348  0000                     global __CFG_CPUDIV$OSC3_PLL4
  1349                           __CFG_CPUDIV$OSC3_PLL4 equ 0x0
  1350  0000                     global __CFG_USBDIV$1
  1351                           __CFG_USBDIV$1 equ 0x0
  1352  0000                     global __CFG_FOSC$HSPLL_HS
  1353                           __CFG_FOSC$HSPLL_HS equ 0x0
  1354  0000                     global __CFG_FCMEN$OFF
  1355                           __CFG_FCMEN$OFF equ 0x0
  1356  0000                     global __CFG_IESO$OFF
  1357                           __CFG_IESO$OFF equ 0x0
  1358  0000                     global __CFG_PWRT$OFF
  1359                           __CFG_PWRT$OFF equ 0x0
  1360  0000                     global __CFG_BOR$OFF
  1361                           __CFG_BOR$OFF equ 0x0
  1362  0000                     global __CFG_BORV$3
  1363                           __CFG_BORV$3 equ 0x0
  1364  0000                     global __CFG_VREGEN$OFF
  1365                           __CFG_VREGEN$OFF equ 0x0
  1366  0000                     global __CFG_WDT$OFF
  1367                           __CFG_WDT$OFF equ 0x0
  1368  0000                     global __CFG_WDTPS$32768
  1369                           __CFG_WDTPS$32768 equ 0x0
  1370  0000                     global __CFG_CCP2MX$ON
  1371                           __CFG_CCP2MX$ON equ 0x0
  1372  0000                     global __CFG_PBADEN$OFF
  1373                           __CFG_PBADEN$OFF equ 0x0
  1374  0000                     global __CFG_LPT1OSC$OFF
  1375                           __CFG_LPT1OSC$OFF equ 0x0
  1376  0000                     global __CFG_MCLRE$ON
  1377                           __CFG_MCLRE$ON equ 0x0
  1378  0000                     global __CFG_STVREN$ON
  1379                           __CFG_STVREN$ON equ 0x0
  1380  0000                     global __CFG_LVP$OFF
  1381                           __CFG_LVP$OFF equ 0x0
  1382  0000                     global __CFG_ICPRT$OFF
  1383                           __CFG_ICPRT$OFF equ 0x0
  1384  0000                     global __CFG_XINST$OFF
  1385                           __CFG_XINST$OFF equ 0x0
  1386  0000                     global __CFG_CP0$OFF
  1387                           __CFG_CP0$OFF equ 0x0
  1388  0000                     global __CFG_CP1$OFF
  1389                           __CFG_CP1$OFF equ 0x0
  1390  0000                     global __CFG_CP2$OFF
  1391                           __CFG_CP2$OFF equ 0x0
  1392  0000                     global __CFG_CP3$OFF
  1393                           __CFG_CP3$OFF equ 0x0
  1394  0000                     global __CFG_CPB$OFF
  1395                           __CFG_CPB$OFF equ 0x0
  1396  0000                     global __CFG_CPD$OFF
  1397                           __CFG_CPD$OFF equ 0x0
  1398  0000                     global __CFG_WRT0$OFF
  1399                           __CFG_WRT0$OFF equ 0x0
  1400  0000                     global __CFG_WRT1$OFF
  1401                           __CFG_WRT1$OFF equ 0x0
  1402  0000                     global __CFG_WRT2$OFF
  1403                           __CFG_WRT2$OFF equ 0x0
  1404  0000                     global __CFG_WRT3$OFF
  1405                           __CFG_WRT3$OFF equ 0x0
  1406  0000                     global __CFG_WRTC$OFF
  1407                           __CFG_WRTC$OFF equ 0x0
  1408  0000                     global __CFG_WRTB$OFF
  1409                           __CFG_WRTB$OFF equ 0x0
  1410  0000                     global __CFG_WRTD$OFF
  1411                           __CFG_WRTD$OFF equ 0x0
  1412  0000                     global __CFG_EBTR0$OFF
  1413                           __CFG_EBTR0$OFF equ 0x0
  1414  0000                     global __CFG_EBTR1$OFF
  1415                           __CFG_EBTR1$OFF equ 0x0
  1416  0000                     global __CFG_EBTR2$OFF
  1417                           __CFG_EBTR2$OFF equ 0x0
  1418  0000                     global __CFG_EBTR3$OFF
  1419                           __CFG_EBTR3$OFF equ 0x0
  1420  0000                     global __CFG_EBTRB$OFF
  1421                           __CFG_EBTRB$OFF equ 0x0
  1422  0000                     	file	"C:\Users\c4810\AppData\Local\Temp\s8nc."
  1423                           	line	#
  1424                           psect	cinit,class=CODE,delta=1,reloc=2
  1425                           global __pcinit
  1426                           __pcinit:
  1427  0024F6                     global start_initialization
  1428                           start_initialization:
  1429  0024F6                     
  1430                           global __initialization
  1431                           __initialization:
  1432  0024F6                     psect	bssCOMRAM,class=COMRAM,space=1,noexec
  1433                           global __pbssCOMRAM
  1434                           __pbssCOMRAM:
  1435  000044                     	global	_freq
  1436                           	global	_freq
  1437                           _freq:
  1438  000044                            ds      4
  1439  000044                     	global	_millis
  1440                           _millis:
  1441  000048                            ds      4
  1442  000048                     	global	_estado
  1443                           _estado:
  1444  00004C                            ds      2
  1445  00004C                     psect	dataCOMRAM,class=COMRAM,space=1,noexec
  1446                           global __pdataCOMRAM
  1447                           __pdataCOMRAM:
  1448  000050                     	file	"application.c"
  1449                           	line	20
  1450                           	global	_vel
  1451                           _vel:
  1452  000050                            ds      2
  1453  000050                     	file	"C:\Users\c4810\AppData\Local\Temp\s8nc."
  1454                           	line	#
  1455                           psect	cinit
  1456                           ; Initialize objects allocated to COMRAM (2 bytes)
  1457                           	global __pidataCOMRAM
  1458                           	; load TBLPTR registers with __pidataCOMRAM
  1459                           	movlw	low (__pidataCOMRAM)
  1460  0024F6  0E56               	movwf	tblptrl
  1461  0024F8  6EF6               	movlw	high(__pidataCOMRAM)
  1462  0024FA  0E26               	movwf	tblptrh
  1463  0024FC  6EF7               	movlw	low highword(__pidataCOMRAM)
  1464  0024FE  0E00               	movwf	tblptru
  1465  002500  6EF8               	tblrd*+ ;fetch initializer
  1466  002502  0009               	movff	tablat, __pdataCOMRAM+0		
  1467  002504  CFF5 F050          	tblrd*+ ;fetch initializer
  1468  002508  0009               	movff	tablat, __pdataCOMRAM+1		
  1469  00250A  CFF5 F051          	line	#
  1470                           ; Clear objects allocated to COMRAM (10 bytes)
  1471                           	global __pbssCOMRAM
  1472                           lfsr	0,__pbssCOMRAM
  1473  00250E  EE00  F044         movlw	10
  1474  002512  0E0A               clear_0:
  1475  002514                     clrf	postinc0,c
  1476  002514  6AEE               decf	wreg
  1477  002516  06E8               bnz	clear_0
  1478  002518  E1FD               psect cinit,class=CODE,delta=1
  1479                           global end_of_initialization,__end_of__initialization
  1480                           
  1481                           ;End of C runtime variable initialization code
  1482                           
  1483                           end_of_initialization:
  1484  00251A                     __end_of__initialization:
  1485  00251A                     	bcf int$flags,0,c ;clear compiler interrupt flag (level 1)
  1486  00251A  9052               	bcf int$flags,1,c ;clear compiler interrupt flag (level 2)
  1487  00251C  9252               	GLOBAL	__Lmediumconst
  1488                           	movlw	low highword(__Lmediumconst)
  1489  00251E  0E00               	movwf	tblptru
  1490  002520  6EF8               movlb 0
  1491  002522  0100               goto _main	;jump to C main() function
  1492  002524  EFF9  F012         psect	cstackCOMRAM,class=COMRAM,space=1,noexec
  1493                           global __pcstackCOMRAM
  1494                           __pcstackCOMRAM:
  1495  000001                     ?_configuracionInicial:	; 1 bytes @ 0x0
  1496  000001                     ?_setup:	; 1 bytes @ 0x0
  1497  000001                     ?_loop:	; 1 bytes @ 0x0
  1498  000001                     ?_ADCConfig:	; 1 bytes @ 0x0
  1499  000001                     ??_ADCConfig:	; 1 bytes @ 0x0
  1500  000001                     ?_CCPConfig:	; 1 bytes @ 0x0
  1501  000001                     ?_PORTSConfiguration:	; 1 bytes @ 0x0
  1502  000001                     ??_PORTSConfiguration:	; 1 bytes @ 0x0
  1503  000001                     ?_TMR0Config:	; 1 bytes @ 0x0
  1504  000001                     ??_TMR0Config:	; 1 bytes @ 0x0
  1505  000001                     ?_TMR1Config:	; 1 bytes @ 0x0
  1506  000001                     ??_TMR1Config:	; 1 bytes @ 0x0
  1507  000001                     ?_RobotInit:	; 1 bytes @ 0x0
  1508  000001                     ?_WeaponInit:	; 1 bytes @ 0x0
  1509  000001                     ?_ComunicationInit:	; 1 bytes @ 0x0
  1510  000001                     ?_stop:	; 1 bytes @ 0x0
  1511  000001                     ?_delay:	; 1 bytes @ 0x0
  1512  000001                     ?_pinMode:	; 1 bytes @ 0x0
  1513  000001                     ?_digitalWrite:	; 1 bytes @ 0x0
  1514  000001                     ?_analogWrite:	; 1 bytes @ 0x0
  1515  000001                     ?_TimerOverflow:	; 1 bytes @ 0x0
  1516  000001                     ??_TimerOverflow:	; 1 bytes @ 0x0
  1517  000001                     ?_PBRead:	; 1 bytes @ 0x0
  1518  000001                     ??_PBRead:	; 1 bytes @ 0x0
  1519  000001                     ?_main:	; 2 bytes @ 0x0
  1520  000001                     	global	?___fltol
  1521                           ?___fltol:	; 4 bytes @ 0x0
  1522  000001                     	global	?___xxtofl
  1523                           ?___xxtofl:	; 4 bytes @ 0x0
  1524  000001                     	global	pinMode@mode
  1525                           pinMode@mode:	; 1 bytes @ 0x0
  1526  000001                     	global	digitalWrite@mode
  1527                           digitalWrite@mode:	; 1 bytes @ 0x0
  1528  000001                     	global	delay@milis
  1529                           delay@milis:	; 2 bytes @ 0x0
  1530  000001                     	global	analogWrite@value
  1531                           analogWrite@value:	; 2 bytes @ 0x0
  1532  000001                     	global	CCPConfig@pwm1
  1533                           CCPConfig@pwm1:	; 4 bytes @ 0x0
  1534  000001                     	global	___fltol@f1
  1535                           ___fltol@f1:	; 4 bytes @ 0x0
  1536  000001                     	global	___xxtofl@val
  1537                           ___xxtofl@val:	; 4 bytes @ 0x0
  1538  000001                     	ds   1
  1539  000001                     ??_pinMode:	; 1 bytes @ 0x1
  1540  000002                     ??_digitalWrite:	; 1 bytes @ 0x1
  1541  000002                     	ds   1
  1542  000002                     ??_delay:	; 1 bytes @ 0x2
  1543  000003                     ??_analogWrite:	; 1 bytes @ 0x2
  1544  000003                     	global	TMR0Config@mode
  1545                           TMR0Config@mode:	; 1 bytes @ 0x2
  1546  000003                     	global	PBRead@pin
  1547                           PBRead@pin:	; 1 bytes @ 0x2
  1548  000003                     	ds   1
  1549  000003                     	global	pinMode@pin
  1550                           pinMode@pin:	; 1 bytes @ 0x3
  1551  000004                     	global	digitalWrite@pin
  1552                           digitalWrite@pin:	; 1 bytes @ 0x3
  1553  000004                     	global	delay@j
  1554                           delay@j:	; 2 bytes @ 0x3
  1555  000004                     	ds   1
  1556  000004                     ??_RobotInit:	; 1 bytes @ 0x4
  1557  000005                     ??_WeaponInit:	; 1 bytes @ 0x4
  1558  000005                     ??___fltol:	; 1 bytes @ 0x4
  1559  000005                     ??___xxtofl:	; 1 bytes @ 0x4
  1560  000005                     	global	analogWrite@pin
  1561                           analogWrite@pin:	; 1 bytes @ 0x4
  1562  000005                     	global	CCPConfig@TMR2PRESCALE
  1563                           CCPConfig@TMR2PRESCALE:	; 2 bytes @ 0x4
  1564  000005                     	ds   1
  1565  000005                     ?_adelante:	; 1 bytes @ 0x5
  1566  000006                     ?_atras:	; 1 bytes @ 0x5
  1567  000006                     ?_izquierda:	; 1 bytes @ 0x5
  1568  000006                     ?_derecha:	; 1 bytes @ 0x5
  1569  000006                     ??_stop:	; 1 bytes @ 0x5
  1570  000006                     	global	delay@i
  1571                           delay@i:	; 2 bytes @ 0x5
  1572  000006                     	global	adelante@velocidad
  1573                           adelante@velocidad:	; 2 bytes @ 0x5
  1574  000006                     	global	atras@velocidad
  1575                           atras@velocidad:	; 2 bytes @ 0x5
  1576  000006                     	global	izquierda@velocidad
  1577                           izquierda@velocidad:	; 2 bytes @ 0x5
  1578  000006                     	global	derecha@velocidad
  1579                           derecha@velocidad:	; 2 bytes @ 0x5
  1580  000006                     	ds   1
  1581  000006                     ??_CCPConfig:	; 1 bytes @ 0x6
  1582  000007                     	ds   1
  1583  000007                     ??_loop:	; 1 bytes @ 0x7
  1584  000008                     ??_adelante:	; 1 bytes @ 0x7
  1585  000008                     ??_atras:	; 1 bytes @ 0x7
  1586  000008                     ??_izquierda:	; 1 bytes @ 0x7
  1587  000008                     ??_derecha:	; 1 bytes @ 0x7
  1588  000008                     	ds   1
  1589  000008                     ??_configuracionInicial:	; 1 bytes @ 0x8
  1590  000009                     	global	___fltol@sign1
  1591                           ___fltol@sign1:	; 1 bytes @ 0x8
  1592  000009                     	global	___xxtofl@sign
  1593                           ___xxtofl@sign:	; 1 bytes @ 0x8
  1594  000009                     	ds   1
  1595  000009                     	global	___fltol@exp1
  1596                           ___fltol@exp1:	; 1 bytes @ 0x9
  1597  00000A                     	global	___xxtofl@exp
  1598                           ___xxtofl@exp:	; 1 bytes @ 0x9
  1599  00000A                     	ds   1
  1600  00000A                     	global	___xxtofl@arg
  1601                           ___xxtofl@arg:	; 4 bytes @ 0xA
  1602  00000B                     	ds   4
  1603  00000B                     	global	?___fldiv
  1604                           ?___fldiv:	; 4 bytes @ 0xE
  1605  00000F                     	global	___fldiv@b
  1606                           ___fldiv@b:	; 4 bytes @ 0xE
  1607  00000F                     	ds   4
  1608  00000F                     	global	___fldiv@a
  1609                           ___fldiv@a:	; 4 bytes @ 0x12
  1610  000013                     	ds   4
  1611  000013                     ??___fldiv:	; 1 bytes @ 0x16
  1612  000017                     	ds   4
  1613  000017                     	global	___fldiv@rem
  1614                           ___fldiv@rem:	; 4 bytes @ 0x1A
  1615  00001B                     	ds   4
  1616  00001B                     	global	___fldiv@sign
  1617                           ___fldiv@sign:	; 1 bytes @ 0x1E
  1618  00001F                     	ds   1
  1619  00001F                     	global	___fldiv@new_exp
  1620                           ___fldiv@new_exp:	; 2 bytes @ 0x1F
  1621  000020                     	ds   2
  1622  000020                     	global	___fldiv@grs
  1623                           ___fldiv@grs:	; 4 bytes @ 0x21
  1624  000022                     	ds   4
  1625  000022                     	global	___fldiv@bexp
  1626                           ___fldiv@bexp:	; 1 bytes @ 0x25
  1627  000026                     	ds   1
  1628  000026                     	global	___fldiv@aexp
  1629                           ___fldiv@aexp:	; 1 bytes @ 0x26
  1630  000027                     	ds   1
  1631  000027                     	global	?___fladd
  1632                           ?___fladd:	; 4 bytes @ 0x27
  1633  000028                     	global	___fladd@b
  1634                           ___fladd@b:	; 4 bytes @ 0x27
  1635  000028                     	ds   4
  1636  000028                     	global	___fladd@a
  1637                           ___fladd@a:	; 4 bytes @ 0x2B
  1638  00002C                     	ds   4
  1639  00002C                     ??___fladd:	; 1 bytes @ 0x2F
  1640  000030                     	ds   8
  1641  000030                     	global	___fladd@signs
  1642                           ___fladd@signs:	; 1 bytes @ 0x37
  1643  000038                     	ds   1
  1644  000038                     	global	___fladd@aexp
  1645                           ___fladd@aexp:	; 1 bytes @ 0x38
  1646  000039                     	ds   1
  1647  000039                     	global	___fladd@bexp
  1648                           ___fladd@bexp:	; 1 bytes @ 0x39
  1649  00003A                     	ds   1
  1650  00003A                     	global	___fladd@grs
  1651                           ___fladd@grs:	; 1 bytes @ 0x3A
  1652  00003B                     	ds   1
  1653  00003B                     ?_USART_Init:	; 1 bytes @ 0x3B
  1654  00003C                     	global	USART_Init@baud_rate
  1655                           USART_Init@baud_rate:	; 4 bytes @ 0x3B
  1656  00003C                     	ds   4
  1657  00003C                     ??_USART_Init:	; 1 bytes @ 0x3F
  1658  000040                     	global	USART_Init@temp
  1659                           USART_Init@temp:	; 4 bytes @ 0x3F
  1660  000040                     	ds   4
  1661  000040                     ??_setup:	; 1 bytes @ 0x43
  1662  000044                     ??_ComunicationInit:	; 1 bytes @ 0x43
  1663  000044                     ??_main:	; 1 bytes @ 0x43
  1664  000044                     ;!
  1665                           ;!Data Sizes:
  1666                           ;!    Strings     0
  1667                           ;!    Constant    10
  1668                           ;!    Data        2
  1669                           ;!    BSS         10
  1670                           ;!    Persistent  2
  1671                           ;!    Stack       0
  1672                           ;!
  1673                           ;!Auto Spaces:
  1674                           ;!    Space          Size  Autos    Used
  1675                           ;!    COMRAM           94     67      81
  1676                           ;!    BANK0           160      0       0
  1677                           ;!    BANK1           256      0       0
  1678                           ;!    BANK2           256      0       0
  1679                           ;!    BANK3           256      0       0
  1680                           ;!    BANK4           256      0       0
  1681                           ;!    BANK5           256      0       0
  1682                           ;!    BANK6           256      0       0
  1683                           ;!    BANK7           256      0       0
  1684                           
  1685                           ;!
  1686                           ;!Pointer List with Targets:
  1687                           ;!
  1688                           ;!    None.
  1689                           
  1690                           
  1691                           ;!
  1692                           ;!Critical Paths under _main in COMRAM
  1693                           ;!
  1694                           ;!    _WeaponInit->_digitalWrite
  1695                           ;!    _WeaponInit->_pinMode
  1696                           ;!    _RobotInit->_pinMode
  1697                           ;!    _ComunicationInit->_USART_Init
  1698                           ;!    _USART_Init->___fladd
  1699                           ;!    ___fldiv->___xxtofl
  1700                           ;!    ___fladd->___fldiv
  1701                           ;!    _loop->_adelante
  1702                           ;!    _loop->_atras
  1703                           ;!    _loop->_delay
  1704                           ;!    _loop->_derecha
  1705                           ;!    _loop->_izquierda
  1706                           ;!    _stop->_analogWrite
  1707                           ;!    _izquierda->_analogWrite
  1708                           ;!    _derecha->_analogWrite
  1709                           ;!    _atras->_analogWrite
  1710                           ;!    _adelante->_analogWrite
  1711                           ;!    _configuracionInicial->_CCPConfig
  1712                           ;!
  1713                           ;!Critical Paths under _TimerOverflow in COMRAM
  1714                           ;!
  1715                           ;!    None.
  1716                           ;!
  1717                           ;!Critical Paths under _main in BANK0
  1718                           ;!
  1719                           ;!    None.
  1720                           ;!
  1721                           ;!Critical Paths under _TimerOverflow in BANK0
  1722                           ;!
  1723                           ;!    None.
  1724                           ;!
  1725                           ;!Critical Paths under _main in BANK1
  1726                           ;!
  1727                           ;!    None.
  1728                           ;!
  1729                           ;!Critical Paths under _TimerOverflow in BANK1
  1730                           ;!
  1731                           ;!    None.
  1732                           ;!
  1733                           ;!Critical Paths under _main in BANK2
  1734                           ;!
  1735                           ;!    None.
  1736                           ;!
  1737                           ;!Critical Paths under _TimerOverflow in BANK2
  1738                           ;!
  1739                           ;!    None.
  1740                           ;!
  1741                           ;!Critical Paths under _main in BANK3
  1742                           ;!
  1743                           ;!    None.
  1744                           ;!
  1745                           ;!Critical Paths under _TimerOverflow in BANK3
  1746                           ;!
  1747                           ;!    None.
  1748                           ;!
  1749                           ;!Critical Paths under _main in BANK4
  1750                           ;!
  1751                           ;!    None.
  1752                           ;!
  1753                           ;!Critical Paths under _TimerOverflow in BANK4
  1754                           ;!
  1755                           ;!    None.
  1756                           ;!
  1757                           ;!Critical Paths under _main in BANK5
  1758                           ;!
  1759                           ;!    None.
  1760                           ;!
  1761                           ;!Critical Paths under _TimerOverflow in BANK5
  1762                           ;!
  1763                           ;!    None.
  1764                           ;!
  1765                           ;!Critical Paths under _main in BANK6
  1766                           ;!
  1767                           ;!    None.
  1768                           ;!
  1769                           ;!Critical Paths under _TimerOverflow in BANK6
  1770                           ;!
  1771                           ;!    None.
  1772                           ;!
  1773                           ;!Critical Paths under _main in BANK7
  1774                           ;!
  1775                           ;!    None.
  1776                           ;!
  1777                           ;!Critical Paths under _TimerOverflow in BANK7
  1778                           ;!
  1779                           ;!    None.
  1780                           
  1781 ;;
  1782 ;;Main: autosize = 0, tempsize = 0, incstack = 0, save=0
  1783 ;;
  1784                           
  1785                           ;!
  1786                           ;!Call Graph Tables:
  1787                           ;!
  1788                           ;! ---------------------------------------------------------------------------------
  1789                           ;! (Depth) Function   	        Calls       Base Space   Used Autos Params    Refs
  1790                           ;! ---------------------------------------------------------------------------------
  1791                           ;! (0) _main                                                 0     0      0   32121
  1792                           ;!               _configuracionInicial
  1793                           ;!                               _loop
  1794                           ;!                              _setup
  1795                           ;! ---------------------------------------------------------------------------------
  1796                           ;! (1) _setup                                                0     0      0   13699
  1797                           ;!                   _ComunicationInit
  1798                           ;!                          _RobotInit
  1799                           ;!                         _WeaponInit
  1800                           ;!                            _pinMode
  1801                           ;! ---------------------------------------------------------------------------------
  1802                           ;! (2) _WeaponInit                                           0     0      0    3488
  1803                           ;!                       _digitalWrite
  1804                           ;!                            _pinMode
  1805                           ;! ---------------------------------------------------------------------------------
  1806                           ;! (2) _RobotInit                                            0     0      0     984
  1807                           ;!                            _pinMode
  1808                           ;! ---------------------------------------------------------------------------------
  1809                           ;! (2) _pinMode                                              4     3      1     984
  1810                           ;!                                              0 COMRAM     4     3      1
  1811                           ;! ---------------------------------------------------------------------------------
  1812                           ;! (2) _ComunicationInit                                     0     0      0    8243
  1813                           ;!                         _USART_Init
  1814                           ;!                              _delay
  1815                           ;! ---------------------------------------------------------------------------------
  1816                           ;! (3) _USART_Init                                           8     4      4    6207
  1817                           ;!                                             59 COMRAM     8     4      4
  1818                           ;!                            ___fladd
  1819                           ;!                            ___fldiv
  1820                           ;!                            ___fltol
  1821                           ;!                           ___xxtofl
  1822                           ;! ---------------------------------------------------------------------------------
  1823                           ;! (4) ___xxtofl                                            14    10      4     626
  1824                           ;!                                              0 COMRAM    14    10      4
  1825                           ;! ---------------------------------------------------------------------------------
  1826                           ;! (4) ___fltol                                             10     6      4     305
  1827                           ;!                                              0 COMRAM    10     6      4
  1828                           ;! ---------------------------------------------------------------------------------
  1829                           ;! (4) ___fldiv                                             25    17      8    1703
  1830                           ;!                                             14 COMRAM    25    17      8
  1831                           ;!                           ___xxtofl (ARG)
  1832                           ;! ---------------------------------------------------------------------------------
  1833                           ;! (4) ___fladd                                             20    12      8    3452
  1834                           ;!                                             39 COMRAM    20    12      8
  1835                           ;!                            ___fldiv (ARG)
  1836                           ;!                           ___xxtofl (ARG)
  1837                           ;! ---------------------------------------------------------------------------------
  1838                           ;! (1) _loop                                                 2     2      0   18233
  1839                           ;!                                              7 COMRAM     2     2      0
  1840                           ;!                             _PBRead
  1841                           ;!                           _adelante
  1842                           ;!                              _atras
  1843                           ;!                              _delay
  1844                           ;!                            _derecha
  1845                           ;!                          _izquierda
  1846                           ;!                               _stop
  1847                           ;! ---------------------------------------------------------------------------------
  1848                           ;! (2) _stop                                                 0     0      0    3158
  1849                           ;!                        _analogWrite
  1850                           ;!                       _digitalWrite
  1851                           ;! ---------------------------------------------------------------------------------
  1852                           ;! (2) _izquierda                                            2     0      2    3256
  1853                           ;!                                              5 COMRAM     2     0      2
  1854                           ;!                        _analogWrite
  1855                           ;!                       _digitalWrite
  1856                           ;! ---------------------------------------------------------------------------------
  1857                           ;! (2) _derecha                                              2     0      2    3256
  1858                           ;!                                              5 COMRAM     2     0      2
  1859                           ;!                        _analogWrite
  1860                           ;!                       _digitalWrite
  1861                           ;! ---------------------------------------------------------------------------------
  1862                           ;! (3) _delay                                                7     5      2    2036
  1863                           ;!                                              0 COMRAM     7     5      2
  1864                           ;! ---------------------------------------------------------------------------------
  1865                           ;! (2) _atras                                                2     0      2    3256
  1866                           ;!                                              5 COMRAM     2     0      2
  1867                           ;!                        _analogWrite
  1868                           ;!                       _digitalWrite
  1869                           ;! ---------------------------------------------------------------------------------
  1870                           ;! (2) _adelante                                             2     0      2    3256
  1871                           ;!                                              5 COMRAM     2     0      2
  1872                           ;!                        _analogWrite
  1873                           ;!                       _digitalWrite
  1874                           ;! ---------------------------------------------------------------------------------
  1875                           ;! (3) _digitalWrite                                         4     3      1    2504
  1876                           ;!                                              0 COMRAM     4     3      1
  1877                           ;! ---------------------------------------------------------------------------------
  1878                           ;! (3) _analogWrite                                          5     3      2     654
  1879                           ;!                                              0 COMRAM     5     3      2
  1880                           ;! ---------------------------------------------------------------------------------
  1881                           ;! (2) _PBRead                                               3     3      0      15
  1882                           ;!                                              0 COMRAM     3     3      0
  1883                           ;! ---------------------------------------------------------------------------------
  1884                           ;! (1) _configuracionInicial                                 0     0      0     189
  1885                           ;!                          _ADCConfig
  1886                           ;!                          _CCPConfig
  1887                           ;!                 _PORTSConfiguration
  1888                           ;!                         _TMR0Config
  1889                           ;!                         _TMR1Config
  1890                           ;! ---------------------------------------------------------------------------------
  1891                           ;! (2) _TMR1Config                                           0     0      0       0
  1892                           ;! ---------------------------------------------------------------------------------
  1893                           ;! (2) _TMR0Config                                           3     3      0      15
  1894                           ;!                                              0 COMRAM     3     3      0
  1895                           ;! ---------------------------------------------------------------------------------
  1896                           ;! (2) _PORTSConfiguration                                   0     0      0       0
  1897                           ;! ---------------------------------------------------------------------------------
  1898                           ;! (2) _CCPConfig                                            8     2      6     174
  1899                           ;!                                              0 COMRAM     8     2      6
  1900                           ;! ---------------------------------------------------------------------------------
  1901                           ;! (2) _ADCConfig                                            0     0      0       0
  1902                           ;! ---------------------------------------------------------------------------------
  1903                           ;! Estimated maximum stack depth 4
  1904                           ;! ---------------------------------------------------------------------------------
  1905                           ;! (Depth) Function   	        Calls       Base Space   Used Autos Params    Refs
  1906                           ;! ---------------------------------------------------------------------------------
  1907                           ;! (5) _TimerOverflow                                        0     0      0       0
  1908                           ;! ---------------------------------------------------------------------------------
  1909                           ;! Estimated maximum stack depth 5
  1910                           ;! ---------------------------------------------------------------------------------
  1911                           ;!
  1912                           ;! Call Graph Graphs:
  1913                           ;!
  1914                           ;! _main (ROOT)
  1915                           ;!   _configuracionInicial
  1916                           ;!     _ADCConfig
  1917                           ;!     _CCPConfig
  1918                           ;!     _PORTSConfiguration
  1919                           ;!     _TMR0Config
  1920                           ;!     _TMR1Config
  1921                           ;!   _loop
  1922                           ;!     _PBRead
  1923                           ;!     _adelante
  1924                           ;!       _analogWrite
  1925                           ;!       _digitalWrite
  1926                           ;!     _atras
  1927                           ;!       _analogWrite
  1928                           ;!       _digitalWrite
  1929                           ;!     _delay
  1930                           ;!     _derecha
  1931                           ;!       _analogWrite
  1932                           ;!       _digitalWrite
  1933                           ;!     _izquierda
  1934                           ;!       _analogWrite
  1935                           ;!       _digitalWrite
  1936                           ;!     _stop
  1937                           ;!       _analogWrite
  1938                           ;!       _digitalWrite
  1939                           ;!   _setup
  1940                           ;!     _ComunicationInit
  1941                           ;!       _USART_Init
  1942                           ;!         ___fladd
  1943                           ;!           ___fldiv (ARG)
  1944                           ;!             ___xxtofl (ARG)
  1945                           ;!           ___xxtofl (ARG)
  1946                           ;!         ___fldiv
  1947                           ;!           ___xxtofl (ARG)
  1948                           ;!         ___fltol
  1949                           ;!         ___xxtofl
  1950                           ;!       _delay
  1951                           ;!     _RobotInit
  1952                           ;!       _pinMode
  1953                           ;!     _WeaponInit
  1954                           ;!       _digitalWrite
  1955                           ;!       _pinMode
  1956                           ;!     _pinMode
  1957                           ;!
  1958                           ;! _TimerOverflow (ROOT)
  1959                           ;!
  1960                           
  1961                           ;! Address spaces:
  1962                           
  1963                           ;!Name               Size   Autos  Total    Cost      Usage
  1964                           ;!BIGRAM             7FF      0       0      21        0.0%
  1965                           ;!EEDATA             100      0       0       0        0.0%
  1966                           ;!BITBANK7           100      0       0      18        0.0%
  1967                           ;!BANK7              100      0       0      19        0.0%
  1968                           ;!BITBANK6           100      0       0      16        0.0%
  1969                           ;!BANK6              100      0       0      17        0.0%
  1970                           ;!BITBANK5           100      0       0      14        0.0%
  1971                           ;!BANK5              100      0       0      15        0.0%
  1972                           ;!BITBANK4           100      0       0      12        0.0%
  1973                           ;!BANK4              100      0       0      13        0.0%
  1974                           ;!BITBANK3           100      0       0      10        0.0%
  1975                           ;!BANK3              100      0       0      11        0.0%
  1976                           ;!BITBANK2           100      0       0       8        0.0%
  1977                           ;!BANK2              100      0       0       9        0.0%
  1978                           ;!BITBANK1           100      0       0       6        0.0%
  1979                           ;!BANK1              100      0       0       7        0.0%
  1980                           ;!BITBANK0            A0      0       0       4        0.0%
  1981                           ;!BANK0               A0      0       0       5        0.0%
  1982                           ;!BITCOMRAM           5E      0       0       0        0.0%
  1983                           ;!COMRAM              5E     43      51       1       86.2%
  1984                           ;!BITSFR               0      0       0     200        0.0%
  1985                           ;!SFR                  0      0       0     200        0.0%
  1986                           ;!STACK                0      0       0       2        0.0%
  1987                           ;!NULL                 0      0       0       0        0.0%
  1988                           ;!ABS                  0      0      51      20        0.0%
  1989                           ;!DATA                 0      0      51       3        0.0%
  1990                           ;!CODE                 0      0       0       0        0.0%
  1991                           
  1992                           	global	_main
  1993                           
  1994 ;; *************** function _main *****************
  1995 ;; Defined at:
  1996 ;;		line 16 in file "main.c"
  1997 ;; Parameters:    Size  Location     Type
  1998 ;;		None
  1999 ;; Auto vars:     Size  Location     Type
  2000 ;;		None
  2001 ;; Return value:  Size  Location     Type
  2002 ;;                  2  152[None  ] int 
  2003 ;; Registers used:
  2004 ;;		wreg, status,2, status,0, cstack
  2005 ;; Tracked objects:
  2006 ;;		On entry : 0/0
  2007 ;;		On exit  : 0/0
  2008 ;;		Unchanged: 0/0
  2009 ;; Data sizes:     COMRAM   BANK0   BANK1   BANK2   BANK3   BANK4   BANK5   BANK6   BANK7
  2010 ;;      Params:         0       0       0       0       0       0       0       0       0
  2011 ;;      Locals:         0       0       0       0       0       0       0       0       0
  2012 ;;      Temps:          0       0       0       0       0       0       0       0       0
  2013 ;;      Totals:         0       0       0       0       0       0       0       0       0
  2014 ;;Total ram usage:        0 bytes
  2015 ;; Hardware stack levels required when called:    5
  2016 ;; This function calls:
  2017 ;;		_configuracionInicial
  2018 ;;		_loop
  2019 ;;		_setup
  2020 ;; This function is called by:
  2021 ;;		Startup code after reset
  2022 ;; This function uses a non-reentrant model
  2023 ;;
  2024                           psect	text0,class=CODE,space=0,reloc=2,group=0
  2025                           	file	"main.c"
  2026                           	line	16
  2027                           global __ptext0
  2028                           __ptext0:
  2029  0025F2                     psect	text0
  2030                           	file	"main.c"
  2031                           	line	16
  2032                           	global	__size_of_main
  2033                           	__size_of_main	equ	__end_of_main-_main
  2034  0000                     	
  2035                           _main:
  2036  0025F2                     ;incstack = 0
  2037                           	opt	stack 26
  2038                           	line	18
  2039                           	
  2040                           l3144:
  2041  0025F2                     ;main.c: 18:     SPBRG_Register = SPBRG;
  2042                           	movff	(c:4015),(c:_SPBRG_Register)	;volatile
  2043  0025F2  CFAF F04E          	clrf	((c:_SPBRG_Register+1)),c
  2044  0025F6  6A4F               	line	20
  2045                           	
  2046                           l3146:
  2047  0025F8                     ;main.c: 20:     configuracionInicial();
  2048                           	call	_configuracionInicial	;wreg free
  2049  0025F8  EC94  F012         	line	21
  2050                           ;main.c: 21:     setup();
  2051                           	call	_setup	;wreg free
  2052  0025FC  ECE9  F012         	line	22
  2053                           ;main.c: 22:     while(1)
  2054                           	
  2055                           l153:
  2056  002600                     	line	24
  2057                           ;main.c: 23:     {;main.c: 24:         loop();
  2058                           	call	_loop	;wreg free
  2059  002600  EC06  F004         	goto	l153
  2060  002604  EF00  F013         	line	25
  2061                           ;main.c: 25:     }
  2062                           	
  2063                           l154:
  2064  002608                     	goto	l153
  2065  002608  EF00  F013         	
  2066                           l155:
  2067  00260C                     	line	27
  2068                           ;main.c: 26:     return 0;;	Return value of _main is never used
  2069                           	
  2070                           l156:
  2071  00260C                     	global	start
  2072                           	goto	start
  2073  00260C  EF07  F000         	opt stack 0
  2074                           GLOBAL	__end_of_main
  2075                           	__end_of_main:
  2076  002610                     	signat	_main,90
  2077                           	global	_setup
  2078                           
  2079 ;; *************** function _setup *****************
  2080 ;; Defined at:
  2081 ;;		line 22 in file "application.c"
  2082 ;; Parameters:    Size  Location     Type
  2083 ;;		None
  2084 ;; Auto vars:     Size  Location     Type
  2085 ;;		None
  2086 ;; Return value:  Size  Location     Type
  2087 ;;                  1    wreg      void 
  2088 ;; Registers used:
  2089 ;;		wreg, status,2, status,0, cstack
  2090 ;; Tracked objects:
  2091 ;;		On entry : 0/0
  2092 ;;		On exit  : 0/0
  2093 ;;		Unchanged: 0/0
  2094 ;; Data sizes:     COMRAM   BANK0   BANK1   BANK2   BANK3   BANK4   BANK5   BANK6   BANK7
  2095 ;;      Params:         0       0       0       0       0       0       0       0       0
  2096 ;;      Locals:         0       0       0       0       0       0       0       0       0
  2097 ;;      Temps:          0       0       0       0       0       0       0       0       0
  2098 ;;      Totals:         0       0       0       0       0       0       0       0       0
  2099 ;;Total ram usage:        0 bytes
  2100 ;; Hardware stack levels used:    1
  2101 ;; Hardware stack levels required when called:    4
  2102 ;; This function calls:
  2103 ;;		_ComunicationInit
  2104 ;;		_RobotInit
  2105 ;;		_WeaponInit
  2106 ;;		_pinMode
  2107 ;; This function is called by:
  2108 ;;		_main
  2109 ;; This function uses a non-reentrant model
  2110 ;;
  2111                           psect	text1,class=CODE,space=0,reloc=2,group=0
  2112                           	file	"application.c"
  2113                           	line	22
  2114                           global __ptext1
  2115                           __ptext1:
  2116  0025D2                     psect	text1
  2117                           	file	"application.c"
  2118                           	line	22
  2119                           	global	__size_of_setup
  2120                           	__size_of_setup	equ	__end_of_setup-_setup
  2121  0000                     	
  2122                           _setup:
  2123  0025D2                     ;incstack = 0
  2124                           	opt	stack 26
  2125                           	line	24
  2126                           	
  2127                           l2986:
  2128  0025D2                     ;application.c: 24:     pinMode(4,0);
  2129                           	movlw	low(0)
  2130  0025D2  0E00               	movwf	((c:pinMode@mode)),c
  2131  0025D4  6E01               	movlw	(04h)&0ffh
  2132  0025D6  0E04               	
  2133                           	call	_pinMode
  2134  0025D8  EC69  F00C         	line	25
  2135                           ;application.c: 25:     RobotInit();
  2136                           	call	_RobotInit	;wreg free
  2137  0025DC  ECC3  F012         	line	26
  2138                           ;application.c: 26:     WeaponInit();
  2139                           	call	_WeaponInit	;wreg free
  2140  0025E0  EC08  F013         	line	27
  2141                           ;application.c: 27:     ComunicationInit();
  2142                           	call	_ComunicationInit	;wreg free
  2143  0025E4  ECD8  F012         	line	28
  2144                           	
  2145                           l2988:
  2146  0025E8                     ;application.c: 28:     estado = stoped;
  2147                           	movlw	high(04h)
  2148  0025E8  0E00               	movwf	((c:_estado+1)),c
  2149  0025EA  6E4D               	movlw	low(04h)
  2150  0025EC  0E04               	movwf	((c:_estado)),c
  2151  0025EE  6E4C               	line	29
  2152                           	
  2153                           l455:
  2154  0025F0                     	return	;funcret
  2155  0025F0  0012               	opt stack 0
  2156                           GLOBAL	__end_of_setup
  2157                           	__end_of_setup:
  2158  0025F2                     	signat	_setup,89
  2159                           	global	_WeaponInit
  2160                           
  2161 ;; *************** function _WeaponInit *****************
  2162 ;; Defined at:
  2163 ;;		line 319 in file "application.c"
  2164 ;; Parameters:    Size  Location     Type
  2165 ;;		None
  2166 ;; Auto vars:     Size  Location     Type
  2167 ;;		None
  2168 ;; Return value:  Size  Location     Type
  2169 ;;                  1    wreg      void 
  2170 ;; Registers used:
  2171 ;;		wreg, status,2, status,0, cstack
  2172 ;; Tracked objects:
  2173 ;;		On entry : 0/0
  2174 ;;		On exit  : 0/0
  2175 ;;		Unchanged: 0/0
  2176 ;; Data sizes:     COMRAM   BANK0   BANK1   BANK2   BANK3   BANK4   BANK5   BANK6   BANK7
  2177 ;;      Params:         0       0       0       0       0       0       0       0       0
  2178 ;;      Locals:         0       0       0       0       0       0       0       0       0
  2179 ;;      Temps:          0       0       0       0       0       0       0       0       0
  2180 ;;      Totals:         0       0       0       0       0       0       0       0       0
  2181 ;;Total ram usage:        0 bytes
  2182 ;; Hardware stack levels used:    1
  2183 ;; Hardware stack levels required when called:    2
  2184 ;; This function calls:
  2185 ;;		_digitalWrite
  2186 ;;		_pinMode
  2187 ;; This function is called by:
  2188 ;;		_setup
  2189 ;; This function uses a non-reentrant model
  2190 ;;
  2191                           psect	text2,class=CODE,space=0,reloc=2,group=0
  2192                           	line	319
  2193                           global __ptext2
  2194                           __ptext2:
  2195  002610                     psect	text2
  2196                           	file	"application.c"
  2197                           	line	319
  2198                           	global	__size_of_WeaponInit
  2199                           	__size_of_WeaponInit	equ	__end_of_WeaponInit-_WeaponInit
  2200  0000                     	
  2201                           _WeaponInit:
  2202  002610                     ;incstack = 0
  2203                           	opt	stack 27
  2204                           	line	321
  2205                           	
  2206                           l2964:
  2207  002610                     ;application.c: 321:  pinMode(11,0);
  2208                           	movlw	low(0)
  2209  002610  0E00               	movwf	((c:pinMode@mode)),c
  2210  002612  6E01               	movlw	(0Bh)&0ffh
  2211  002614  0E0B               	
  2212                           	call	_pinMode
  2213  002616  EC69  F00C         	line	322
  2214                           ;application.c: 322:  digitalWrite(11,0);
  2215                           	movlw	low(0)
  2216  00261A  0E00               	movwf	((c:digitalWrite@mode)),c
  2217  00261C  6E01               	movlw	(0Bh)&0ffh
  2218  00261E  0E0B               	
  2219                           	call	_digitalWrite
  2220  002620  EC79  F00D         	line	323
  2221                           	
  2222                           l549:
  2223  002624                     	return	;funcret
  2224  002624  0012               	opt stack 0
  2225                           GLOBAL	__end_of_WeaponInit
  2226                           	__end_of_WeaponInit:
  2227  002626                     	signat	_WeaponInit,89
  2228                           	global	_RobotInit
  2229                           
  2230 ;; *************** function _RobotInit *****************
  2231 ;; Defined at:
  2232 ;;		line 299 in file "application.c"
  2233 ;; Parameters:    Size  Location     Type
  2234 ;;		None
  2235 ;; Auto vars:     Size  Location     Type
  2236 ;;		None
  2237 ;; Return value:  Size  Location     Type
  2238 ;;                  1    wreg      void 
  2239 ;; Registers used:
  2240 ;;		wreg, status,2, status,0, cstack
  2241 ;; Tracked objects:
  2242 ;;		On entry : 0/0
  2243 ;;		On exit  : 0/0
  2244 ;;		Unchanged: 0/0
  2245 ;; Data sizes:     COMRAM   BANK0   BANK1   BANK2   BANK3   BANK4   BANK5   BANK6   BANK7
  2246 ;;      Params:         0       0       0       0       0       0       0       0       0
  2247 ;;      Locals:         0       0       0       0       0       0       0       0       0
  2248 ;;      Temps:          0       0       0       0       0       0       0       0       0
  2249 ;;      Totals:         0       0       0       0       0       0       0       0       0
  2250 ;;Total ram usage:        0 bytes
  2251 ;; Hardware stack levels used:    1
  2252 ;; Hardware stack levels required when called:    2
  2253 ;; This function calls:
  2254 ;;		_pinMode
  2255 ;; This function is called by:
  2256 ;;		_setup
  2257 ;; This function uses a non-reentrant model
  2258 ;;
  2259                           psect	text3,class=CODE,space=0,reloc=2,group=0
  2260                           	line	299
  2261                           global __ptext3
  2262                           __ptext3:
  2263  002586                     psect	text3
  2264                           	file	"application.c"
  2265                           	line	299
  2266                           	global	__size_of_RobotInit
  2267                           	__size_of_RobotInit	equ	__end_of_RobotInit-_RobotInit
  2268  0000                     	
  2269                           _RobotInit:
  2270  002586                     ;incstack = 0
  2271                           	opt	stack 27
  2272                           	line	301
  2273                           	
  2274                           l2962:
  2275  002586                     ;application.c: 301:  pinMode(6,0);
  2276                           	movlw	low(0)
  2277  002586  0E00               	movwf	((c:pinMode@mode)),c
  2278  002588  6E01               	movlw	(06h)&0ffh
  2279  00258A  0E06               	
  2280                           	call	_pinMode
  2281  00258C  EC69  F00C         	line	302
  2282                           ;application.c: 302:  pinMode(5,0);
  2283                           	movlw	low(0)
  2284  002590  0E00               	movwf	((c:pinMode@mode)),c
  2285  002592  6E01               	movlw	(05h)&0ffh
  2286  002594  0E05               	
  2287                           	call	_pinMode
  2288  002596  EC69  F00C         	line	303
  2289                           ;application.c: 303:  pinMode(8,0);
  2290                           	movlw	low(0)
  2291  00259A  0E00               	movwf	((c:pinMode@mode)),c
  2292  00259C  6E01               	movlw	(08h)&0ffh
  2293  00259E  0E08               	
  2294                           	call	_pinMode
  2295  0025A0  EC69  F00C         	line	304
  2296                           ;application.c: 304:  pinMode(7,0);
  2297                           	movlw	low(0)
  2298  0025A4  0E00               	movwf	((c:pinMode@mode)),c
  2299  0025A6  6E01               	movlw	(07h)&0ffh
  2300  0025A8  0E07               	
  2301                           	call	_pinMode
  2302  0025AA  EC69  F00C         	line	305
  2303                           	
  2304                           l543:
  2305  0025AE                     	return	;funcret
  2306  0025AE  0012               	opt stack 0
  2307                           GLOBAL	__end_of_RobotInit
  2308                           	__end_of_RobotInit:
  2309  0025B0                     	signat	_RobotInit,89
  2310                           	global	_pinMode
  2311                           
  2312 ;; *************** function _pinMode *****************
  2313 ;; Defined at:
  2314 ;;		line 59 in file "main.c"
  2315 ;; Parameters:    Size  Location     Type
  2316 ;;  pin             1    wreg     unsigned char 
  2317 ;;  mode            1    0[COMRAM] unsigned char 
  2318 ;; Auto vars:     Size  Location     Type
  2319 ;;  pin             1    3[COMRAM] unsigned char 
  2320 ;; Return value:  Size  Location     Type
  2321 ;;                  1    wreg      void 
  2322 ;; Registers used:
  2323 ;;		wreg, status,2, status,0
  2324 ;; Tracked objects:
  2325 ;;		On entry : 0/0
  2326 ;;		On exit  : 0/0
  2327 ;;		Unchanged: 0/0
  2328 ;; Data sizes:     COMRAM   BANK0   BANK1   BANK2   BANK3   BANK4   BANK5   BANK6   BANK7
  2329 ;;      Params:         1       0       0       0       0       0       0       0       0
  2330 ;;      Locals:         1       0       0       0       0       0       0       0       0
  2331 ;;      Temps:          2       0       0       0       0       0       0       0       0
  2332 ;;      Totals:         4       0       0       0       0       0       0       0       0
  2333 ;;Total ram usage:        4 bytes
  2334 ;; Hardware stack levels used:    1
  2335 ;; Hardware stack levels required when called:    1
  2336 ;; This function calls:
  2337 ;;		Nothing
  2338 ;; This function is called by:
  2339 ;;		_setup
  2340 ;;		_RobotInit
  2341 ;;		_WeaponInit
  2342 ;; This function uses a non-reentrant model
  2343 ;;
  2344                           psect	text4,class=CODE,space=0,reloc=2,group=0
  2345                           	file	"main.c"
  2346                           	line	59
  2347                           global __ptext4
  2348                           __ptext4:
  2349  0018D2                     psect	text4
  2350                           	file	"main.c"
  2351                           	line	59
  2352                           	global	__size_of_pinMode
  2353                           	__size_of_pinMode	equ	__end_of_pinMode-_pinMode
  2354  0000                     	
  2355                           _pinMode:
  2356  0018D2                     ;incstack = 0
  2357                           	opt	stack 28
  2358                           ;pinMode@pin stored from wreg
  2359                           	movwf	((c:pinMode@pin)),c
  2360  0018D2  6E04               	line	61
  2361                           	
  2362                           l2872:
  2363  0018D4                     ;main.c: 59: void pinMode(char pin, char mode);main.c: 60: {;main.c: 61:     switch(pin)
                                 
  2364                           	goto	l2876
  2365  0018D4  EF0F  F00D         	line	63
  2366                           ;main.c: 62:     {;main.c: 63:         case 0:
  2367                           	
  2368                           l175:
  2369  0018D8                     	line	64
  2370                           ;main.c: 64:             TRISAbits.RA4 = mode;
  2371                           	btfsc	(c:pinMode@mode),c,0
  2372  0018D8  B001               	bra	u3205
  2373  0018DA  D002               	bcf	((c:3986)),c,4	;volatile
  2374  0018DC  9892               	bra	u3206
  2375  0018DE  D001               	u3205:
  2376  0018E0                     	bsf	((c:3986)),c,4	;volatile
  2377  0018E0  8892               	u3206:
  2378  0018E2                     
  2379                           	line	65
  2380                           ;main.c: 65:             break;
  2381                           	goto	l199
  2382  0018E2  EF78  F00D         	line	66
  2383                           ;main.c: 66:         case 1:
  2384                           	
  2385                           l177:
  2386  0018E6                     	line	67
  2387                           ;main.c: 67:             TRISAbits.RA5 = mode;
  2388                           	btfsc	(c:pinMode@mode),c,0
  2389  0018E6  B001               	bra	u3215
  2390  0018E8  D002               	bcf	((c:3986)),c,5	;volatile
  2391  0018EA  9A92               	bra	u3216
  2392  0018EC  D001               	u3215:
  2393  0018EE                     	bsf	((c:3986)),c,5	;volatile
  2394  0018EE  8A92               	u3216:
  2395  0018F0                     
  2396                           	line	68
  2397                           ;main.c: 68:             break;
  2398                           	goto	l199
  2399  0018F0  EF78  F00D         	line	69
  2400                           ;main.c: 69:         case 2:
  2401                           	
  2402                           l178:
  2403  0018F4                     	line	70
  2404                           ;main.c: 70:             TRISCbits.RC0 = mode;
  2405                           	btfsc	(c:pinMode@mode),c,0
  2406  0018F4  B001               	bra	u3225
  2407  0018F6  D002               	bcf	((c:3988)),c,0	;volatile
  2408  0018F8  9094               	bra	u3226
  2409  0018FA  D001               	u3225:
  2410  0018FC                     	bsf	((c:3988)),c,0	;volatile
  2411  0018FC  8094               	u3226:
  2412  0018FE                     
  2413                           	line	71
  2414                           ;main.c: 71:             break;
  2415                           	goto	l199
  2416  0018FE  EF78  F00D         	line	72
  2417                           ;main.c: 72:         case 3:
  2418                           	
  2419                           l179:
  2420  001902                     	line	73
  2421                           ;main.c: 73:             TRISCbits.RC1 = mode;
  2422                           	btfsc	(c:pinMode@mode),c,0
  2423  001902  B001               	bra	u3235
  2424  001904  D002               	bcf	((c:3988)),c,1	;volatile
  2425  001906  9294               	bra	u3236
  2426  001908  D001               	u3235:
  2427  00190A                     	bsf	((c:3988)),c,1	;volatile
  2428  00190A  8294               	u3236:
  2429  00190C                     
  2430                           	line	74
  2431                           ;main.c: 74:             break;
  2432                           	goto	l199
  2433  00190C  EF78  F00D         	line	75
  2434                           ;main.c: 75:         case 4:
  2435                           	
  2436                           l180:
  2437  001910                     	line	76
  2438                           ;main.c: 76:             TRISCbits.RC2 = mode;
  2439                           	btfsc	(c:pinMode@mode),c,0
  2440  001910  B001               	bra	u3245
  2441  001912  D002               	bcf	((c:3988)),c,2	;volatile
  2442  001914  9494               	bra	u3246
  2443  001916  D001               	u3245:
  2444  001918                     	bsf	((c:3988)),c,2	;volatile
  2445  001918  8494               	u3246:
  2446  00191A                     
  2447                           	line	77
  2448                           ;main.c: 77:             break;
  2449                           	goto	l199
  2450  00191A  EF78  F00D         	line	78
  2451                           ;main.c: 78:         case 5:
  2452                           	
  2453                           l181:
  2454  00191E                     	line	79
  2455                           ;main.c: 79:             TRISDbits.RD0 = mode;
  2456                           	btfsc	(c:pinMode@mode),c,0
  2457  00191E  B001               	bra	u3255
  2458  001920  D002               	bcf	((c:3989)),c,0	;volatile
  2459  001922  9095               	bra	u3256
  2460  001924  D001               	u3255:
  2461  001926                     	bsf	((c:3989)),c,0	;volatile
  2462  001926  8095               	u3256:
  2463  001928                     
  2464                           	line	80
  2465                           ;main.c: 80:             break;
  2466                           	goto	l199
  2467  001928  EF78  F00D         	line	81
  2468                           ;main.c: 81:         case 6:
  2469                           	
  2470                           l182:
  2471  00192C                     	line	82
  2472                           ;main.c: 82:             TRISDbits.RD1 = mode;
  2473                           	btfsc	(c:pinMode@mode),c,0
  2474  00192C  B001               	bra	u3265
  2475  00192E  D002               	bcf	((c:3989)),c,1	;volatile
  2476  001930  9295               	bra	u3266
  2477  001932  D001               	u3265:
  2478  001934                     	bsf	((c:3989)),c,1	;volatile
  2479  001934  8295               	u3266:
  2480  001936                     
  2481                           	line	83
  2482                           ;main.c: 83:             break;
  2483                           	goto	l199
  2484  001936  EF78  F00D         	line	84
  2485                           ;main.c: 84:         case 7:
  2486                           	
  2487                           l183:
  2488  00193A                     	line	85
  2489                           ;main.c: 85:             TRISDbits.RD2 = mode;
  2490                           	btfsc	(c:pinMode@mode),c,0
  2491  00193A  B001               	bra	u3275
  2492  00193C  D002               	bcf	((c:3989)),c,2	;volatile
  2493  00193E  9495               	bra	u3276
  2494  001940  D001               	u3275:
  2495  001942                     	bsf	((c:3989)),c,2	;volatile
  2496  001942  8495               	u3276:
  2497  001944                     
  2498                           	line	86
  2499                           ;main.c: 86:             break;
  2500                           	goto	l199
  2501  001944  EF78  F00D         	line	87
  2502                           ;main.c: 87:         case 8:
  2503                           	
  2504                           l184:
  2505  001948                     	line	88
  2506                           ;main.c: 88:             TRISDbits.RD3 = mode;
  2507                           	btfsc	(c:pinMode@mode),c,0
  2508  001948  B001               	bra	u3285
  2509  00194A  D002               	bcf	((c:3989)),c,3	;volatile
  2510  00194C  9695               	bra	u3286
  2511  00194E  D001               	u3285:
  2512  001950                     	bsf	((c:3989)),c,3	;volatile
  2513  001950  8695               	u3286:
  2514  001952                     
  2515                           	line	89
  2516                           ;main.c: 89:             break;
  2517                           	goto	l199
  2518  001952  EF78  F00D         	line	90
  2519                           ;main.c: 90:         case 9:
  2520                           	
  2521                           l185:
  2522  001956                     	line	91
  2523                           ;main.c: 91:             TRISCbits.RC6 = mode;
  2524                           	btfsc	(c:pinMode@mode),c,0
  2525  001956  B001               	bra	u3295
  2526  001958  D002               	bcf	((c:3988)),c,6	;volatile
  2527  00195A  9C94               	bra	u3296
  2528  00195C  D001               	u3295:
  2529  00195E                     	bsf	((c:3988)),c,6	;volatile
  2530  00195E  8C94               	u3296:
  2531  001960                     
  2532                           	line	92
  2533                           ;main.c: 92:             break;
  2534                           	goto	l199
  2535  001960  EF78  F00D         	line	93
  2536                           ;main.c: 93:         case 10:
  2537                           	
  2538                           l186:
  2539  001964                     	line	94
  2540                           ;main.c: 94:             TRISCbits.RC7 = mode;
  2541                           	btfsc	(c:pinMode@mode),c,0
  2542  001964  B001               	bra	u3305
  2543  001966  D002               	bcf	((c:3988)),c,7	;volatile
  2544  001968  9E94               	bra	u3306
  2545  00196A  D001               	u3305:
  2546  00196C                     	bsf	((c:3988)),c,7	;volatile
  2547  00196C  8E94               	u3306:
  2548  00196E                     
  2549                           	line	95
  2550                           ;main.c: 95:             break;
  2551                           	goto	l199
  2552  00196E  EF78  F00D         	line	96
  2553                           ;main.c: 96:         case 11:
  2554                           	
  2555                           l187:
  2556  001972                     	line	97
  2557                           ;main.c: 97:             TRISDbits.RD4 = mode;
  2558                           	btfsc	(c:pinMode@mode),c,0
  2559  001972  B001               	bra	u3315
  2560  001974  D002               	bcf	((c:3989)),c,4	;volatile
  2561  001976  9895               	bra	u3316
  2562  001978  D001               	u3315:
  2563  00197A                     	bsf	((c:3989)),c,4	;volatile
  2564  00197A  8895               	u3316:
  2565  00197C                     
  2566                           	line	98
  2567                           ;main.c: 98:             break;
  2568                           	goto	l199
  2569  00197C  EF78  F00D         	line	99
  2570                           ;main.c: 99:         case 12:
  2571                           	
  2572                           l188:
  2573  001980                     	line	100
  2574                           ;main.c: 100:             TRISDbits.RD5 = mode;
  2575                           	btfsc	(c:pinMode@mode),c,0
  2576  001980  B001               	bra	u3325
  2577  001982  D002               	bcf	((c:3989)),c,5	;volatile
  2578  001984  9A95               	bra	u3326
  2579  001986  D001               	u3325:
  2580  001988                     	bsf	((c:3989)),c,5	;volatile
  2581  001988  8A95               	u3326:
  2582  00198A                     
  2583                           	line	101
  2584                           ;main.c: 101:             break;
  2585                           	goto	l199
  2586  00198A  EF78  F00D         	line	102
  2587                           ;main.c: 102:         case 13:
  2588                           	
  2589                           l189:
  2590  00198E                     	line	103
  2591                           ;main.c: 103:             TRISDbits.RD6 = mode;
  2592                           	btfsc	(c:pinMode@mode),c,0
  2593  00198E  B001               	bra	u3335
  2594  001990  D002               	bcf	((c:3989)),c,6	;volatile
  2595  001992  9C95               	bra	u3336
  2596  001994  D001               	u3335:
  2597  001996                     	bsf	((c:3989)),c,6	;volatile
  2598  001996  8C95               	u3336:
  2599  001998                     
  2600                           	line	104
  2601                           ;main.c: 104:             break;
  2602                           	goto	l199
  2603  001998  EF78  F00D         	line	105
  2604                           ;main.c: 105:         case 14:
  2605                           	
  2606                           l190:
  2607  00199C                     	line	106
  2608                           ;main.c: 106:             TRISDbits.RD7 = mode;
  2609                           	btfsc	(c:pinMode@mode),c,0
  2610  00199C  B001               	bra	u3345
  2611  00199E  D002               	bcf	((c:3989)),c,7	;volatile
  2612  0019A0  9E95               	bra	u3346
  2613  0019A2  D001               	u3345:
  2614  0019A4                     	bsf	((c:3989)),c,7	;volatile
  2615  0019A4  8E95               	u3346:
  2616  0019A6                     
  2617                           	line	107
  2618                           ;main.c: 107:             break;
  2619                           	goto	l199
  2620  0019A6  EF78  F00D         	line	108
  2621                           ;main.c: 108:         case 15:
  2622                           	
  2623                           l191:
  2624  0019AA                     	line	109
  2625                           ;main.c: 109:             TRISBbits.RB0 = mode;
  2626                           	btfsc	(c:pinMode@mode),c,0
  2627  0019AA  B001               	bra	u3355
  2628  0019AC  D002               	bcf	((c:3987)),c,0	;volatile
  2629  0019AE  9093               	bra	u3356
  2630  0019B0  D001               	u3355:
  2631  0019B2                     	bsf	((c:3987)),c,0	;volatile
  2632  0019B2  8093               	u3356:
  2633  0019B4                     
  2634                           	line	110
  2635                           ;main.c: 110:             break;
  2636                           	goto	l199
  2637  0019B4  EF78  F00D         	line	111
  2638                           ;main.c: 111:         case 16:
  2639                           	
  2640                           l192:
  2641  0019B8                     	line	112
  2642                           ;main.c: 112:             TRISBbits.RB1 = mode;
  2643                           	btfsc	(c:pinMode@mode),c,0
  2644  0019B8  B001               	bra	u3365
  2645  0019BA  D002               	bcf	((c:3987)),c,1	;volatile
  2646  0019BC  9293               	bra	u3366
  2647  0019BE  D001               	u3365:
  2648  0019C0                     	bsf	((c:3987)),c,1	;volatile
  2649  0019C0  8293               	u3366:
  2650  0019C2                     
  2651                           	line	113
  2652                           ;main.c: 113:             break;
  2653                           	goto	l199
  2654  0019C2  EF78  F00D         	line	114
  2655                           ;main.c: 114:         case 17:
  2656                           	
  2657                           l193:
  2658  0019C6                     	line	115
  2659                           ;main.c: 115:             TRISBbits.RB2 = mode;
  2660                           	btfsc	(c:pinMode@mode),c,0
  2661  0019C6  B001               	bra	u3375
  2662  0019C8  D002               	bcf	((c:3987)),c,2	;volatile
  2663  0019CA  9493               	bra	u3376
  2664  0019CC  D001               	u3375:
  2665  0019CE                     	bsf	((c:3987)),c,2	;volatile
  2666  0019CE  8493               	u3376:
  2667  0019D0                     
  2668                           	line	116
  2669                           ;main.c: 116:             break;
  2670                           	goto	l199
  2671  0019D0  EF78  F00D         	line	117
  2672                           ;main.c: 117:         case 18:
  2673                           	
  2674                           l194:
  2675  0019D4                     	line	118
  2676                           ;main.c: 118:             TRISBbits.RB3 = mode;
  2677                           	btfsc	(c:pinMode@mode),c,0
  2678  0019D4  B001               	bra	u3385
  2679  0019D6  D002               	bcf	((c:3987)),c,3	;volatile
  2680  0019D8  9693               	bra	u3386
  2681  0019DA  D001               	u3385:
  2682  0019DC                     	bsf	((c:3987)),c,3	;volatile
  2683  0019DC  8693               	u3386:
  2684  0019DE                     
  2685                           	line	119
  2686                           ;main.c: 119:             break;
  2687                           	goto	l199
  2688  0019DE  EF78  F00D         	line	120
  2689                           ;main.c: 120:         case 19:
  2690                           	
  2691                           l195:
  2692  0019E2                     	line	121
  2693                           ;main.c: 121:             TRISBbits.RB4 = mode;
  2694                           	btfsc	(c:pinMode@mode),c,0
  2695  0019E2  B001               	bra	u3395
  2696  0019E4  D002               	bcf	((c:3987)),c,4	;volatile
  2697  0019E6  9893               	bra	u3396
  2698  0019E8  D001               	u3395:
  2699  0019EA                     	bsf	((c:3987)),c,4	;volatile
  2700  0019EA  8893               	u3396:
  2701  0019EC                     
  2702                           	line	122
  2703                           ;main.c: 122:             break;
  2704                           	goto	l199
  2705  0019EC  EF78  F00D         	line	123
  2706                           ;main.c: 123:         case 20:
  2707                           	
  2708                           l196:
  2709  0019F0                     	line	124
  2710                           ;main.c: 124:             TRISBbits.RB5 = mode;
  2711                           	btfsc	(c:pinMode@mode),c,0
  2712  0019F0  B001               	bra	u3405
  2713  0019F2  D002               	bcf	((c:3987)),c,5	;volatile
  2714  0019F4  9A93               	bra	u3406
  2715  0019F6  D001               	u3405:
  2716  0019F8                     	bsf	((c:3987)),c,5	;volatile
  2717  0019F8  8A93               	u3406:
  2718  0019FA                     
  2719                           	line	125
  2720                           ;main.c: 125:             break;
  2721                           	goto	l199
  2722  0019FA  EF78  F00D         	line	126
  2723                           ;main.c: 126:         case 21:
  2724                           	
  2725                           l197:
  2726  0019FE                     	line	127
  2727                           ;main.c: 127:             TRISBbits.RB6 = mode;
  2728                           	btfsc	(c:pinMode@mode),c,0
  2729  0019FE  B001               	bra	u3415
  2730  001A00  D002               	bcf	((c:3987)),c,6	;volatile
  2731  001A02  9C93               	bra	u3416
  2732  001A04  D001               	u3415:
  2733  001A06                     	bsf	((c:3987)),c,6	;volatile
  2734  001A06  8C93               	u3416:
  2735  001A08                     
  2736                           	line	128
  2737                           ;main.c: 128:             break;
  2738                           	goto	l199
  2739  001A08  EF78  F00D         	line	129
  2740                           ;main.c: 129:         case 22:
  2741                           	
  2742                           l198:
  2743  001A0C                     	line	130
  2744                           ;main.c: 130:             TRISBbits.RB7 = mode;
  2745                           	btfsc	(c:pinMode@mode),c,0
  2746  001A0C  B001               	bra	u3425
  2747  001A0E  D002               	bcf	((c:3987)),c,7	;volatile
  2748  001A10  9E93               	bra	u3426
  2749  001A12  D001               	u3425:
  2750  001A14                     	bsf	((c:3987)),c,7	;volatile
  2751  001A14  8E93               	u3426:
  2752  001A16                     
  2753                           	line	131
  2754                           ;main.c: 131:             break;
  2755                           	goto	l199
  2756  001A16  EF78  F00D         	line	132
  2757                           	
  2758                           l2874:
  2759  001A1A                     ;main.c: 132:     }
  2760                           	goto	l199
  2761  001A1A  EF78  F00D         	
  2762                           l174:
  2763  001A1E                     	
  2764                           l2876:
  2765  001A1E                     	movf	((c:pinMode@pin)),c,w
  2766  001A1E  5004               	movwf	(??_pinMode+0+0)&0ffh,c
  2767  001A20  6E02               	clrf	(??_pinMode+0+0+1)&0ffh,c
  2768  001A22  6A03               
  2769                           	; Switch on 2 bytes has been partitioned into a top level switch of size 1, and 1 sub-s
                                 witches
  2770                           ; Switch size 1, requested type "space"
  2771                           ; Number of cases is 1, Range of values is 0 to 0
  2772                           ; switch strategies available:
  2773                           ; Name         Instructions Cycles
  2774                           ; simple_byte            4     3 (average)
  2775                           ;	Chosen strategy is simple_byte
  2776                           
  2777                           	movf ??_pinMode+0+1,c,w
  2778  001A24  5003               	xorlw	0^0	; case 0
  2779  001A26  0A00               	skipnz
  2780  001A28  B4D8               	goto	l3250
  2781  001A2A  EF19  F00D         	goto	l199
  2782  001A2E  EF78  F00D         	
  2783                           l3250:
  2784  001A32                     ; Switch size 1, requested type "space"
  2785                           ; Number of cases is 23, Range of values is 0 to 22
  2786                           ; switch strategies available:
  2787                           ; Name         Instructions Cycles
  2788                           ; simple_byte           70    36 (average)
  2789                           ;	Chosen strategy is simple_byte
  2790                           
  2791                           	movf ??_pinMode+0+0,c,w
  2792  001A32  5002               	xorlw	0^0	; case 0
  2793  001A34  0A00               	skipnz
  2794  001A36  B4D8               	goto	l175
  2795  001A38  EF6C  F00C         	xorlw	1^0	; case 1
  2796  001A3C  0A01               	skipnz
  2797  001A3E  B4D8               	goto	l177
  2798  001A40  EF73  F00C         	xorlw	2^1	; case 2
  2799  001A44  0A03               	skipnz
  2800  001A46  B4D8               	goto	l178
  2801  001A48  EF7A  F00C         	xorlw	3^2	; case 3
  2802  001A4C  0A01               	skipnz
  2803  001A4E  B4D8               	goto	l179
  2804  001A50  EF81  F00C         	xorlw	4^3	; case 4
  2805  001A54  0A07               	skipnz
  2806  001A56  B4D8               	goto	l180
  2807  001A58  EF88  F00C         	xorlw	5^4	; case 5
  2808  001A5C  0A01               	skipnz
  2809  001A5E  B4D8               	goto	l181
  2810  001A60  EF8F  F00C         	xorlw	6^5	; case 6
  2811  001A64  0A03               	skipnz
  2812  001A66  B4D8               	goto	l182
  2813  001A68  EF96  F00C         	xorlw	7^6	; case 7
  2814  001A6C  0A01               	skipnz
  2815  001A6E  B4D8               	goto	l183
  2816  001A70  EF9D  F00C         	xorlw	8^7	; case 8
  2817  001A74  0A0F               	skipnz
  2818  001A76  B4D8               	goto	l184
  2819  001A78  EFA4  F00C         	xorlw	9^8	; case 9
  2820  001A7C  0A01               	skipnz
  2821  001A7E  B4D8               	goto	l185
  2822  001A80  EFAB  F00C         	xorlw	10^9	; case 10
  2823  001A84  0A03               	skipnz
  2824  001A86  B4D8               	goto	l186
  2825  001A88  EFB2  F00C         	xorlw	11^10	; case 11
  2826  001A8C  0A01               	skipnz
  2827  001A8E  B4D8               	goto	l187
  2828  001A90  EFB9  F00C         	xorlw	12^11	; case 12
  2829  001A94  0A07               	skipnz
  2830  001A96  B4D8               	goto	l188
  2831  001A98  EFC0  F00C         	xorlw	13^12	; case 13
  2832  001A9C  0A01               	skipnz
  2833  001A9E  B4D8               	goto	l189
  2834  001AA0  EFC7  F00C         	xorlw	14^13	; case 14
  2835  001AA4  0A03               	skipnz
  2836  001AA6  B4D8               	goto	l190
  2837  001AA8  EFCE  F00C         	xorlw	15^14	; case 15
  2838  001AAC  0A01               	skipnz
  2839  001AAE  B4D8               	goto	l191
  2840  001AB0  EFD5  F00C         	xorlw	16^15	; case 16
  2841  001AB4  0A1F               	skipnz
  2842  001AB6  B4D8               	goto	l192
  2843  001AB8  EFDC  F00C         	xorlw	17^16	; case 17
  2844  001ABC  0A01               	skipnz
  2845  001ABE  B4D8               	goto	l193
  2846  001AC0  EFE3  F00C         	xorlw	18^17	; case 18
  2847  001AC4  0A03               	skipnz
  2848  001AC6  B4D8               	goto	l194
  2849  001AC8  EFEA  F00C         	xorlw	19^18	; case 19
  2850  001ACC  0A01               	skipnz
  2851  001ACE  B4D8               	goto	l195
  2852  001AD0  EFF1  F00C         	xorlw	20^19	; case 20
  2853  001AD4  0A07               	skipnz
  2854  001AD6  B4D8               	goto	l196
  2855  001AD8  EFF8  F00C         	xorlw	21^20	; case 21
  2856  001ADC  0A01               	skipnz
  2857  001ADE  B4D8               	goto	l197
  2858  001AE0  EFFF  F00C         	xorlw	22^21	; case 22
  2859  001AE4  0A03               	skipnz
  2860  001AE6  B4D8               	goto	l198
  2861  001AE8  EF06  F00D         	goto	l199
  2862  001AEC  EF78  F00D         
  2863                           	
  2864                           l176:
  2865  001AF0                     	line	133
  2866                           	
  2867                           l199:
  2868  001AF0                     	return	;funcret
  2869  001AF0  0012               	opt stack 0
  2870                           GLOBAL	__end_of_pinMode
  2871                           	__end_of_pinMode:
  2872  001AF2                     	signat	_pinMode,8313
  2873                           	global	_ComunicationInit
  2874                           
  2875 ;; *************** function _ComunicationInit *****************
  2876 ;; Defined at:
  2877 ;;		line 346 in file "application.c"
  2878 ;; Parameters:    Size  Location     Type
  2879 ;;		None
  2880 ;; Auto vars:     Size  Location     Type
  2881 ;;		None
  2882 ;; Return value:  Size  Location     Type
  2883 ;;                  1    wreg      void 
  2884 ;; Registers used:
  2885 ;;		wreg, status,2, status,0, cstack
  2886 ;; Tracked objects:
  2887 ;;		On entry : 0/0
  2888 ;;		On exit  : 0/0
  2889 ;;		Unchanged: 0/0
  2890 ;; Data sizes:     COMRAM   BANK0   BANK1   BANK2   BANK3   BANK4   BANK5   BANK6   BANK7
  2891 ;;      Params:         0       0       0       0       0       0       0       0       0
  2892 ;;      Locals:         0       0       0       0       0       0       0       0       0
  2893 ;;      Temps:          0       0       0       0       0       0       0       0       0
  2894 ;;      Totals:         0       0       0       0       0       0       0       0       0
  2895 ;;Total ram usage:        0 bytes
  2896 ;; Hardware stack levels used:    1
  2897 ;; Hardware stack levels required when called:    3
  2898 ;; This function calls:
  2899 ;;		_USART_Init
  2900 ;;		_delay
  2901 ;; This function is called by:
  2902 ;;		_setup
  2903 ;; This function uses a non-reentrant model
  2904 ;;
  2905                           psect	text5,class=CODE,space=0,reloc=2,group=0
  2906                           	file	"application.c"
  2907                           	line	346
  2908                           global __ptext5
  2909                           __ptext5:
  2910  0025B0                     psect	text5
  2911                           	file	"application.c"
  2912                           	line	346
  2913                           	global	__size_of_ComunicationInit
  2914                           	__size_of_ComunicationInit	equ	__end_of_ComunicationInit-_ComunicationInit
  2915  0000                     	
  2916                           _ComunicationInit:
  2917  0025B0                     ;incstack = 0
  2918                           	opt	stack 26
  2919                           	line	348
  2920                           	
  2921                           l2966:
  2922  0025B0                     ;application.c: 348:  USART_Init(38400);
  2923                           	movlw	low(09600h)
  2924  0025B0  0E00               	movwf	((c:USART_Init@baud_rate)),c
  2925  0025B2  6E3C               	movlw	high(09600h)
  2926  0025B4  0E96               	movwf	((c:USART_Init@baud_rate+1)),c
  2927  0025B6  6E3D               	movlw	low highword(09600h)
  2928  0025B8  0E00               	movwf	((c:USART_Init@baud_rate+2)),c
  2929  0025BA  6E3E               	movlw	high highword(09600h)
  2930  0025BC  0E00               	movwf	((c:USART_Init@baud_rate+3)),c
  2931  0025BE  6E3F               	call	_USART_Init	;wreg free
  2932  0025C0  ECEB  F010         	line	349
  2933                           ;application.c: 349:  delay(100);
  2934                           	movlw	high(064h)
  2935  0025C4  0E00               	movwf	((c:delay@milis+1)),c
  2936  0025C6  6E02               	movlw	low(064h)
  2937  0025C8  0E64               	movwf	((c:delay@milis)),c
  2938  0025CA  6E01               	call	_delay	;wreg free
  2939  0025CC  EC97  F010         	line	350
  2940                           	
  2941                           l562:
  2942  0025D0                     	return	;funcret
  2943  0025D0  0012               	opt stack 0
  2944                           GLOBAL	__end_of_ComunicationInit
  2945                           	__end_of_ComunicationInit:
  2946  0025D2                     	signat	_ComunicationInit,89
  2947                           	global	_USART_Init
  2948                           
  2949 ;; *************** function _USART_Init *****************
  2950 ;; Defined at:
  2951 ;;		line 4 in file "USART.c"
  2952 ;; Parameters:    Size  Location     Type
  2953 ;;  baud_rate       4   59[COMRAM] long 
  2954 ;; Auto vars:     Size  Location     Type
  2955 ;;  temp            4   63[COMRAM] float 
  2956 ;; Return value:  Size  Location     Type
  2957 ;;                  1    wreg      void 
  2958 ;; Registers used:
  2959 ;;		wreg, status,2, status,0, cstack
  2960 ;; Tracked objects:
  2961 ;;		On entry : 0/0
  2962 ;;		On exit  : 0/0
  2963 ;;		Unchanged: 0/0
  2964 ;; Data sizes:     COMRAM   BANK0   BANK1   BANK2   BANK3   BANK4   BANK5   BANK6   BANK7
  2965 ;;      Params:         4       0       0       0       0       0       0       0       0
  2966 ;;      Locals:         4       0       0       0       0       0       0       0       0
  2967 ;;      Temps:          0       0       0       0       0       0       0       0       0
  2968 ;;      Totals:         8       0       0       0       0       0       0       0       0
  2969 ;;Total ram usage:        8 bytes
  2970 ;; Hardware stack levels used:    1
  2971 ;; Hardware stack levels required when called:    2
  2972 ;; This function calls:
  2973 ;;		___fladd
  2974 ;;		___fldiv
  2975 ;;		___fltol
  2976 ;;		___xxtofl
  2977 ;; This function is called by:
  2978 ;;		_ComunicationInit
  2979 ;; This function uses a non-reentrant model
  2980 ;;
  2981                           psect	text6,class=CODE,space=0,reloc=2,group=0
  2982                           	file	"USART.c"
  2983                           	line	4
  2984                           global __ptext6
  2985                           __ptext6:
  2986  0021D6                     psect	text6
  2987                           	file	"USART.c"
  2988                           	line	4
  2989                           	global	__size_of_USART_Init
  2990                           	__size_of_USART_Init	equ	__end_of_USART_Init-_USART_Init
  2991  0000                     	
  2992                           _USART_Init:
  2993  0021D6                     ;incstack = 0
  2994                           	opt	stack 26
  2995                           	line	7
  2996                           	
  2997                           l2910:
  2998  0021D6                     ;USART.c: 4: void USART_Init(long baud_rate);USART.c: 5: {;USART.c: 6:     float temp;;U
                                 SART.c: 7:     TRISC6=0;
  2999                           	bcf	c:(31910/8),(31910)&7	;volatile
  3000  0021D6  9C94               	line	8
  3001                           ;USART.c: 8:     TRISC7=1;
  3002                           	bsf	c:(31911/8),(31911)&7	;volatile
  3003  0021D8  8E94               	line	9
  3004                           	
  3005                           l2912:
  3006  0021DA                     ;USART.c: 9:     temp=(((float)(24000000)/(float)baud_rate)-1);
  3007                           	movff	(c:USART_Init@baud_rate),(c:___xxtofl@val)
  3008  0021DA  C03C  F001         	movff	(c:USART_Init@baud_rate+1),(c:___xxtofl@val+1)
  3009  0021DE  C03D  F002         	movff	(c:USART_Init@baud_rate+2),(c:___xxtofl@val+2)
  3010  0021E2  C03E  F003         	movff	(c:USART_Init@baud_rate+3),(c:___xxtofl@val+3)
  3011  0021E6  C03F  F004         	movlw	(01h)&0ffh
  3012  0021EA  0E01               	
  3013                           	call	___xxtofl
  3014  0021EC  EC89  F00E         	movff	0+?___xxtofl,(c:___fldiv@a)
  3015  0021F0  C001  F013         	movff	1+?___xxtofl,(c:___fldiv@a+1)
  3016  0021F4  C002  F014         	movff	2+?___xxtofl,(c:___fldiv@a+2)
  3017  0021F8  C003  F015         	movff	3+?___xxtofl,(c:___fldiv@a+3)
  3018  0021FC  C004  F016         	
  3019                           	movlw	low(normalize32(0x4bb71b00))
  3020  002200  0E00               	movwf	((c:___fldiv@b)),c
  3021  002202  6E0F               	movlw	high(normalize32(0x4bb71b00))
  3022  002204  0E1B               	movwf	((c:___fldiv@b+1)),c
  3023  002206  6E10               	movlw	low highword(normalize32(0x4bb71b00))
  3024  002208  0EB7               	movwf	((c:___fldiv@b+2)),c
  3025  00220A  6E11               	movlw	high highword(normalize32(0x4bb71b00))
  3026  00220C  0E4B               	movwf	((c:___fldiv@b+3)),c
  3027  00220E  6E12               	call	___fldiv	;wreg free
  3028  002210  EC59  F00A         	movff	0+?___fldiv,(c:___fladd@b)
  3029  002214  C00F  F028         	movff	1+?___fldiv,(c:___fladd@b+1)
  3030  002218  C010  F029         	movff	2+?___fldiv,(c:___fladd@b+2)
  3031  00221C  C011  F02A         	movff	3+?___fldiv,(c:___fladd@b+3)
  3032  002220  C012  F02B         	
  3033                           	movlw	low(normalize32(0xbf800000))
  3034  002224  0E00               	movwf	((c:___fladd@a)),c
  3035  002226  6E2C               	movlw	high(normalize32(0xbf800000))
  3036  002228  0E00               	movwf	((c:___fladd@a+1)),c
  3037  00222A  6E2D               	movlw	low highword(normalize32(0xbf800000))
  3038  00222C  0E80               	movwf	((c:___fladd@a+2)),c
  3039  00222E  6E2E               	movlw	high highword(normalize32(0xbf800000))
  3040  002230  0EBF               	movwf	((c:___fladd@a+3)),c
  3041  002232  6E2F               	call	___fladd	;wreg free
  3042  002234  EC97  F007         	movff	0+?___fladd,(c:USART_Init@temp)
  3043  002238  C028  F040         	movff	1+?___fladd,(c:USART_Init@temp+1)
  3044  00223C  C029  F041         	movff	2+?___fladd,(c:USART_Init@temp+2)
  3045  002240  C02A  F042         	movff	3+?___fladd,(c:USART_Init@temp+3)
  3046  002244  C02B  F043         	
  3047                           	line	10
  3048                           ;USART.c: 10:     SPBRG=(int)temp;
  3049                           	movff	(c:USART_Init@temp),(c:___fltol@f1)
  3050  002248  C040  F001         	movff	(c:USART_Init@temp+1),(c:___fltol@f1+1)
  3051  00224C  C041  F002         	movff	(c:USART_Init@temp+2),(c:___fltol@f1+2)
  3052  002250  C042  F003         	movff	(c:USART_Init@temp+3),(c:___fltol@f1+3)
  3053  002254  C043  F004         	call	___fltol	;wreg free
  3054  002258  EC77  F00F         	movf	(0+?___fltol),c,w
  3055  00225C  5001               	movwf	((c:4015)),c	;volatile
  3056  00225E  6EAF               	line	11
  3057                           	
  3058                           l2914:
  3059  002260                     ;USART.c: 11:     TXSTA=0x20;
  3060                           	movlw	low(020h)
  3061  002260  0E20               	movwf	((c:4012)),c	;volatile
  3062  002262  6EAC               	line	12
  3063                           	
  3064                           l2916:
  3065  002264                     ;USART.c: 12:     RCSTA=0x90;
  3066                           	movlw	low(090h)
  3067  002264  0E90               	movwf	((c:4011)),c	;volatile
  3068  002266  6EAB               	line	13
  3069                           	
  3070                           l588:
  3071  002268                     	return	;funcret
  3072  002268  0012               	opt stack 0
  3073                           GLOBAL	__end_of_USART_Init
  3074                           	__end_of_USART_Init:
  3075  00226A                     	signat	_USART_Init,4217
  3076                           	global	___xxtofl
  3077                           
  3078 ;; *************** function ___xxtofl *****************
  3079 ;; Defined at:
  3080 ;;		line 10 in file "C:\Program Files (x86)\Microchip\xc8\v2.00\pic\sources\c99\common\xxtofl.c"
  3081 ;; Parameters:    Size  Location     Type
  3082 ;;  sign            1    wreg     unsigned char 
  3083 ;;  val             4    0[COMRAM] long 
  3084 ;; Auto vars:     Size  Location     Type
  3085 ;;  sign            1    8[COMRAM] unsigned char 
  3086 ;;  arg             4   10[COMRAM] unsigned long 
  3087 ;;  exp             1    9[COMRAM] unsigned char 
  3088 ;; Return value:  Size  Location     Type
  3089 ;;                  4    0[COMRAM] unsigned char 
  3090 ;; Registers used:
  3091 ;;		wreg, status,2, status,0
  3092 ;; Tracked objects:
  3093 ;;		On entry : 0/0
  3094 ;;		On exit  : 0/0
  3095 ;;		Unchanged: 0/0
  3096 ;; Data sizes:     COMRAM   BANK0   BANK1   BANK2   BANK3   BANK4   BANK5   BANK6   BANK7
  3097 ;;      Params:         4       0       0       0       0       0       0       0       0
  3098 ;;      Locals:         6       0       0       0       0       0       0       0       0
  3099 ;;      Temps:          4       0       0       0       0       0       0       0       0
  3100 ;;      Totals:        14       0       0       0       0       0       0       0       0
  3101 ;;Total ram usage:       14 bytes
  3102 ;; Hardware stack levels used:    1
  3103 ;; Hardware stack levels required when called:    1
  3104 ;; This function calls:
  3105 ;;		Nothing
  3106 ;; This function is called by:
  3107 ;;		_USART_Init
  3108 ;;		_Time
  3109 ;;		_Frequency
  3110 ;; This function uses a non-reentrant model
  3111 ;;
  3112                           psect	text7,class=CODE,space=0,reloc=2,group=1
  3113                           	file	"C:\Program Files (x86)\Microchip\xc8\v2.00\pic\sources\c99\common\xxtofl.c"
  3114                           	line	10
  3115                           global __ptext7
  3116                           __ptext7:
  3117  001D12                     psect	text7
  3118                           	file	"C:\Program Files (x86)\Microchip\xc8\v2.00\pic\sources\c99\common\xxtofl.c"
  3119                           	line	10
  3120                           	global	__size_of___xxtofl
  3121                           	__size_of___xxtofl	equ	__end_of___xxtofl-___xxtofl
  3122  0000                     	
  3123                           ___xxtofl:
  3124  001D12                     ;incstack = 0
  3125                           	opt	stack 26
  3126                           ;___xxtofl@sign stored from wreg
  3127                           	movwf	((c:___xxtofl@sign)),c
  3128  001D12  6E09               	line	15
  3129                           	
  3130                           l2806:
  3131  001D14                     	movf	((c:___xxtofl@sign)),c,w
  3132  001D14  5009               	btfsc	status,2
  3133  001D16  B4D8               	goto	u3061
  3134  001D18  EF90  F00E         	goto	u3060
  3135  001D1C  EF92  F00E         u3061:
  3136  001D20                     	goto	l1272
  3137  001D20  EFB4  F00E         u3060:
  3138  001D24                     	
  3139                           l2808:
  3140  001D24                     	btfsc	((c:___xxtofl@val+3)),c,7
  3141  001D24  BE04               	goto	u3070
  3142  001D26  EF99  F00E         	goto	u3071
  3143  001D2A  EF97  F00E         
  3144                           u3071:
  3145  001D2E                     	goto	l1272
  3146  001D2E  EFB4  F00E         u3070:
  3147  001D32                     	line	16
  3148                           	
  3149                           l2810:
  3150  001D32                     	movff	(c:___xxtofl@val),??___xxtofl+0+0
  3151  001D32  C001  F005         	movff	(c:___xxtofl@val+1),??___xxtofl+0+0+1
  3152  001D36  C002  F006         	movff	(c:___xxtofl@val+2),??___xxtofl+0+0+2
  3153  001D3A  C003  F007         	movff	(c:___xxtofl@val+3),??___xxtofl+0+0+3
  3154  001D3E  C004  F008         	comf	(??___xxtofl+0+0),c
  3155  001D42  1E05               	comf	(??___xxtofl+0+1),c
  3156  001D44  1E06               	comf	(??___xxtofl+0+2),c
  3157  001D46  1E07               	comf	(??___xxtofl+0+3),c
  3158  001D48  1E08               	incf	(??___xxtofl+0+0),c
  3159  001D4A  2A05               	movlw	0
  3160  001D4C  0E00               	addwfc	(??___xxtofl+0+1),c
  3161  001D4E  2206               	addwfc	(??___xxtofl+0+2),c
  3162  001D50  2207               	addwfc	(??___xxtofl+0+3),c
  3163  001D52  2208               	movff	??___xxtofl+0+0,(c:___xxtofl@arg)
  3164  001D54  C005  F00B         	movff	??___xxtofl+0+1,(c:___xxtofl@arg+1)
  3165  001D58  C006  F00C         	movff	??___xxtofl+0+2,(c:___xxtofl@arg+2)
  3166  001D5C  C007  F00D         	movff	??___xxtofl+0+3,(c:___xxtofl@arg+3)
  3167  001D60  C008  F00E         	line	17
  3168                           	goto	l2812
  3169  001D64  EFBE  F00E         	line	18
  3170                           	
  3171                           l1272:
  3172  001D68                     	line	19
  3173                           	movff	(c:___xxtofl@val),(c:___xxtofl@arg)
  3174  001D68  C001  F00B         	movff	(c:___xxtofl@val+1),(c:___xxtofl@arg+1)
  3175  001D6C  C002  F00C         	movff	(c:___xxtofl@val+2),(c:___xxtofl@arg+2)
  3176  001D70  C003  F00D         	movff	(c:___xxtofl@val+3),(c:___xxtofl@arg+3)
  3177  001D74  C004  F00E         	goto	l2812
  3178  001D78  EFBE  F00E         	line	20
  3179                           	
  3180                           l1273:
  3181  001D7C                     	line	21
  3182                           	
  3183                           l2812:
  3184  001D7C                     	movf	((c:___xxtofl@val)),c,w
  3185  001D7C  5001               iorwf	((c:___xxtofl@val+1)),c,w
  3186  001D7E  1002               iorwf	((c:___xxtofl@val+2)),c,w
  3187  001D80  1003               iorwf	((c:___xxtofl@val+3)),c,w
  3188  001D82  1004               	btfss	status,2
  3189  001D84  A4D8               	goto	u3081
  3190  001D86  EFC7  F00E         	goto	u3080
  3191  001D8A  EFC9  F00E         
  3192                           u3081:
  3193  001D8E                     	goto	l2818
  3194  001D8E  EFD5  F00E         u3080:
  3195  001D92                     	line	22
  3196                           	
  3197                           l2814:
  3198  001D92                     	movlw	low(normalize32(0x0))
  3199  001D92  0E00               	movwf	((c:?___xxtofl)),c
  3200  001D94  6E01               	movlw	high(normalize32(0x0))
  3201  001D96  0E00               	movwf	((c:?___xxtofl+1)),c
  3202  001D98  6E02               	movlw	low highword(normalize32(0x0))
  3203  001D9A  0E00               	movwf	((c:?___xxtofl+2)),c
  3204  001D9C  6E03               	movlw	high highword(normalize32(0x0))
  3205  001D9E  0E00               	movwf	((c:?___xxtofl+3)),c
  3206  001DA0  6E04               	goto	l1275
  3207  001DA2  EF76  F00F         	
  3208                           l2816:
  3209  001DA6                     	goto	l1275
  3210  001DA6  EF76  F00F         	
  3211                           l1274:
  3212  001DAA                     	line	23
  3213                           	
  3214                           l2818:
  3215  001DAA                     	movlw	low(096h)
  3216  001DAA  0E96               	movwf	((c:___xxtofl@exp)),c
  3217  001DAC  6E0A               	line	24
  3218                           	goto	l2822
  3219  001DAE  EFE1  F00E         	
  3220                           l1277:
  3221  001DB2                     	line	25
  3222                           	
  3223                           l2820:
  3224  001DB2                     	incf	((c:___xxtofl@exp)),c
  3225  001DB2  2A0A               	line	26
  3226                           	bcf	status,0
  3227  001DB4  90D8               	rrcf	((c:___xxtofl@arg+3)),c
  3228  001DB6  320E               	rrcf	((c:___xxtofl@arg+2)),c
  3229  001DB8  320D               	rrcf	((c:___xxtofl@arg+1)),c
  3230  001DBA  320C               	rrcf	((c:___xxtofl@arg)),c
  3231  001DBC  320B               	goto	l2822
  3232  001DBE  EFE1  F00E         	line	27
  3233                           	
  3234                           l1276:
  3235  001DC2                     	line	24
  3236                           	
  3237                           l2822:
  3238  001DC2                     	movlw	0
  3239  001DC2  0E00               	andwf	((c:___xxtofl@arg)),c,w
  3240  001DC4  140B               	movwf	(??___xxtofl+0+0)&0ffh,c
  3241  001DC6  6E05               	movlw	0
  3242  001DC8  0E00               	andwf	((c:___xxtofl@arg+1)),c,w
  3243  001DCA  140C               	movwf	1+(??___xxtofl+0+0)&0ffh,c
  3244  001DCC  6E06               	
  3245                           	movlw	0
  3246  001DCE  0E00               	andwf	((c:___xxtofl@arg+2)),c,w
  3247  001DD0  140D               	movwf	2+(??___xxtofl+0+0)&0ffh,c
  3248  001DD2  6E07               	
  3249                           	movlw	0FEh
  3250  001DD4  0EFE               	andwf	((c:___xxtofl@arg+3)),c,w
  3251  001DD6  140E               	movwf	3+(??___xxtofl+0+0)&0ffh,c
  3252  001DD8  6E08               	movf	(??___xxtofl+0+0),c,w
  3253  001DDA  5005               iorwf	(??___xxtofl+0+1),c,w
  3254  001DDC  1006               iorwf	(??___xxtofl+0+2),c,w
  3255  001DDE  1007               iorwf	(??___xxtofl+0+3),c,w
  3256  001DE0  1008               	btfss	status,2
  3257  001DE2  A4D8               	goto	u3091
  3258  001DE4  EFF6  F00E         	goto	u3090
  3259  001DE8  EFF8  F00E         
  3260                           u3091:
  3261  001DEC                     	goto	l2820
  3262  001DEC  EFD9  F00E         u3090:
  3263  001DF0                     	goto	l1279
  3264  001DF0  EF08  F00F         	
  3265                           l1278:
  3266  001DF4                     	line	28
  3267                           	goto	l1279
  3268  001DF4  EF08  F00F         	
  3269                           l1280:
  3270  001DF8                     	line	29
  3271                           	
  3272                           l2824:
  3273  001DF8                     	incf	((c:___xxtofl@exp)),c
  3274  001DF8  2A0A               	line	30
  3275                           	
  3276                           l2826:
  3277  001DFA                     	movlw	low(01h)
  3278  001DFA  0E01               	addwf	((c:___xxtofl@arg)),c
  3279  001DFC  260B               	movlw	0
  3280  001DFE  0E00               	addwfc	((c:___xxtofl@arg+1)),c
  3281  001E00  220C               	addwfc	((c:___xxtofl@arg+2)),c
  3282  001E02  220D               	addwfc	((c:___xxtofl@arg+3)),c
  3283  001E04  220E               	line	31
  3284                           	
  3285                           l2828:
  3286  001E06                     	bcf	status,0
  3287  001E06  90D8               	rrcf	((c:___xxtofl@arg+3)),c
  3288  001E08  320E               	rrcf	((c:___xxtofl@arg+2)),c
  3289  001E0A  320D               	rrcf	((c:___xxtofl@arg+1)),c
  3290  001E0C  320C               	rrcf	((c:___xxtofl@arg)),c
  3291  001E0E  320B               	line	32
  3292                           	
  3293                           l1279:
  3294  001E10                     	line	28
  3295                           	movlw	0
  3296  001E10  0E00               	andwf	((c:___xxtofl@arg)),c,w
  3297  001E12  140B               	movwf	(??___xxtofl+0+0)&0ffh,c
  3298  001E14  6E05               	movlw	0
  3299  001E16  0E00               	andwf	((c:___xxtofl@arg+1)),c,w
  3300  001E18  140C               	movwf	1+(??___xxtofl+0+0)&0ffh,c
  3301  001E1A  6E06               	
  3302                           	movlw	0
  3303  001E1C  0E00               	andwf	((c:___xxtofl@arg+2)),c,w
  3304  001E1E  140D               	movwf	2+(??___xxtofl+0+0)&0ffh,c
  3305  001E20  6E07               	
  3306                           	movlw	0FFh
  3307  001E22  0EFF               	andwf	((c:___xxtofl@arg+3)),c,w
  3308  001E24  140E               	movwf	3+(??___xxtofl+0+0)&0ffh,c
  3309  001E26  6E08               	movf	(??___xxtofl+0+0),c,w
  3310  001E28  5005               iorwf	(??___xxtofl+0+1),c,w
  3311  001E2A  1006               iorwf	(??___xxtofl+0+2),c,w
  3312  001E2C  1007               iorwf	(??___xxtofl+0+3),c,w
  3313  001E2E  1008               	btfss	status,2
  3314  001E30  A4D8               	goto	u3101
  3315  001E32  EF1D  F00F         	goto	u3100
  3316  001E36  EF1F  F00F         
  3317                           u3101:
  3318  001E3A                     	goto	l2824
  3319  001E3A  EFFC  F00E         u3100:
  3320  001E3E                     	goto	l2832
  3321  001E3E  EF2B  F00F         	
  3322                           l1281:
  3323  001E42                     	line	33
  3324                           	goto	l2832
  3325  001E42  EF2B  F00F         	
  3326                           l1283:
  3327  001E46                     	line	34
  3328                           	
  3329                           l2830:
  3330  001E46                     	decf	((c:___xxtofl@exp)),c
  3331  001E46  060A               	line	35
  3332                           	bcf	status,0
  3333  001E48  90D8               	rlcf	((c:___xxtofl@arg)),c
  3334  001E4A  360B               	rlcf	((c:___xxtofl@arg+1)),c
  3335  001E4C  360C               	rlcf	((c:___xxtofl@arg+2)),c
  3336  001E4E  360D               	rlcf	((c:___xxtofl@arg+3)),c
  3337  001E50  360E               	goto	l2832
  3338  001E52  EF2B  F00F         	line	36
  3339                           	
  3340                           l1282:
  3341  001E56                     	line	33
  3342                           	
  3343                           l2832:
  3344  001E56                     	
  3345                           	btfsc	((c:___xxtofl@arg+2)),c,(23)&7
  3346  001E56  BE0D               	goto	u3111
  3347  001E58  EF30  F00F         	goto	u3110
  3348  001E5C  EF32  F00F         u3111:
  3349  001E60                     	goto	l1286
  3350  001E60  EF3C  F00F         u3110:
  3351  001E64                     	
  3352                           l2834:
  3353  001E64                     		movlw	02h-0
  3354  001E64  0E02               	cpfslt	((c:___xxtofl@exp)),c
  3355  001E66  600A               	goto	u3121
  3356  001E68  EF38  F00F         	goto	u3120
  3357  001E6C  EF3A  F00F         
  3358                           u3121:
  3359  001E70                     	goto	l2830
  3360  001E70  EF23  F00F         u3120:
  3361  001E74                     	goto	l1286
  3362  001E74  EF3C  F00F         	
  3363                           l1285:
  3364  001E78                     	
  3365                           l1286:
  3366  001E78                     	line	37
  3367                           	
  3368                           	btfsc	((c:___xxtofl@exp)),c,(0)&7
  3369  001E78  B00A               	goto	u3131
  3370  001E7A  EF41  F00F         	goto	u3130
  3371  001E7E  EF43  F00F         u3131:
  3372  001E82                     	goto	l2838
  3373  001E82  EF46  F00F         u3130:
  3374  001E86                     	line	38
  3375                           	
  3376                           l2836:
  3377  001E86                     	bcf	(0+(23/8)+(c:___xxtofl@arg)),c,(23)&7
  3378  001E86  9E0D               	goto	l2838
  3379  001E88  EF46  F00F         	
  3380                           l1287:
  3381  001E8C                     	line	39
  3382                           	
  3383                           l2838:
  3384  001E8C                     	bcf status,0
  3385  001E8C  90D8               	rrcf	((c:___xxtofl@exp)),c
  3386  001E8E  320A               
  3387                           	line	40
  3388                           	
  3389                           l2840:
  3390  001E90                     	movff	(c:___xxtofl@exp),??___xxtofl+0+0
  3391  001E90  C00A  F005         	clrf	(??___xxtofl+0+0+1)&0ffh,c
  3392  001E94  6A06               	clrf	(??___xxtofl+0+0+2)&0ffh,c
  3393  001E96  6A07               	clrf	(??___xxtofl+0+0+3)&0ffh,c
  3394  001E98  6A08               	movff	??___xxtofl+0+0,??___xxtofl+0+3
  3395  001E9A  C005  F008         	clrf	(??___xxtofl+0+2),c
  3396  001E9E  6A07               	clrf	(??___xxtofl+0+1),c
  3397  001EA0  6A06               	clrf	(??___xxtofl+0+0),c
  3398  001EA2  6A05               	movf	(??___xxtofl+0+0),c,w
  3399  001EA4  5005               	iorwf	((c:___xxtofl@arg)),c
  3400  001EA6  120B               	movf	(??___xxtofl+0+1),c,w
  3401  001EA8  5006               	iorwf	((c:___xxtofl@arg+1)),c
  3402  001EAA  120C               	movf	(??___xxtofl+0+2),c,w
  3403  001EAC  5007               	iorwf	((c:___xxtofl@arg+2)),c
  3404  001EAE  120D               	movf	(??___xxtofl+0+3),c,w
  3405  001EB0  5008               	iorwf	((c:___xxtofl@arg+3)),c
  3406  001EB2  120E               
  3407                           	line	41
  3408                           	
  3409                           l2842:
  3410  001EB4                     	movf	((c:___xxtofl@sign)),c,w
  3411  001EB4  5009               	btfsc	status,2
  3412  001EB6  B4D8               	goto	u3141
  3413  001EB8  EF60  F00F         	goto	u3140
  3414  001EBC  EF62  F00F         u3141:
  3415  001EC0                     	goto	l2848
  3416  001EC0  EF6C  F00F         u3140:
  3417  001EC4                     	
  3418                           l2844:
  3419  001EC4                     	btfsc	((c:___xxtofl@val+3)),c,7
  3420  001EC4  BE04               	goto	u3150
  3421  001EC6  EF69  F00F         	goto	u3151
  3422  001ECA  EF67  F00F         
  3423                           u3151:
  3424  001ECE                     	goto	l2848
  3425  001ECE  EF6C  F00F         u3150:
  3426  001ED2                     	line	42
  3427                           	
  3428                           l2846:
  3429  001ED2                     	bsf	(0+(31/8)+(c:___xxtofl@arg)),c,(31)&7
  3430  001ED2  8E0E               	goto	l2848
  3431  001ED4  EF6C  F00F         	
  3432                           l1288:
  3433  001ED8                     	line	43
  3434                           	
  3435                           l2848:
  3436  001ED8                     	movff	(c:___xxtofl@arg),(c:?___xxtofl)
  3437  001ED8  C00B  F001         	movff	(c:___xxtofl@arg+1),(c:?___xxtofl+1)
  3438  001EDC  C00C  F002         	movff	(c:___xxtofl@arg+2),(c:?___xxtofl+2)
  3439  001EE0  C00D  F003         	movff	(c:___xxtofl@arg+3),(c:?___xxtofl+3)
  3440  001EE4  C00E  F004         	goto	l1275
  3441  001EE8  EF76  F00F         	
  3442                           l2850:
  3443  001EEC                     	line	44
  3444                           	
  3445                           l1275:
  3446  001EEC                     	return	;funcret
  3447  001EEC  0012               	opt stack 0
  3448                           GLOBAL	__end_of___xxtofl
  3449                           	__end_of___xxtofl:
  3450  001EEE                     	signat	___xxtofl,8316
  3451                           	global	___fltol
  3452                           
  3453 ;; *************** function ___fltol *****************
  3454 ;; Defined at:
  3455 ;;		line 43 in file "C:\Program Files (x86)\Microchip\xc8\v2.00\pic\sources\c99\common\fltol.c"
  3456 ;; Parameters:    Size  Location     Type
  3457 ;;  f1              4    0[COMRAM] unsigned char 
  3458 ;; Auto vars:     Size  Location     Type
  3459 ;;  exp1            1    9[COMRAM] unsigned char 
  3460 ;;  sign1           1    8[COMRAM] unsigned char 
  3461 ;; Return value:  Size  Location     Type
  3462 ;;                  4    0[COMRAM] long 
  3463 ;; Registers used:
  3464 ;;		wreg, status,2, status,0
  3465 ;; Tracked objects:
  3466 ;;		On entry : 0/0
  3467 ;;		On exit  : 0/0
  3468 ;;		Unchanged: 0/0
  3469 ;; Data sizes:     COMRAM   BANK0   BANK1   BANK2   BANK3   BANK4   BANK5   BANK6   BANK7
  3470 ;;      Params:         4       0       0       0       0       0       0       0       0
  3471 ;;      Locals:         2       0       0       0       0       0       0       0       0
  3472 ;;      Temps:          4       0       0       0       0       0       0       0       0
  3473 ;;      Totals:        10       0       0       0       0       0       0       0       0
  3474 ;;Total ram usage:       10 bytes
  3475 ;; Hardware stack levels used:    1
  3476 ;; Hardware stack levels required when called:    1
  3477 ;; This function calls:
  3478 ;;		Nothing
  3479 ;; This function is called by:
  3480 ;;		_USART_Init
  3481 ;; This function uses a non-reentrant model
  3482 ;;
  3483                           psect	text8,class=CODE,space=0,reloc=2,group=1
  3484                           	file	"C:\Program Files (x86)\Microchip\xc8\v2.00\pic\sources\c99\common\fltol.c"
  3485                           	line	43
  3486                           global __ptext8
  3487                           __ptext8:
  3488  001EEE                     psect	text8
  3489                           	file	"C:\Program Files (x86)\Microchip\xc8\v2.00\pic\sources\c99\common\fltol.c"
  3490                           	line	43
  3491                           	global	__size_of___fltol
  3492                           	__size_of___fltol	equ	__end_of___fltol-___fltol
  3493  0000                     	
  3494                           ___fltol:
  3495  001EEE                     ;incstack = 0
  3496                           	opt	stack 26
  3497                           	line	47
  3498                           	
  3499                           l2762:
  3500  001EEE                     	rlcf	((c:___fltol@f1+2)),c,w
  3501  001EEE  3403               	rlcf	((c:___fltol@f1+3)),c,w
  3502  001EF0  3404               	movwf	((c:___fltol@exp1)),c
  3503  001EF2  6E0A               	movf	((c:___fltol@exp1)),c,w
  3504  001EF4  500A               	btfss	status,2
  3505  001EF6  A4D8               	goto	u2991
  3506  001EF8  EF80  F00F         	goto	u2990
  3507  001EFC  EF82  F00F         u2991:
  3508  001F00                     	goto	l2768
  3509  001F00  EF8E  F00F         u2990:
  3510  001F04                     	line	48
  3511                           	
  3512                           l2764:
  3513  001F04                     	movlw	low(0)
  3514  001F04  0E00               	movwf	((c:?___fltol)),c
  3515  001F06  6E01               	movlw	high(0)
  3516  001F08  0E00               	movwf	((c:?___fltol+1)),c
  3517  001F0A  6E02               	movlw	low highword(0)
  3518  001F0C  0E00               	movwf	((c:?___fltol+2)),c
  3519  001F0E  6E03               	movlw	high highword(0)
  3520  001F10  0E00               	movwf	((c:?___fltol+3)),c
  3521  001F12  6E04               	goto	l914
  3522  001F14  EF1F  F010         	
  3523                           l2766:
  3524  001F18                     	goto	l914
  3525  001F18  EF1F  F010         	
  3526                           l913:
  3527  001F1C                     	line	49
  3528                           	
  3529                           l2768:
  3530  001F1C                     	movff	(c:___fltol@f1),??___fltol+0+0
  3531  001F1C  C001  F005         	movff	(c:___fltol@f1+1),??___fltol+0+0+1
  3532  001F20  C002  F006         	movff	(c:___fltol@f1+2),??___fltol+0+0+2
  3533  001F24  C003  F007         	movff	(c:___fltol@f1+3),??___fltol+0+0+3
  3534  001F28  C004  F008         	movlw	01Fh+1
  3535  001F2C  0E20               	goto	u3000
  3536  001F2E  EF9E  F00F         u3005:
  3537  001F32                     	bcf	status,0
  3538  001F32  90D8               	rrcf	(??___fltol+0+3),c
  3539  001F34  3208               	rrcf	(??___fltol+0+2),c
  3540  001F36  3207               	rrcf	(??___fltol+0+1),c
  3541  001F38  3206               	rrcf	(??___fltol+0+0),c
  3542  001F3A  3205               u3000:
  3543  001F3C                     	decfsz	wreg
  3544  001F3C  2EE8               	goto	u3005
  3545  001F3E  EF99  F00F         	movf	(??___fltol+0+0),c,w
  3546  001F42  5005               	movwf	((c:___fltol@sign1)),c
  3547  001F44  6E09               	line	50
  3548                           	
  3549                           l2770:
  3550  001F46                     	bsf	(0+(23/8)+(c:___fltol@f1)),c,(23)&7
  3551  001F46  8E03               	line	51
  3552                           	
  3553                           l2772:
  3554  001F48                     	movlw	0FFh
  3555  001F48  0EFF               	andwf	((c:___fltol@f1)),c
  3556  001F4A  1601               	movlw	0FFh
  3557  001F4C  0EFF               	andwf	((c:___fltol@f1+1)),c
  3558  001F4E  1602               	movlw	0FFh
  3559  001F50  0EFF               	andwf	((c:___fltol@f1+2)),c
  3560  001F52  1603               	movlw	0
  3561  001F54  0E00               	andwf	((c:___fltol@f1+3)),c
  3562  001F56  1604               	line	52
  3563                           	
  3564                           l2774:
  3565  001F58                     	movlw	(096h)&0ffh
  3566  001F58  0E96               	subwf	((c:___fltol@exp1)),c
  3567  001F5A  5E0A               	line	53
  3568                           	
  3569                           l2776:
  3570  001F5C                     	btfsc	((c:___fltol@exp1)),c,7
  3571  001F5C  BE0A               	goto	u3010
  3572  001F5E  EFB5  F00F         	goto	u3011
  3573  001F62  EFB3  F00F         
  3574                           u3011:
  3575  001F66                     	goto	l2788
  3576  001F66  EFD9  F00F         u3010:
  3577  001F6A                     	line	54
  3578                           	
  3579                           l2778:
  3580  001F6A                     		movf	((c:___fltol@exp1)),c,w
  3581  001F6A  500A               	xorlw	80h
  3582  001F6C  0A80               	addlw	-(80h^-23)
  3583  001F6E  0F97               	btfsc	status,0
  3584  001F70  B0D8               	goto	u3021
  3585  001F72  EFBD  F00F         	goto	u3020
  3586  001F76  EFBF  F00F         
  3587                           u3021:
  3588  001F7A                     	goto	l2784
  3589  001F7A  EFCD  F00F         u3020:
  3590  001F7E                     	line	55
  3591                           	
  3592                           l2780:
  3593  001F7E                     	movlw	low(0)
  3594  001F7E  0E00               	movwf	((c:?___fltol)),c
  3595  001F80  6E01               	movlw	high(0)
  3596  001F82  0E00               	movwf	((c:?___fltol+1)),c
  3597  001F84  6E02               	movlw	low highword(0)
  3598  001F86  0E00               	movwf	((c:?___fltol+2)),c
  3599  001F88  6E03               	movlw	high highword(0)
  3600  001F8A  0E00               	movwf	((c:?___fltol+3)),c
  3601  001F8C  6E04               	goto	l914
  3602  001F8E  EF1F  F010         	
  3603                           l2782:
  3604  001F92                     	goto	l914
  3605  001F92  EF1F  F010         	
  3606                           l916:
  3607  001F96                     	goto	l2784
  3608  001F96  EFCD  F00F         	line	56
  3609                           	
  3610                           l917:
  3611  001F9A                     	line	57
  3612                           	
  3613                           l2784:
  3614  001F9A                     	bcf	status,0
  3615  001F9A  90D8               	rrcf	((c:___fltol@f1+3)),c
  3616  001F9C  3204               	rrcf	((c:___fltol@f1+2)),c
  3617  001F9E  3203               	rrcf	((c:___fltol@f1+1)),c
  3618  001FA0  3202               	rrcf	((c:___fltol@f1)),c
  3619  001FA2  3201               	
  3620                           l2786:
  3621  001FA4                     	incfsz	((c:___fltol@exp1)),c
  3622  001FA4  3E0A               	
  3623                           	goto	l2784
  3624  001FA6  EFCD  F00F         	goto	l2798
  3625  001FAA  EF03  F010         	
  3626                           l918:
  3627  001FAE                     	line	59
  3628                           	goto	l2798
  3629  001FAE  EF03  F010         	
  3630                           l915:
  3631  001FB2                     	line	60
  3632                           	
  3633                           l2788:
  3634  001FB2                     		movlw	020h-1
  3635  001FB2  0E1F               	cpfsgt	((c:___fltol@exp1)),c
  3636  001FB4  640A               	goto	u3031
  3637  001FB6  EFDF  F00F         	goto	u3030
  3638  001FBA  EFE1  F00F         
  3639                           u3031:
  3640  001FBE                     	goto	l2796
  3641  001FBE  EFF7  F00F         u3030:
  3642  001FC2                     	line	61
  3643                           	
  3644                           l2790:
  3645  001FC2                     	movlw	low(0)
  3646  001FC2  0E00               	movwf	((c:?___fltol)),c
  3647  001FC4  6E01               	movlw	high(0)
  3648  001FC6  0E00               	movwf	((c:?___fltol+1)),c
  3649  001FC8  6E02               	movlw	low highword(0)
  3650  001FCA  0E00               	movwf	((c:?___fltol+2)),c
  3651  001FCC  6E03               	movlw	high highword(0)
  3652  001FCE  0E00               	movwf	((c:?___fltol+3)),c
  3653  001FD0  6E04               	goto	l914
  3654  001FD2  EF1F  F010         	
  3655                           l2792:
  3656  001FD6                     	goto	l914
  3657  001FD6  EF1F  F010         	
  3658                           l920:
  3659  001FDA                     	line	62
  3660                           	goto	l2796
  3661  001FDA  EFF7  F00F         	
  3662                           l922:
  3663  001FDE                     	line	63
  3664                           	
  3665                           l2794:
  3666  001FDE                     	bcf	status,0
  3667  001FDE  90D8               	rlcf	((c:___fltol@f1)),c
  3668  001FE0  3601               	rlcf	((c:___fltol@f1+1)),c
  3669  001FE2  3602               	rlcf	((c:___fltol@f1+2)),c
  3670  001FE4  3603               	rlcf	((c:___fltol@f1+3)),c
  3671  001FE6  3604               	line	64
  3672                           	decf	((c:___fltol@exp1)),c
  3673  001FE8  060A               	goto	l2796
  3674  001FEA  EFF7  F00F         	line	65
  3675                           	
  3676                           l921:
  3677  001FEE                     	line	62
  3678                           	
  3679                           l2796:
  3680  001FEE                     	movf	((c:___fltol@exp1)),c,w
  3681  001FEE  500A               	btfss	status,2
  3682  001FF0  A4D8               	goto	u3041
  3683  001FF2  EFFD  F00F         	goto	u3040
  3684  001FF6  EFFF  F00F         u3041:
  3685  001FFA                     	goto	l2794
  3686  001FFA  EFEF  F00F         u3040:
  3687  001FFE                     	goto	l2798
  3688  001FFE  EF03  F010         	
  3689                           l923:
  3690  002002                     	goto	l2798
  3691  002002  EF03  F010         	line	66
  3692                           	
  3693                           l919:
  3694  002006                     	line	67
  3695                           	
  3696                           l2798:
  3697  002006                     	movf	((c:___fltol@sign1)),c,w
  3698  002006  5009               	btfsc	status,2
  3699  002008  B4D8               	goto	u3051
  3700  00200A  EF09  F010         	goto	u3050
  3701  00200E  EF0B  F010         u3051:
  3702  002012                     	goto	l2802
  3703  002012  EF15  F010         u3050:
  3704  002016                     	line	68
  3705                           	
  3706                           l2800:
  3707  002016                     	comf	((c:___fltol@f1+3)),c
  3708  002016  1E04               	comf	((c:___fltol@f1+2)),c
  3709  002018  1E03               	comf	((c:___fltol@f1+1)),c
  3710  00201A  1E02               	negf	((c:___fltol@f1)),c
  3711  00201C  6C01               	movlw	0
  3712  00201E  0E00               	addwfc	((c:___fltol@f1+1)),c
  3713  002020  2202               	addwfc	((c:___fltol@f1+2)),c
  3714  002022  2203               	addwfc	((c:___fltol@f1+3)),c
  3715  002024  2204               	goto	l2802
  3716  002026  EF15  F010         	
  3717                           l924:
  3718  00202A                     	line	69
  3719                           	
  3720                           l2802:
  3721  00202A                     	movff	(c:___fltol@f1),(c:?___fltol)
  3722  00202A  C001  F001         	movff	(c:___fltol@f1+1),(c:?___fltol+1)
  3723  00202E  C002  F002         	movff	(c:___fltol@f1+2),(c:?___fltol+2)
  3724  002032  C003  F003         	movff	(c:___fltol@f1+3),(c:?___fltol+3)
  3725  002036  C004  F004         	goto	l914
  3726  00203A  EF1F  F010         	
  3727                           l2804:
  3728  00203E                     	line	70
  3729                           	
  3730                           l914:
  3731  00203E                     	return	;funcret
  3732  00203E  0012               	opt stack 0
  3733                           GLOBAL	__end_of___fltol
  3734                           	__end_of___fltol:
  3735  002040                     	signat	___fltol,4220
  3736                           	global	___fldiv
  3737                           
  3738 ;; *************** function ___fldiv *****************
  3739 ;; Defined at:
  3740 ;;		line 11 in file "C:\Program Files (x86)\Microchip\xc8\v2.00\pic\sources\c99\common\sprcdiv.c"
  3741 ;; Parameters:    Size  Location     Type
  3742 ;;  b               4   14[COMRAM] long 
  3743 ;;  a               4   18[COMRAM] long 
  3744 ;; Auto vars:     Size  Location     Type
  3745 ;;  grs             4   33[COMRAM] unsigned long 
  3746 ;;  rem             4   26[COMRAM] unsigned long 
  3747 ;;  new_exp         2   31[COMRAM] short 
  3748 ;;  aexp            1   38[COMRAM] unsigned char 
  3749 ;;  bexp            1   37[COMRAM] unsigned char 
  3750 ;;  sign            1   30[COMRAM] unsigned char 
  3751 ;; Return value:  Size  Location     Type
  3752 ;;                  4   14[COMRAM] unsigned char 
  3753 ;; Registers used:
  3754 ;;		wreg, status,2, status,0
  3755 ;; Tracked objects:
  3756 ;;		On entry : 0/0
  3757 ;;		On exit  : 0/0
  3758 ;;		Unchanged: 0/0
  3759 ;; Data sizes:     COMRAM   BANK0   BANK1   BANK2   BANK3   BANK4   BANK5   BANK6   BANK7
  3760 ;;      Params:         8       0       0       0       0       0       0       0       0
  3761 ;;      Locals:        13       0       0       0       0       0       0       0       0
  3762 ;;      Temps:          4       0       0       0       0       0       0       0       0
  3763 ;;      Totals:        25       0       0       0       0       0       0       0       0
  3764 ;;Total ram usage:       25 bytes
  3765 ;; Hardware stack levels used:    1
  3766 ;; Hardware stack levels required when called:    1
  3767 ;; This function calls:
  3768 ;;		Nothing
  3769 ;; This function is called by:
  3770 ;;		_USART_Init
  3771 ;;		_Frequency
  3772 ;;		_rescale
  3773 ;; This function uses a non-reentrant model
  3774 ;;
  3775                           psect	text9,class=CODE,space=0,reloc=2,group=1
  3776                           	file	"C:\Program Files (x86)\Microchip\xc8\v2.00\pic\sources\c99\common\sprcdiv.c"
  3777                           	line	11
  3778                           global __ptext9
  3779                           __ptext9:
  3780  0014B2                     psect	text9
  3781                           	file	"C:\Program Files (x86)\Microchip\xc8\v2.00\pic\sources\c99\common\sprcdiv.c"
  3782                           	line	11
  3783                           	global	__size_of___fldiv
  3784                           	__size_of___fldiv	equ	__end_of___fldiv-___fldiv
  3785  0000                     	
  3786                           ___fldiv:
  3787  0014B2                     ;incstack = 0
  3788                           	opt	stack 26
  3789                           	line	26
  3790                           	
  3791                           l2624:
  3792  0014B2                     	movf	(0+((c:___fldiv@b)+03h)),c,w
  3793  0014B2  5012               	andlw	low(080h)
  3794  0014B4  0B80               	movwf	((c:___fldiv@sign)),c
  3795  0014B6  6E1F               	line	27
  3796                           	movf	(0+((c:___fldiv@b)+03h)),c,w
  3797  0014B8  5012               	addwf	(0+((c:___fldiv@b)+03h)),c,w
  3798  0014BA  2412               	movwf	((c:___fldiv@bexp)),c
  3799  0014BC  6E26               	line	28
  3800                           	
  3801                           l2626:
  3802  0014BE                     	
  3803                           	btfss	(0+((c:___fldiv@b)+02h)),c,(7)&7
  3804  0014BE  AE11               	goto	u2761
  3805  0014C0  EF64  F00A         	goto	u2760
  3806  0014C4  EF66  F00A         u2761:
  3807  0014C8                     	goto	l2630
  3808  0014C8  EF69  F00A         u2760:
  3809  0014CC                     	line	29
  3810                           	
  3811                           l2628:
  3812  0014CC                     	bsf	(0+(0/8)+(c:___fldiv@bexp)),c,(0)&7
  3813  0014CC  8026               	goto	l2630
  3814  0014CE  EF69  F00A         	line	30
  3815                           	
  3816                           l1190:
  3817  0014D2                     	line	33
  3818                           	
  3819                           l2630:
  3820  0014D2                     	movf	((c:___fldiv@bexp)),c,w
  3821  0014D2  5026               	btfsc	status,2
  3822  0014D4  B4D8               	goto	u2771
  3823  0014D6  EF6F  F00A         	goto	u2770
  3824  0014DA  EF71  F00A         u2771:
  3825  0014DE                     	goto	l2640
  3826  0014DE  EF88  F00A         u2770:
  3827  0014E2                     	line	35
  3828                           	
  3829                           l2632:
  3830  0014E2                     		incf	((c:___fldiv@bexp)),c,w
  3831  0014E2  2826               	btfss	status,2
  3832  0014E4  A4D8               	goto	u2781
  3833  0014E6  EF77  F00A         	goto	u2780
  3834  0014EA  EF79  F00A         
  3835                           u2781:
  3836  0014EE                     	goto	l2636
  3837  0014EE  EF83  F00A         u2780:
  3838  0014F2                     	line	37
  3839                           	
  3840                           l2634:
  3841  0014F2                     	movlw	low(normalize32(0x0))
  3842  0014F2  0E00               	movwf	((c:___fldiv@b)),c
  3843  0014F4  6E0F               	movlw	high(normalize32(0x0))
  3844  0014F6  0E00               	movwf	((c:___fldiv@b+1)),c
  3845  0014F8  6E10               	movlw	low highword(normalize32(0x0))
  3846  0014FA  0E00               	movwf	((c:___fldiv@b+2)),c
  3847  0014FC  6E11               	movlw	high highword(normalize32(0x0))
  3848  0014FE  0E00               	movwf	((c:___fldiv@b+3)),c
  3849  001500  6E12               	goto	l2636
  3850  001502  EF83  F00A         	line	38
  3851                           	
  3852                           l1192:
  3853  001506                     	line	40
  3854                           	
  3855                           l2636:
  3856  001506                     	bsf	(0+(23/8)+(c:___fldiv@b)),c,(23)&7
  3857  001506  8E11               	line	42
  3858                           	
  3859                           l2638:
  3860  001508                     	movlw	low(0)
  3861  001508  0E00               	movwf	(0+((c:___fldiv@b)+03h)),c
  3862  00150A  6E12               	line	43
  3863                           	goto	l2642
  3864  00150C  EF92  F00A         	line	44
  3865                           	
  3866                           l1191:
  3867  001510                     	line	46
  3868                           	
  3869                           l2640:
  3870  001510                     	movlw	low(normalize32(0x0))
  3871  001510  0E00               	movwf	((c:___fldiv@b)),c
  3872  001512  6E0F               	movlw	high(normalize32(0x0))
  3873  001514  0E00               	movwf	((c:___fldiv@b+1)),c
  3874  001516  6E10               	movlw	low highword(normalize32(0x0))
  3875  001518  0E00               	movwf	((c:___fldiv@b+2)),c
  3876  00151A  6E11               	movlw	high highword(normalize32(0x0))
  3877  00151C  0E00               	movwf	((c:___fldiv@b+3)),c
  3878  00151E  6E12               	goto	l2642
  3879  001520  EF92  F00A         	line	47
  3880                           	
  3881                           l1193:
  3882  001524                     	line	49
  3883                           	
  3884                           l2642:
  3885  001524                     	movf	(0+((c:___fldiv@a)+03h)),c,w
  3886  001524  5016               	andlw	low(080h)
  3887  001526  0B80               	xorwf	((c:___fldiv@sign)),c
  3888  001528  1A1F               	line	50
  3889                           	
  3890                           l2644:
  3891  00152A                     	movf	(0+((c:___fldiv@a)+03h)),c,w
  3892  00152A  5016               	addwf	(0+((c:___fldiv@a)+03h)),c,w
  3893  00152C  2416               	movwf	((c:___fldiv@aexp)),c
  3894  00152E  6E27               	line	51
  3895                           	
  3896                           l2646:
  3897  001530                     	
  3898                           	btfss	(0+((c:___fldiv@a)+02h)),c,(7)&7
  3899  001530  AE15               	goto	u2791
  3900  001532  EF9D  F00A         	goto	u2790
  3901  001536  EF9F  F00A         u2791:
  3902  00153A                     	goto	l2650
  3903  00153A  EFA2  F00A         u2790:
  3904  00153E                     	line	52
  3905                           	
  3906                           l2648:
  3907  00153E                     	bsf	(0+(0/8)+(c:___fldiv@aexp)),c,(0)&7
  3908  00153E  8027               	goto	l2650
  3909  001540  EFA2  F00A         	line	53
  3910                           	
  3911                           l1194:
  3912  001544                     	line	56
  3913                           	
  3914                           l2650:
  3915  001544                     	movf	((c:___fldiv@aexp)),c,w
  3916  001544  5027               	btfsc	status,2
  3917  001546  B4D8               	goto	u2801
  3918  001548  EFA8  F00A         	goto	u2800
  3919  00154C  EFAA  F00A         u2801:
  3920  001550                     	goto	l2660
  3921  001550  EFC1  F00A         u2800:
  3922  001554                     	line	58
  3923                           	
  3924                           l2652:
  3925  001554                     		incf	((c:___fldiv@aexp)),c,w
  3926  001554  2827               	btfss	status,2
  3927  001556  A4D8               	goto	u2811
  3928  001558  EFB0  F00A         	goto	u2810
  3929  00155C  EFB2  F00A         
  3930                           u2811:
  3931  001560                     	goto	l2656
  3932  001560  EFBC  F00A         u2810:
  3933  001564                     	line	60
  3934                           	
  3935                           l2654:
  3936  001564                     	movlw	low(normalize32(0x0))
  3937  001564  0E00               	movwf	((c:___fldiv@a)),c
  3938  001566  6E13               	movlw	high(normalize32(0x0))
  3939  001568  0E00               	movwf	((c:___fldiv@a+1)),c
  3940  00156A  6E14               	movlw	low highword(normalize32(0x0))
  3941  00156C  0E00               	movwf	((c:___fldiv@a+2)),c
  3942  00156E  6E15               	movlw	high highword(normalize32(0x0))
  3943  001570  0E00               	movwf	((c:___fldiv@a+3)),c
  3944  001572  6E16               	goto	l2656
  3945  001574  EFBC  F00A         	line	61
  3946                           	
  3947                           l1196:
  3948  001578                     	line	63
  3949                           	
  3950                           l2656:
  3951  001578                     	bsf	(0+(23/8)+(c:___fldiv@a)),c,(23)&7
  3952  001578  8E15               	line	65
  3953                           	
  3954                           l2658:
  3955  00157A                     	movlw	low(0)
  3956  00157A  0E00               	movwf	(0+((c:___fldiv@a)+03h)),c
  3957  00157C  6E16               	line	66
  3958                           	goto	l2662
  3959  00157E  EFCB  F00A         	line	67
  3960                           	
  3961                           l1195:
  3962  001582                     	line	69
  3963                           	
  3964                           l2660:
  3965  001582                     	movlw	low(normalize32(0x0))
  3966  001582  0E00               	movwf	((c:___fldiv@a)),c
  3967  001584  6E13               	movlw	high(normalize32(0x0))
  3968  001586  0E00               	movwf	((c:___fldiv@a+1)),c
  3969  001588  6E14               	movlw	low highword(normalize32(0x0))
  3970  00158A  0E00               	movwf	((c:___fldiv@a+2)),c
  3971  00158C  6E15               	movlw	high highword(normalize32(0x0))
  3972  00158E  0E00               	movwf	((c:___fldiv@a+3)),c
  3973  001590  6E16               	goto	l2662
  3974  001592  EFCB  F00A         	line	70
  3975                           	
  3976                           l1197:
  3977  001596                     	line	75
  3978                           	
  3979                           l2662:
  3980  001596                     	movf	((c:___fldiv@a)),c,w
  3981  001596  5013               iorwf	((c:___fldiv@a+1)),c,w
  3982  001598  1014               iorwf	((c:___fldiv@a+2)),c,w
  3983  00159A  1015               iorwf	((c:___fldiv@a+3)),c,w
  3984  00159C  1016               	btfss	status,2
  3985  00159E  A4D8               	goto	u2821
  3986  0015A0  EFD4  F00A         	goto	u2820
  3987  0015A4  EFD6  F00A         
  3988                           u2821:
  3989  0015A8                     	goto	l2674
  3990  0015A8  EFF0  F00A         u2820:
  3991  0015AC                     	line	76
  3992                           	
  3993                           l2664:
  3994  0015AC                     	movlw	low(0)
  3995  0015AC  0E00               	movwf	((c:___fldiv@b)),c
  3996  0015AE  6E0F               	movlw	high(0)
  3997  0015B0  0E00               	movwf	((c:___fldiv@b+1)),c
  3998  0015B2  6E10               	movlw	low highword(0)
  3999  0015B4  0E00               	movwf	((c:___fldiv@b+2)),c
  4000  0015B6  6E11               	movlw	high highword(0)
  4001  0015B8  0E00               	movwf	((c:___fldiv@b+3)),c
  4002  0015BA  6E12               	line	77
  4003                           	
  4004                           l2666:
  4005  0015BC                     	movlw	low(07F80h)
  4006  0015BC  0E80               	iorwf	(0+((c:___fldiv@b)+02h)),c
  4007  0015BE  1211               	movlw	high(07F80h)
  4008  0015C0  0E7F               	iorwf	(1+((c:___fldiv@b)+02h)),c
  4009  0015C2  1212               	line	78
  4010                           	
  4011                           l2668:
  4012  0015C4                     	movf	((c:___fldiv@sign)),c,w
  4013  0015C4  501F               	iorwf	(0+((c:___fldiv@b)+03h)),c
  4014  0015C6  1212               	line	79
  4015                           	
  4016                           l2670:
  4017  0015C8                     	movff	(c:___fldiv@b),(c:?___fldiv)
  4018  0015C8  C00F  F00F         	movff	(c:___fldiv@b+1),(c:?___fldiv+1)
  4019  0015CC  C010  F010         	movff	(c:___fldiv@b+2),(c:?___fldiv+2)
  4020  0015D0  C011  F011         	movff	(c:___fldiv@b+3),(c:?___fldiv+3)
  4021  0015D4  C012  F012         	goto	l1199
  4022  0015D8  EF68  F00C         	
  4023                           l2672:
  4024  0015DC                     	goto	l1199
  4025  0015DC  EF68  F00C         	line	80
  4026                           	
  4027                           l1198:
  4028  0015E0                     	line	83
  4029                           	
  4030                           l2674:
  4031  0015E0                     	movf	((c:___fldiv@bexp)),c,w
  4032  0015E0  5026               	btfss	status,2
  4033  0015E2  A4D8               	goto	u2831
  4034  0015E4  EFF6  F00A         	goto	u2830
  4035  0015E8  EFF8  F00A         u2831:
  4036  0015EC                     	goto	l2682
  4037  0015EC  EF0C  F00B         u2830:
  4038  0015F0                     	line	84
  4039                           	
  4040                           l2676:
  4041  0015F0                     	movlw	low(0)
  4042  0015F0  0E00               	movwf	((c:___fldiv@b)),c
  4043  0015F2  6E0F               	movlw	high(0)
  4044  0015F4  0E00               	movwf	((c:___fldiv@b+1)),c
  4045  0015F6  6E10               	movlw	low highword(0)
  4046  0015F8  0E00               	movwf	((c:___fldiv@b+2)),c
  4047  0015FA  6E11               	movlw	high highword(0)
  4048  0015FC  0E00               	movwf	((c:___fldiv@b+3)),c
  4049  0015FE  6E12               	line	85
  4050                           	
  4051                           l2678:
  4052  001600                     	movff	(c:___fldiv@b),(c:?___fldiv)
  4053  001600  C00F  F00F         	movff	(c:___fldiv@b+1),(c:?___fldiv+1)
  4054  001604  C010  F010         	movff	(c:___fldiv@b+2),(c:?___fldiv+2)
  4055  001608  C011  F011         	movff	(c:___fldiv@b+3),(c:?___fldiv+3)
  4056  00160C  C012  F012         	goto	l1199
  4057  001610  EF68  F00C         	
  4058                           l2680:
  4059  001614                     	goto	l1199
  4060  001614  EF68  F00C         	line	86
  4061                           	
  4062                           l1200:
  4063  001618                     	line	89
  4064                           	
  4065                           l2682:
  4066  001618                     	movf	((c:___fldiv@aexp)),c,w
  4067  001618  5027               	movwf	(??___fldiv+0+0)&0ffh,c
  4068  00161A  6E17               	clrf	(??___fldiv+0+0+1)&0ffh,c
  4069  00161C  6A18               
  4070                           	comf	(??___fldiv+0+0),c
  4071  00161E  1E17               	comf	(??___fldiv+0+1),c
  4072  001620  1E18               	infsnz	(??___fldiv+0+0),c
  4073  001622  4A17               	incf	(??___fldiv+0+1),c
  4074  001624  2A18               	movf	((c:___fldiv@bexp)),c,w
  4075  001626  5026               	movwf	(??___fldiv+2+0)&0ffh,c
  4076  001628  6E19               	clrf	(??___fldiv+2+0+1)&0ffh,c
  4077  00162A  6A1A               
  4078                           	movf	(??___fldiv+0+0),c,w
  4079  00162C  5017               	addwf	(??___fldiv+2+0),c
  4080  00162E  2619               	movf	(??___fldiv+0+1),c,w
  4081  001630  5018               	addwfc	(??___fldiv+2+1),c
  4082  001632  221A               	movlw	low(07Fh)
  4083  001634  0E7F               	addwf	(??___fldiv+2+0),c,w
  4084  001636  2419               	movwf	((c:___fldiv@new_exp)),c
  4085  001638  6E20               	movlw	high(07Fh)
  4086  00163A  0E00               	addwfc	(??___fldiv+2+1),c,w
  4087  00163C  201A               	movwf	1+((c:___fldiv@new_exp)),c
  4088  00163E  6E21               	line	92
  4089                           	
  4090                           l2684:
  4091  001640                     	movff	(c:___fldiv@b),(c:___fldiv@rem)
  4092  001640  C00F  F01B         	movff	(c:___fldiv@b+1),(c:___fldiv@rem+1)
  4093  001644  C010  F01C         	movff	(c:___fldiv@b+2),(c:___fldiv@rem+2)
  4094  001648  C011  F01D         	movff	(c:___fldiv@b+3),(c:___fldiv@rem+3)
  4095  00164C  C012  F01E         	line	93
  4096                           	
  4097                           l2686:
  4098  001650                     	movlw	low(0)
  4099  001650  0E00               	movwf	((c:___fldiv@b)),c
  4100  001652  6E0F               	movlw	high(0)
  4101  001654  0E00               	movwf	((c:___fldiv@b+1)),c
  4102  001656  6E10               	movlw	low highword(0)
  4103  001658  0E00               	movwf	((c:___fldiv@b+2)),c
  4104  00165A  6E11               	movlw	high highword(0)
  4105  00165C  0E00               	movwf	((c:___fldiv@b+3)),c
  4106  00165E  6E12               	line	94
  4107                           	
  4108                           l2688:
  4109  001660                     	movlw	low(0)
  4110  001660  0E00               	movwf	((c:___fldiv@grs)),c
  4111  001662  6E22               	movlw	high(0)
  4112  001664  0E00               	movwf	((c:___fldiv@grs+1)),c
  4113  001666  6E23               	movlw	low highword(0)
  4114  001668  0E00               	movwf	((c:___fldiv@grs+2)),c
  4115  00166A  6E24               	movlw	high highword(0)
  4116  00166C  0E00               	movwf	((c:___fldiv@grs+3)),c
  4117  00166E  6E25               	line	96
  4118                           	
  4119                           l2690:
  4120  001670                     	movlw	low(0)
  4121  001670  0E00               	movwf	((c:___fldiv@aexp)),c
  4122  001672  6E27               	line	97
  4123                           	goto	l1201
  4124  001674  EF78  F00B         	
  4125                           l1202:
  4126  001678                     	line	100
  4127                           	
  4128                           l2692:
  4129  001678                     	movf	((c:___fldiv@aexp)),c,w
  4130  001678  5027               	btfsc	status,2
  4131  00167A  B4D8               	goto	u2841
  4132  00167C  EF42  F00B         	goto	u2840
  4133  001680  EF44  F00B         u2841:
  4134  001684                     	goto	l2700
  4135  001684  EF5D  F00B         u2840:
  4136  001688                     	line	101
  4137                           	
  4138                           l2694:
  4139  001688                     	bcf	status,0
  4140  001688  90D8               	rlcf	((c:___fldiv@rem)),c
  4141  00168A  361B               	rlcf	((c:___fldiv@rem+1)),c
  4142  00168C  361C               	rlcf	((c:___fldiv@rem+2)),c
  4143  00168E  361D               	rlcf	((c:___fldiv@rem+3)),c
  4144  001690  361E               	line	102
  4145                           	bcf	status,0
  4146  001692  90D8               	rlcf	((c:___fldiv@b)),c
  4147  001694  360F               	rlcf	((c:___fldiv@b+1)),c
  4148  001696  3610               	rlcf	((c:___fldiv@b+2)),c
  4149  001698  3611               	rlcf	((c:___fldiv@b+3)),c
  4150  00169A  3612               	line	103
  4151                           	
  4152                           l2696:
  4153  00169C                     	
  4154                           	btfss	((c:___fldiv@grs+3)),c,(31)&7
  4155  00169C  AE25               	goto	u2851
  4156  00169E  EF53  F00B         	goto	u2850
  4157  0016A2  EF55  F00B         u2851:
  4158  0016A6                     	goto	l1204
  4159  0016A6  EF56  F00B         u2850:
  4160  0016AA                     	line	104
  4161                           	
  4162                           l2698:
  4163  0016AA                     	bsf	(0+(0/8)+(c:___fldiv@b)),c,(0)&7
  4164  0016AA  800F               	line	105
  4165                           	
  4166                           l1204:
  4167  0016AC                     	line	106
  4168                           	bcf	status,0
  4169  0016AC  90D8               	rlcf	((c:___fldiv@grs)),c
  4170  0016AE  3622               	rlcf	((c:___fldiv@grs+1)),c
  4171  0016B0  3623               	rlcf	((c:___fldiv@grs+2)),c
  4172  0016B2  3624               	rlcf	((c:___fldiv@grs+3)),c
  4173  0016B4  3625               	goto	l2700
  4174  0016B6  EF5D  F00B         	line	107
  4175                           	
  4176                           l1203:
  4177  0016BA                     	line	112
  4178                           	
  4179                           l2700:
  4180  0016BA                     		movf	((c:___fldiv@a)),c,w
  4181  0016BA  5013               	subwf	((c:___fldiv@rem)),c,w
  4182  0016BC  5C1B               	movf	((c:___fldiv@a+1)),c,w
  4183  0016BE  5014               	subwfb	((c:___fldiv@rem+1)),c,w
  4184  0016C0  581C               	movf	((c:___fldiv@a+2)),c,w
  4185  0016C2  5015               	subwfb	((c:___fldiv@rem+2)),c,w
  4186  0016C4  581D               	movf	((c:___fldiv@a+3)),c,w
  4187  0016C6  5016               	subwfb	((c:___fldiv@rem+3)),c,w
  4188  0016C8  581E               	btfss	status,0
  4189  0016CA  A0D8               	goto	u2861
  4190  0016CC  EF6A  F00B         	goto	u2860
  4191  0016D0  EF6C  F00B         
  4192                           u2861:
  4193  0016D4                     	goto	l2706
  4194  0016D4  EF77  F00B         u2860:
  4195  0016D8                     	line	115
  4196                           	
  4197                           l2702:
  4198  0016D8                     	bsf	(0+(30/8)+(c:___fldiv@grs)),c,(30)&7
  4199  0016D8  8C25               	line	116
  4200                           	
  4201                           l2704:
  4202  0016DA                     	movf	((c:___fldiv@a)),c,w
  4203  0016DA  5013               	subwf	((c:___fldiv@rem)),c
  4204  0016DC  5E1B               	movf	((c:___fldiv@a+1)),c,w
  4205  0016DE  5014               	subwfb	((c:___fldiv@rem+1)),c
  4206  0016E0  5A1C               	movf	((c:___fldiv@a+2)),c,w
  4207  0016E2  5015               	subwfb	((c:___fldiv@rem+2)),c
  4208  0016E4  5A1D               	movf	((c:___fldiv@a+3)),c,w
  4209  0016E6  5016               	subwfb	((c:___fldiv@rem+3)),c
  4210  0016E8  5A1E               	goto	l2706
  4211  0016EA  EF77  F00B         	line	117
  4212                           	
  4213                           l1205:
  4214  0016EE                     	line	118
  4215                           	
  4216                           l2706:
  4217  0016EE                     	incf	((c:___fldiv@aexp)),c
  4218  0016EE  2A27               	line	119
  4219                           	
  4220                           l1201:
  4221  0016F0                     	line	97
  4222                           		movlw	01Ah-1
  4223  0016F0  0E19               	cpfsgt	((c:___fldiv@aexp)),c
  4224  0016F2  6427               	goto	u2871
  4225  0016F4  EF7E  F00B         	goto	u2870
  4226  0016F8  EF80  F00B         
  4227                           u2871:
  4228  0016FC                     	goto	l2692
  4229  0016FC  EF3C  F00B         u2870:
  4230  001700                     	goto	l2708
  4231  001700  EF82  F00B         	
  4232                           l1206:
  4233  001704                     	line	122
  4234                           	
  4235                           l2708:
  4236  001704                     	movf	((c:___fldiv@rem)),c,w
  4237  001704  501B               iorwf	((c:___fldiv@rem+1)),c,w
  4238  001706  101C               iorwf	((c:___fldiv@rem+2)),c,w
  4239  001708  101D               iorwf	((c:___fldiv@rem+3)),c,w
  4240  00170A  101E               	btfsc	status,2
  4241  00170C  B4D8               	goto	u2881
  4242  00170E  EF8B  F00B         	goto	u2880
  4243  001712  EF8D  F00B         
  4244                           u2881:
  4245  001716                     	goto	l2718
  4246  001716  EFA9  F00B         u2880:
  4247  00171A                     	line	123
  4248                           	
  4249                           l2710:
  4250  00171A                     	bsf	(0+(0/8)+(c:___fldiv@grs)),c,(0)&7
  4251  00171A  8022               	goto	l2718
  4252  00171C  EFA9  F00B         	line	124
  4253                           	
  4254                           l1207:
  4255  001720                     	line	127
  4256                           	goto	l2718
  4257  001720  EFA9  F00B         	
  4258                           l1209:
  4259  001724                     	line	128
  4260                           	
  4261                           l2712:
  4262  001724                     	bcf	status,0
  4263  001724  90D8               	rlcf	((c:___fldiv@b)),c
  4264  001726  360F               	rlcf	((c:___fldiv@b+1)),c
  4265  001728  3610               	rlcf	((c:___fldiv@b+2)),c
  4266  00172A  3611               	rlcf	((c:___fldiv@b+3)),c
  4267  00172C  3612               	line	129
  4268                           	
  4269                           l2714:
  4270  00172E                     	
  4271                           	btfss	((c:___fldiv@grs+3)),c,(31)&7
  4272  00172E  AE25               	goto	u2891
  4273  001730  EF9C  F00B         	goto	u2890
  4274  001734  EF9E  F00B         u2891:
  4275  001738                     	goto	l1210
  4276  001738  EF9F  F00B         u2890:
  4277  00173C                     	line	130
  4278                           	
  4279                           l2716:
  4280  00173C                     	bsf	(0+(0/8)+(c:___fldiv@b)),c,(0)&7
  4281  00173C  800F               	line	131
  4282                           	
  4283                           l1210:
  4284  00173E                     	line	132
  4285                           	bcf	status,0
  4286  00173E  90D8               	rlcf	((c:___fldiv@grs)),c
  4287  001740  3622               	rlcf	((c:___fldiv@grs+1)),c
  4288  001742  3623               	rlcf	((c:___fldiv@grs+2)),c
  4289  001744  3624               	rlcf	((c:___fldiv@grs+3)),c
  4290  001746  3625               	line	133
  4291                           	decf	((c:___fldiv@new_exp)),c
  4292  001748  0620               	btfss	status,0
  4293  00174A  A0D8               	decf	((c:___fldiv@new_exp+1)),c
  4294  00174C  0621               	goto	l2718
  4295  00174E  EFA9  F00B         	line	134
  4296                           	
  4297                           l1208:
  4298  001752                     	line	127
  4299                           	
  4300                           l2718:
  4301  001752                     	
  4302                           	btfss	((c:___fldiv@b+2)),c,(23)&7
  4303  001752  AE11               	goto	u2901
  4304  001754  EFAE  F00B         	goto	u2900
  4305  001758  EFB0  F00B         u2901:
  4306  00175C                     	goto	l2712
  4307  00175C  EF92  F00B         u2900:
  4308  001760                     	goto	l2720
  4309  001760  EFB2  F00B         	
  4310                           l1211:
  4311  001764                     	line	139
  4312                           	
  4313                           l2720:
  4314  001764                     	movlw	low(0)
  4315  001764  0E00               	movwf	((c:___fldiv@aexp)),c
  4316  001766  6E27               	line	140
  4317                           	
  4318                           l2722:
  4319  001768                     	
  4320                           	btfss	((c:___fldiv@grs+3)),c,(31)&7
  4321  001768  AE25               	goto	u2911
  4322  00176A  EFB9  F00B         	goto	u2910
  4323  00176E  EFBB  F00B         u2911:
  4324  001772                     	goto	l1212
  4325  001772  EFE3  F00B         u2910:
  4326  001776                     	line	141
  4327                           	
  4328                           l2724:
  4329  001776                     	movlw	0FFh
  4330  001776  0EFF               	andwf	((c:___fldiv@grs)),c,w
  4331  001778  1422               	movwf	(??___fldiv+0+0)&0ffh,c
  4332  00177A  6E17               	movlw	0FFh
  4333  00177C  0EFF               	andwf	((c:___fldiv@grs+1)),c,w
  4334  00177E  1423               	movwf	1+(??___fldiv+0+0)&0ffh,c
  4335  001780  6E18               	
  4336                           	movlw	0FFh
  4337  001782  0EFF               	andwf	((c:___fldiv@grs+2)),c,w
  4338  001784  1424               	movwf	2+(??___fldiv+0+0)&0ffh,c
  4339  001786  6E19               	
  4340                           	movlw	07Fh
  4341  001788  0E7F               	andwf	((c:___fldiv@grs+3)),c,w
  4342  00178A  1425               	movwf	3+(??___fldiv+0+0)&0ffh,c
  4343  00178C  6E1A               	movf	(??___fldiv+0+0),c,w
  4344  00178E  5017               iorwf	(??___fldiv+0+1),c,w
  4345  001790  1018               iorwf	(??___fldiv+0+2),c,w
  4346  001792  1019               iorwf	(??___fldiv+0+3),c,w
  4347  001794  101A               	btfsc	status,2
  4348  001796  B4D8               	goto	u2921
  4349  001798  EFD0  F00B         	goto	u2920
  4350  00179C  EFD2  F00B         
  4351                           u2921:
  4352  0017A0                     	goto	l1213
  4353  0017A0  EFD6  F00B         u2920:
  4354  0017A4                     	line	142
  4355                           	
  4356                           l2726:
  4357  0017A4                     	movlw	low(01h)
  4358  0017A4  0E01               	movwf	((c:___fldiv@aexp)),c
  4359  0017A6  6E27               	line	143
  4360                           	goto	l1212
  4361  0017A8  EFE3  F00B         	line	144
  4362                           	
  4363                           l1213:
  4364  0017AC                     	line	145
  4365                           	
  4366                           	btfss	((c:___fldiv@b)),c,(0)&7
  4367  0017AC  A00F               	goto	u2931
  4368  0017AE  EFDB  F00B         	goto	u2930
  4369  0017B2  EFDD  F00B         u2931:
  4370  0017B6                     	goto	l1212
  4371  0017B6  EFE3  F00B         u2930:
  4372  0017BA                     	line	146
  4373                           	
  4374                           l2728:
  4375  0017BA                     	movlw	low(01h)
  4376  0017BA  0E01               	movwf	((c:___fldiv@aexp)),c
  4377  0017BC  6E27               	goto	l1212
  4378  0017BE  EFE3  F00B         	line	147
  4379                           	
  4380                           l1215:
  4381  0017C2                     	goto	l1212
  4382  0017C2  EFE3  F00B         	line	148
  4383                           	
  4384                           l1214:
  4385  0017C6                     	line	149
  4386                           	
  4387                           l1212:
  4388  0017C6                     	line	150
  4389                           	movf	((c:___fldiv@aexp)),c,w
  4390  0017C6  5027               	btfsc	status,2
  4391  0017C8  B4D8               	goto	u2941
  4392  0017CA  EFE9  F00B         	goto	u2940
  4393  0017CE  EFEB  F00B         u2941:
  4394  0017D2                     	goto	l2738
  4395  0017D2  EF13  F00C         u2940:
  4396  0017D6                     	line	151
  4397                           	
  4398                           l2730:
  4399  0017D6                     	movlw	low(01h)
  4400  0017D6  0E01               	addwf	((c:___fldiv@b)),c
  4401  0017D8  260F               	movlw	0
  4402  0017DA  0E00               	addwfc	((c:___fldiv@b+1)),c
  4403  0017DC  2210               	addwfc	((c:___fldiv@b+2)),c
  4404  0017DE  2211               	addwfc	((c:___fldiv@b+3)),c
  4405  0017E0  2212               	line	152
  4406                           	
  4407                           l2732:
  4408  0017E2                     	
  4409                           	btfss	((c:___fldiv@b+3)),c,(24)&7
  4410  0017E2  A012               	goto	u2951
  4411  0017E4  EFF6  F00B         	goto	u2950
  4412  0017E8  EFF8  F00B         u2951:
  4413  0017EC                     	goto	l2738
  4414  0017EC  EF13  F00C         u2950:
  4415  0017F0                     	line	153
  4416                           	
  4417                           l2734:
  4418  0017F0                     	movff	(c:___fldiv@b),??___fldiv+0+0
  4419  0017F0  C00F  F017         	movff	(c:___fldiv@b+1),??___fldiv+0+0+1
  4420  0017F4  C010  F018         	movff	(c:___fldiv@b+2),??___fldiv+0+0+2
  4421  0017F8  C011  F019         	movff	(c:___fldiv@b+3),??___fldiv+0+0+3
  4422  0017FC  C012  F01A         	rlcf	(??___fldiv+0+3),c,w
  4423  001800  341A               	rrcf	(??___fldiv+0+3),c
  4424  001802  321A               	rrcf	(??___fldiv+0+2),c
  4425  001804  3219               	rrcf	(??___fldiv+0+1),c
  4426  001806  3218               	rrcf	(??___fldiv+0+0),c
  4427  001808  3217               	movff	??___fldiv+0+0,(c:___fldiv@b)
  4428  00180A  C017  F00F         	movff	??___fldiv+0+1,(c:___fldiv@b+1)
  4429  00180E  C018  F010         	movff	??___fldiv+0+2,(c:___fldiv@b+2)
  4430  001812  C019  F011         	movff	??___fldiv+0+3,(c:___fldiv@b+3)
  4431  001816  C01A  F012         	line	154
  4432                           	
  4433                           l2736:
  4434  00181A                     	infsnz	((c:___fldiv@new_exp)),c
  4435  00181A  4A20               	incf	((c:___fldiv@new_exp+1)),c
  4436  00181C  2A21               	goto	l2738
  4437  00181E  EF13  F00C         	line	155
  4438                           	
  4439                           l1217:
  4440  001822                     	goto	l2738
  4441  001822  EF13  F00C         	line	156
  4442                           	
  4443                           l1216:
  4444  001826                     	line	159
  4445                           	
  4446                           l2738:
  4447  001826                     	btfsc	((c:___fldiv@new_exp+1)),c,7
  4448  001826  BE21               	goto	u2961
  4449  001828  EF1E  F00C         	movf	((c:___fldiv@new_exp+1)),c,w
  4450  00182C  5021               	bnz	u2960
  4451  00182E  E108               	incf	((c:___fldiv@new_exp)),c,w
  4452  001830  2820               	btfss	status,0
  4453  001832  A0D8               	goto	u2961
  4454  001834  EF1E  F00C         	goto	u2960
  4455  001838  EF20  F00C         
  4456                           u2961:
  4457  00183C                     	goto	l2742
  4458  00183C  EF2D  F00C         u2960:
  4459  001840                     	line	160
  4460                           	
  4461                           l2740:
  4462  001840                     	movlw	high(0FFh)
  4463  001840  0E00               	movwf	((c:___fldiv@new_exp+1)),c
  4464  001842  6E21               	setf	((c:___fldiv@new_exp)),c
  4465  001844  6820               	line	161
  4466                           	movlw	low(0)
  4467  001846  0E00               	movwf	((c:___fldiv@b)),c
  4468  001848  6E0F               	movlw	high(0)
  4469  00184A  0E00               	movwf	((c:___fldiv@b+1)),c
  4470  00184C  6E10               	movlw	low highword(0)
  4471  00184E  0E00               	movwf	((c:___fldiv@b+2)),c
  4472  001850  6E11               	movlw	high highword(0)
  4473  001852  0E00               	movwf	((c:___fldiv@b+3)),c
  4474  001854  6E12               	goto	l2742
  4475  001856  EF2D  F00C         	line	162
  4476                           	
  4477                           l1218:
  4478  00185A                     	line	165
  4479                           	
  4480                           l2742:
  4481  00185A                     	btfsc	((c:___fldiv@new_exp+1)),c,7
  4482  00185A  BE21               	goto	u2970
  4483  00185C  EF3A  F00C         	movf	((c:___fldiv@new_exp+1)),c,w
  4484  001860  5021               	bnz	u2971
  4485  001862  E106               	decf	((c:___fldiv@new_exp)),c,w
  4486  001864  0420               	btfsc	status,0
  4487  001866  B0D8               	goto	u2971
  4488  001868  EF38  F00C         	goto	u2970
  4489  00186C  EF3A  F00C         
  4490                           u2971:
  4491  001870                     	goto	l2746
  4492  001870  EF4A  F00C         u2970:
  4493  001874                     	line	166
  4494                           	
  4495                           l2744:
  4496  001874                     	movlw	high(0)
  4497  001874  0E00               	movwf	((c:___fldiv@new_exp+1)),c
  4498  001876  6E21               	movlw	low(0)
  4499  001878  0E00               	movwf	((c:___fldiv@new_exp)),c
  4500  00187A  6E20               	line	167
  4501                           	movlw	low(0)
  4502  00187C  0E00               	movwf	((c:___fldiv@b)),c
  4503  00187E  6E0F               	movlw	high(0)
  4504  001880  0E00               	movwf	((c:___fldiv@b+1)),c
  4505  001882  6E10               	movlw	low highword(0)
  4506  001884  0E00               	movwf	((c:___fldiv@b+2)),c
  4507  001886  6E11               	movlw	high highword(0)
  4508  001888  0E00               	movwf	((c:___fldiv@b+3)),c
  4509  00188A  6E12               	line	169
  4510                           	movlw	low(0)
  4511  00188C  0E00               	movwf	((c:___fldiv@sign)),c
  4512  00188E  6E1F               	goto	l2746
  4513  001890  EF4A  F00C         	line	170
  4514                           	
  4515                           l1219:
  4516  001894                     	line	173
  4517                           	
  4518                           l2746:
  4519  001894                     	movff	(c:___fldiv@new_exp),(c:___fldiv@bexp)
  4520  001894  C020  F026         	line	175
  4521                           	
  4522                           l2748:
  4523  001898                     	
  4524                           	btfss	((c:___fldiv@bexp)),c,(0)&7
  4525  001898  A026               	goto	u2981
  4526  00189A  EF51  F00C         	goto	u2980
  4527  00189E  EF53  F00C         u2981:
  4528  0018A2                     	goto	l2752
  4529  0018A2  EF56  F00C         u2980:
  4530  0018A6                     	line	176
  4531                           	
  4532                           l2750:
  4533  0018A6                     	bsf	(0+(7/8)+0+((c:___fldiv@b)+02h)),c,(7)&7
  4534  0018A6  8E11               	line	177
  4535                           	goto	l2754
  4536  0018A8  EF59  F00C         	line	179
  4537                           	
  4538                           l1220:
  4539  0018AC                     	line	180
  4540                           	
  4541                           l2752:
  4542  0018AC                     	bcf	(0+(7/8)+0+((c:___fldiv@b)+02h)),c,(7)&7
  4543  0018AC  9E11               	goto	l2754
  4544  0018AE  EF59  F00C         	line	181
  4545                           	
  4546                           l1221:
  4547  0018B2                     	line	182
  4548                           	
  4549                           l2754:
  4550  0018B2                     	bcf	status,0
  4551  0018B2  90D8               	rrcf	((c:___fldiv@bexp)),c,w
  4552  0018B4  3026               	movwf	(0+((c:___fldiv@b)+03h)),c
  4553  0018B6  6E12               	line	183
  4554                           	
  4555                           l2756:
  4556  0018B8                     	movf	((c:___fldiv@sign)),c,w
  4557  0018B8  501F               	iorwf	(0+((c:___fldiv@b)+03h)),c
  4558  0018BA  1212               	line	184
  4559                           	
  4560                           l2758:
  4561  0018BC                     	movff	(c:___fldiv@b),(c:?___fldiv)
  4562  0018BC  C00F  F00F         	movff	(c:___fldiv@b+1),(c:?___fldiv+1)
  4563  0018C0  C010  F010         	movff	(c:___fldiv@b+2),(c:?___fldiv+2)
  4564  0018C4  C011  F011         	movff	(c:___fldiv@b+3),(c:?___fldiv+3)
  4565  0018C8  C012  F012         	goto	l1199
  4566  0018CC  EF68  F00C         	
  4567                           l2760:
  4568  0018D0                     	line	185
  4569                           	
  4570                           l1199:
  4571  0018D0                     	return	;funcret
  4572  0018D0  0012               	opt stack 0
  4573                           GLOBAL	__end_of___fldiv
  4574                           	__end_of___fldiv:
  4575  0018D2                     	signat	___fldiv,8316
  4576                           	global	___fladd
  4577                           
  4578 ;; *************** function ___fladd *****************
  4579 ;; Defined at:
  4580 ;;		line 10 in file "C:\Program Files (x86)\Microchip\xc8\v2.00\pic\sources\c99\common\sprcadd.c"
  4581 ;; Parameters:    Size  Location     Type
  4582 ;;  b               4   39[COMRAM] unsigned char 
  4583 ;;  a               4   43[COMRAM] unsigned char 
  4584 ;; Auto vars:     Size  Location     Type
  4585 ;;  grs             1   58[COMRAM] unsigned char 
  4586 ;;  bexp            1   57[COMRAM] unsigned char 
  4587 ;;  aexp            1   56[COMRAM] unsigned char 
  4588 ;;  signs           1   55[COMRAM] unsigned char 
  4589 ;; Return value:  Size  Location     Type
  4590 ;;                  4   39[COMRAM] unsigned char 
  4591 ;; Registers used:
  4592 ;;		wreg, status,2, status,0
  4593 ;; Tracked objects:
  4594 ;;		On entry : 0/0
  4595 ;;		On exit  : 0/0
  4596 ;;		Unchanged: 0/0
  4597 ;; Data sizes:     COMRAM   BANK0   BANK1   BANK2   BANK3   BANK4   BANK5   BANK6   BANK7
  4598 ;;      Params:         8       0       0       0       0       0       0       0       0
  4599 ;;      Locals:         4       0       0       0       0       0       0       0       0
  4600 ;;      Temps:          8       0       0       0       0       0       0       0       0
  4601 ;;      Totals:        20       0       0       0       0       0       0       0       0
  4602 ;;Total ram usage:       20 bytes
  4603 ;; Hardware stack levels used:    1
  4604 ;; Hardware stack levels required when called:    1
  4605 ;; This function calls:
  4606 ;;		Nothing
  4607 ;; This function is called by:
  4608 ;;		_USART_Init
  4609 ;;		_Time
  4610 ;;		_PulseIn
  4611 ;;		_Frequency
  4612 ;;		_rescale
  4613 ;; This function uses a non-reentrant model
  4614 ;;
  4615                           psect	text10,class=CODE,space=0,reloc=2,group=1
  4616                           	file	"C:\Program Files (x86)\Microchip\xc8\v2.00\pic\sources\c99\common\sprcadd.c"
  4617                           	line	10
  4618                           global __ptext10
  4619                           __ptext10:
  4620  000F2E                     psect	text10
  4621                           	file	"C:\Program Files (x86)\Microchip\xc8\v2.00\pic\sources\c99\common\sprcadd.c"
  4622                           	line	10
  4623                           	global	__size_of___fladd
  4624                           	__size_of___fladd	equ	__end_of___fladd-___fladd
  4625  0000                     	
  4626                           ___fladd:
  4627  000F2E                     ;incstack = 0
  4628                           	opt	stack 26
  4629                           	line	21
  4630                           	
  4631                           l2422:
  4632  000F2E                     	movf	(0+((c:___fladd@b)+03h)),c,w
  4633  000F2E  502B               	andlw	low(080h)
  4634  000F30  0B80               	movwf	((c:___fladd@signs)),c
  4635  000F32  6E38               	line	22
  4636                           	movf	(0+((c:___fladd@b)+03h)),c,w
  4637  000F34  502B               	addwf	(0+((c:___fladd@b)+03h)),c,w
  4638  000F36  242B               	movwf	((c:___fladd@bexp)),c
  4639  000F38  6E3A               	line	23
  4640                           	
  4641                           l2424:
  4642  000F3A                     	
  4643                           	btfss	(0+((c:___fladd@b)+02h)),c,(7)&7
  4644  000F3A  AE2A               	goto	u2371
  4645  000F3C  EFA2  F007         	goto	u2370
  4646  000F40  EFA4  F007         u2371:
  4647  000F44                     	goto	l2428
  4648  000F44  EFA7  F007         u2370:
  4649  000F48                     	line	24
  4650                           	
  4651                           l2426:
  4652  000F48                     	bsf	(0+(0/8)+(c:___fladd@bexp)),c,(0)&7
  4653  000F48  803A               	goto	l2428
  4654  000F4A  EFA7  F007         	line	25
  4655                           	
  4656                           l1133:
  4657  000F4E                     	line	28
  4658                           	
  4659                           l2428:
  4660  000F4E                     	movf	((c:___fladd@bexp)),c,w
  4661  000F4E  503A               	btfsc	status,2
  4662  000F50  B4D8               	goto	u2381
  4663  000F52  EFAD  F007         	goto	u2380
  4664  000F56  EFAF  F007         u2381:
  4665  000F5A                     	goto	l2438
  4666  000F5A  EFC6  F007         u2380:
  4667  000F5E                     	line	30
  4668                           	
  4669                           l2430:
  4670  000F5E                     		incf	((c:___fladd@bexp)),c,w
  4671  000F5E  283A               	btfss	status,2
  4672  000F60  A4D8               	goto	u2391
  4673  000F62  EFB5  F007         	goto	u2390
  4674  000F66  EFB7  F007         
  4675                           u2391:
  4676  000F6A                     	goto	l2434
  4677  000F6A  EFC1  F007         u2390:
  4678  000F6E                     	line	32
  4679                           	
  4680                           l2432:
  4681  000F6E                     	movlw	low(normalize32(0x0))
  4682  000F6E  0E00               	movwf	((c:___fladd@b)),c
  4683  000F70  6E28               	movlw	high(normalize32(0x0))
  4684  000F72  0E00               	movwf	((c:___fladd@b+1)),c
  4685  000F74  6E29               	movlw	low highword(normalize32(0x0))
  4686  000F76  0E00               	movwf	((c:___fladd@b+2)),c
  4687  000F78  6E2A               	movlw	high highword(normalize32(0x0))
  4688  000F7A  0E00               	movwf	((c:___fladd@b+3)),c
  4689  000F7C  6E2B               	goto	l2434
  4690  000F7E  EFC1  F007         	line	33
  4691                           	
  4692                           l1135:
  4693  000F82                     	line	35
  4694                           	
  4695                           l2434:
  4696  000F82                     	bsf	(0+(23/8)+(c:___fladd@b)),c,(23)&7
  4697  000F82  8E2A               	line	37
  4698                           	
  4699                           l2436:
  4700  000F84                     	movlw	low(0)
  4701  000F84  0E00               	movwf	(0+((c:___fladd@b)+03h)),c
  4702  000F86  6E2B               	line	38
  4703                           	goto	l2440
  4704  000F88  EFD0  F007         	line	39
  4705                           	
  4706                           l1134:
  4707  000F8C                     	line	41
  4708                           	
  4709                           l2438:
  4710  000F8C                     	movlw	low(normalize32(0x0))
  4711  000F8C  0E00               	movwf	((c:___fladd@b)),c
  4712  000F8E  6E28               	movlw	high(normalize32(0x0))
  4713  000F90  0E00               	movwf	((c:___fladd@b+1)),c
  4714  000F92  6E29               	movlw	low highword(normalize32(0x0))
  4715  000F94  0E00               	movwf	((c:___fladd@b+2)),c
  4716  000F96  6E2A               	movlw	high highword(normalize32(0x0))
  4717  000F98  0E00               	movwf	((c:___fladd@b+3)),c
  4718  000F9A  6E2B               	goto	l2440
  4719  000F9C  EFD0  F007         	line	42
  4720                           	
  4721                           l1136:
  4722  000FA0                     	line	44
  4723                           	
  4724                           l2440:
  4725  000FA0                     	movf	(0+((c:___fladd@a)+03h)),c,w
  4726  000FA0  502F               	andlw	low(080h)
  4727  000FA2  0B80               	movwf	((c:___fladd@aexp)),c
  4728  000FA4  6E39               	line	46
  4729                           	
  4730                           l2442:
  4731  000FA6                     	movf	((c:___fladd@signs)),c,w
  4732  000FA6  5038               xorwf	((c:___fladd@aexp)),c,w
  4733  000FA8  1839               	btfsc	status,2
  4734  000FAA  B4D8               	goto	u2401
  4735  000FAC  EFDA  F007         	goto	u2400
  4736  000FB0  EFDC  F007         
  4737                           u2401:
  4738  000FB4                     	goto	l2446
  4739  000FB4  EFDF  F007         u2400:
  4740  000FB8                     	line	47
  4741                           	
  4742                           l2444:
  4743  000FB8                     	bsf	(0+(6/8)+(c:___fladd@signs)),c,(6)&7
  4744  000FB8  8C38               	goto	l2446
  4745  000FBA  EFDF  F007         	line	48
  4746                           	
  4747                           l1137:
  4748  000FBE                     	line	49
  4749                           	
  4750                           l2446:
  4751  000FBE                     	movf	(0+((c:___fladd@a)+03h)),c,w
  4752  000FBE  502F               	addwf	(0+((c:___fladd@a)+03h)),c,w
  4753  000FC0  242F               	movwf	((c:___fladd@aexp)),c
  4754  000FC2  6E39               	line	50
  4755                           	
  4756                           l2448:
  4757  000FC4                     	
  4758                           	btfss	(0+((c:___fladd@a)+02h)),c,(7)&7
  4759  000FC4  AE2E               	goto	u2411
  4760  000FC6  EFE7  F007         	goto	u2410
  4761  000FCA  EFE9  F007         u2411:
  4762  000FCE                     	goto	l2452
  4763  000FCE  EFEC  F007         u2410:
  4764  000FD2                     	line	51
  4765                           	
  4766                           l2450:
  4767  000FD2                     	bsf	(0+(0/8)+(c:___fladd@aexp)),c,(0)&7
  4768  000FD2  8039               	goto	l2452
  4769  000FD4  EFEC  F007         	line	52
  4770                           	
  4771                           l1138:
  4772  000FD8                     	line	55
  4773                           	
  4774                           l2452:
  4775  000FD8                     	movf	((c:___fladd@aexp)),c,w
  4776  000FD8  5039               	btfsc	status,2
  4777  000FDA  B4D8               	goto	u2421
  4778  000FDC  EFF2  F007         	goto	u2420
  4779  000FE0  EFF4  F007         u2421:
  4780  000FE4                     	goto	l2462
  4781  000FE4  EF0B  F008         u2420:
  4782  000FE8                     	line	57
  4783                           	
  4784                           l2454:
  4785  000FE8                     		incf	((c:___fladd@aexp)),c,w
  4786  000FE8  2839               	btfss	status,2
  4787  000FEA  A4D8               	goto	u2431
  4788  000FEC  EFFA  F007         	goto	u2430
  4789  000FF0  EFFC  F007         
  4790                           u2431:
  4791  000FF4                     	goto	l2458
  4792  000FF4  EF06  F008         u2430:
  4793  000FF8                     	line	59
  4794                           	
  4795                           l2456:
  4796  000FF8                     	movlw	low(normalize32(0x0))
  4797  000FF8  0E00               	movwf	((c:___fladd@a)),c
  4798  000FFA  6E2C               	movlw	high(normalize32(0x0))
  4799  000FFC  0E00               	movwf	((c:___fladd@a+1)),c
  4800  000FFE  6E2D               	movlw	low highword(normalize32(0x0))
  4801  001000  0E00               	movwf	((c:___fladd@a+2)),c
  4802  001002  6E2E               	movlw	high highword(normalize32(0x0))
  4803  001004  0E00               	movwf	((c:___fladd@a+3)),c
  4804  001006  6E2F               	goto	l2458
  4805  001008  EF06  F008         	line	60
  4806                           	
  4807                           l1140:
  4808  00100C                     	line	62
  4809                           	
  4810                           l2458:
  4811  00100C                     	bsf	(0+(23/8)+(c:___fladd@a)),c,(23)&7
  4812  00100C  8E2E               	line	64
  4813                           	
  4814                           l2460:
  4815  00100E                     	movlw	low(0)
  4816  00100E  0E00               	movwf	(0+((c:___fladd@a)+03h)),c
  4817  001010  6E2F               	line	65
  4818                           	goto	l2464
  4819  001012  EF15  F008         	line	66
  4820                           	
  4821                           l1139:
  4822  001016                     	line	68
  4823                           	
  4824                           l2462:
  4825  001016                     	movlw	low(normalize32(0x0))
  4826  001016  0E00               	movwf	((c:___fladd@a)),c
  4827  001018  6E2C               	movlw	high(normalize32(0x0))
  4828  00101A  0E00               	movwf	((c:___fladd@a+1)),c
  4829  00101C  6E2D               	movlw	low highword(normalize32(0x0))
  4830  00101E  0E00               	movwf	((c:___fladd@a+2)),c
  4831  001020  6E2E               	movlw	high highword(normalize32(0x0))
  4832  001022  0E00               	movwf	((c:___fladd@a+3)),c
  4833  001024  6E2F               	goto	l2464
  4834  001026  EF15  F008         	line	69
  4835                           	
  4836                           l1141:
  4837  00102A                     	line	75
  4838                           	
  4839                           l2464:
  4840  00102A                     		movf	((c:___fladd@bexp)),c,w
  4841  00102A  503A               	subwf	((c:___fladd@aexp)),c,w
  4842  00102C  5C39               	btfsc	status,0
  4843  00102E  B0D8               	goto	u2441
  4844  001030  EF1C  F008         	goto	u2440
  4845  001034  EF1E  F008         
  4846                           u2441:
  4847  001038                     	goto	l2500
  4848  001038  EF49  F008         u2440:
  4849  00103C                     	line	77
  4850                           	
  4851                           l2466:
  4852  00103C                     	
  4853                           	btfss	((c:___fladd@signs)),c,(6)&7
  4854  00103C  AC38               	goto	u2451
  4855  00103E  EF23  F008         	goto	u2450
  4856  001042  EF25  F008         u2451:
  4857  001046                     	goto	l2470
  4858  001046  EF29  F008         u2450:
  4859  00104A                     	line	78
  4860                           	
  4861                           l2468:
  4862  00104A                     	movlw	(080h)&0ffh
  4863  00104A  0E80               	xorwf	((c:___fladd@signs)),c
  4864  00104C  1A38               	goto	l2470
  4865  00104E  EF29  F008         	line	79
  4866                           	
  4867                           l1143:
  4868  001052                     	line	81
  4869                           	
  4870                           l2470:
  4871  001052                     	movff	(c:___fladd@bexp),(c:___fladd@grs)
  4872  001052  C03A  F03B         	line	82
  4873                           	
  4874                           l2472:
  4875  001056                     	movff	(c:___fladd@aexp),(c:___fladd@bexp)
  4876  001056  C039  F03A         	line	83
  4877                           	
  4878                           l2474:
  4879  00105A                     	movff	(c:___fladd@grs),(c:___fladd@aexp)
  4880  00105A  C03B  F039         	line	84
  4881                           	
  4882                           l2476:
  4883  00105E                     	movff	(c:___fladd@b),(c:___fladd@grs)
  4884  00105E  C028  F03B         	line	85
  4885                           	
  4886                           l2478:
  4887  001062                     	movff	(c:___fladd@a),(c:___fladd@b)
  4888  001062  C02C  F028         	line	86
  4889                           	
  4890                           l2480:
  4891  001066                     	movff	(c:___fladd@grs),(c:___fladd@a)
  4892  001066  C03B  F02C         	line	87
  4893                           	
  4894                           l2482:
  4895  00106A                     	movff	0+((c:___fladd@b)+01h),(c:___fladd@grs)
  4896  00106A  C029  F03B         	line	88
  4897                           	
  4898                           l2484:
  4899  00106E                     	movff	0+((c:___fladd@a)+01h),0+((c:___fladd@b)+01h)
  4900  00106E  C02D  F029         	line	89
  4901                           	
  4902                           l2486:
  4903  001072                     	movff	(c:___fladd@grs),0+((c:___fladd@a)+01h)
  4904  001072  C03B  F02D         	line	90
  4905                           	
  4906                           l2488:
  4907  001076                     	movff	0+((c:___fladd@b)+02h),(c:___fladd@grs)
  4908  001076  C02A  F03B         	line	91
  4909                           	
  4910                           l2490:
  4911  00107A                     	movff	0+((c:___fladd@a)+02h),0+((c:___fladd@b)+02h)
  4912  00107A  C02E  F02A         	line	92
  4913                           	
  4914                           l2492:
  4915  00107E                     	movff	(c:___fladd@grs),0+((c:___fladd@a)+02h)
  4916  00107E  C03B  F02E         	line	93
  4917                           	
  4918                           l2494:
  4919  001082                     	movff	0+((c:___fladd@b)+03h),(c:___fladd@grs)
  4920  001082  C02B  F03B         	line	94
  4921                           	
  4922                           l2496:
  4923  001086                     	movff	0+((c:___fladd@a)+03h),0+((c:___fladd@b)+03h)
  4924  001086  C02F  F02B         	line	95
  4925                           	
  4926                           l2498:
  4927  00108A                     	movff	(c:___fladd@grs),0+((c:___fladd@a)+03h)
  4928  00108A  C03B  F02F         	goto	l2500
  4929  00108E  EF49  F008         	line	96
  4930                           	
  4931                           l1142:
  4932  001092                     	line	98
  4933                           	
  4934                           l2500:
  4935  001092                     	movlw	low(0)
  4936  001092  0E00               	movwf	((c:___fladd@grs)),c
  4937  001094  6E3B               	line	100
  4938                           	
  4939                           l2502:
  4940  001096                     	movf	((c:___fladd@bexp)),c,w
  4941  001096  503A               	movwf	(??___fladd+0+0)&0ffh,c
  4942  001098  6E30               	clrf	(??___fladd+0+0+1)&0ffh,c
  4943  00109A  6A31               
  4944                           	comf	(??___fladd+0+0),c
  4945  00109C  1E30               	comf	(??___fladd+0+1),c
  4946  00109E  1E31               	infsnz	(??___fladd+0+0),c
  4947  0010A0  4A30               	incf	(??___fladd+0+1),c
  4948  0010A2  2A31               	movf	((c:___fladd@aexp)),c,w
  4949  0010A4  5039               	movwf	(??___fladd+2+0)&0ffh,c
  4950  0010A6  6E32               	clrf	(??___fladd+2+0+1)&0ffh,c
  4951  0010A8  6A33               
  4952                           	movf	(??___fladd+0+0),c,w
  4953  0010AA  5030               	addwf	(??___fladd+2+0),c
  4954  0010AC  2632               	movf	(??___fladd+0+1),c,w
  4955  0010AE  5031               	addwfc	(??___fladd+2+1),c
  4956  0010B0  2233               	btfsc	(??___fladd+2+1),c,7
  4957  0010B2  BE33               	goto	u2461
  4958  0010B4  EF65  F008         	movf	(??___fladd+2+1),c,w
  4959  0010B8  5033               	bnz	u2460
  4960  0010BA  E109               	movlw	26
  4961  0010BC  0E1A               	subwf	 (??___fladd+2+0),c,w
  4962  0010BE  5C32               	btfss	status,0
  4963  0010C0  A0D8               	goto	u2461
  4964  0010C2  EF65  F008         	goto	u2460
  4965  0010C6  EF67  F008         
  4966                           u2461:
  4967  0010CA                     	goto	l1146
  4968  0010CA  EFA4  F008         u2460:
  4969  0010CE                     	line	101
  4970                           	
  4971                           l2504:
  4972  0010CE                     	movf	((c:___fladd@b)),c,w
  4973  0010CE  5028               iorwf	((c:___fladd@b+1)),c,w
  4974  0010D0  1029               iorwf	((c:___fladd@b+2)),c,w
  4975  0010D2  102A               iorwf	((c:___fladd@b+3)),c,w
  4976  0010D4  102B               	btfss	status,2
  4977  0010D6  A4D8               	goto	u2471
  4978  0010D8  EF70  F008         	goto	u2470
  4979  0010DC  EF73  F008         
  4980                           u2471:
  4981  0010E0                     	movlw	1
  4982  0010E0  0E01               	goto	u2480
  4983  0010E2  EF74  F008         u2470:
  4984  0010E6                     	movlw	0
  4985  0010E6  0E00               u2480:
  4986  0010E8                     	movwf	((c:___fladd@grs)),c
  4987  0010E8  6E3B               	line	102
  4988                           	
  4989                           l2506:
  4990  0010EA                     	movlw	low(0)
  4991  0010EA  0E00               	movwf	((c:___fladd@b)),c
  4992  0010EC  6E28               	movlw	high(0)
  4993  0010EE  0E00               	movwf	((c:___fladd@b+1)),c
  4994  0010F0  6E29               	movlw	low highword(0)
  4995  0010F2  0E00               	movwf	((c:___fladd@b+2)),c
  4996  0010F4  6E2A               	movlw	high highword(0)
  4997  0010F6  0E00               	movwf	((c:___fladd@b+3)),c
  4998  0010F8  6E2B               	line	103
  4999                           	
  5000                           l2508:
  5001  0010FA                     	movff	(c:___fladd@aexp),(c:___fladd@bexp)
  5002  0010FA  C039  F03A         	line	104
  5003                           	goto	l1145
  5004  0010FE  EFAF  F008         	line	105
  5005                           	
  5006                           l1144:
  5007  001102                     	line	106
  5008                           	goto	l1146
  5009  001102  EFA4  F008         	
  5010                           l1147:
  5011  001106                     	line	109
  5012                           	
  5013                           	btfss	((c:___fladd@grs)),c,(0)&7
  5014  001106  A03B               	goto	u2491
  5015  001108  EF88  F008         	goto	u2490
  5016  00110C  EF8A  F008         u2491:
  5017  001110                     	goto	l2512
  5018  001110  EF90  F008         u2490:
  5019  001114                     	line	110
  5020                           	
  5021                           l2510:
  5022  001114                     	bcf	status,0
  5023  001114  90D8               	rrcf	((c:___fladd@grs)),c,w
  5024  001116  303B               	iorlw	low(01h)
  5025  001118  0901               	movwf	((c:___fladd@grs)),c
  5026  00111A  6E3B               	line	111
  5027                           	goto	l2514
  5028  00111C  EF94  F008         	line	112
  5029                           	
  5030                           l1148:
  5031  001120                     	line	113
  5032                           	
  5033                           l2512:
  5034  001120                     	bcf status,0
  5035  001120  90D8               	rrcf	((c:___fladd@grs)),c
  5036  001122  323B               
  5037                           	goto	l2514
  5038  001124  EF94  F008         	line	114
  5039                           	
  5040                           l1149:
  5041  001128                     	line	115
  5042                           	
  5043                           l2514:
  5044  001128                     	
  5045                           	btfss	((c:___fladd@b)),c,(0)&7
  5046  001128  A028               	goto	u2501
  5047  00112A  EF99  F008         	goto	u2500
  5048  00112E  EF9B  F008         u2501:
  5049  001132                     	goto	l2518
  5050  001132  EF9E  F008         u2500:
  5051  001136                     	line	116
  5052                           	
  5053                           l2516:
  5054  001136                     	bsf	(0+(7/8)+(c:___fladd@grs)),c,(7)&7
  5055  001136  8E3B               	goto	l2518
  5056  001138  EF9E  F008         	line	117
  5057                           	
  5058                           l1150:
  5059  00113C                     	line	118
  5060                           	
  5061                           l2518:
  5062  00113C                     	rlcf	((c:___fladd@b+3)),c,w
  5063  00113C  342B               	rrcf	((c:___fladd@b+3)),c
  5064  00113E  322B               	rrcf	((c:___fladd@b+2)),c
  5065  001140  322A               	rrcf	((c:___fladd@b+1)),c
  5066  001142  3229               	rrcf	((c:___fladd@b)),c
  5067  001144  3228               	line	119
  5068                           	
  5069                           l2520:
  5070  001146                     	incf	((c:___fladd@bexp)),c
  5071  001146  2A3A               	line	120
  5072                           	
  5073                           l1146:
  5074  001148                     	line	106
  5075                           		movf	((c:___fladd@aexp)),c,w
  5076  001148  5039               	subwf	((c:___fladd@bexp)),c,w
  5077  00114A  5C3A               	btfss	status,0
  5078  00114C  A0D8               	goto	u2511
  5079  00114E  EFAB  F008         	goto	u2510
  5080  001152  EFAD  F008         
  5081                           u2511:
  5082  001156                     	goto	l1147
  5083  001156  EF83  F008         u2510:
  5084  00115A                     	goto	l1145
  5085  00115A  EFAF  F008         	
  5086                           l1151:
  5087  00115E                     	line	121
  5088                           	
  5089                           l1145:
  5090  00115E                     	line	124
  5091                           	
  5092                           	btfsc	((c:___fladd@signs)),c,(6)&7
  5093  00115E  BC38               	goto	u2521
  5094  001160  EFB4  F008         	goto	u2520
  5095  001164  EFB6  F008         u2521:
  5096  001168                     	goto	l2546
  5097  001168  EFFE  F008         u2520:
  5098  00116C                     	line	127
  5099                           	
  5100                           l2522:
  5101  00116C                     	movf	((c:___fladd@bexp)),c,w
  5102  00116C  503A               	btfss	status,2
  5103  00116E  A4D8               	goto	u2531
  5104  001170  EFBC  F008         	goto	u2530
  5105  001174  EFBE  F008         u2531:
  5106  001178                     	goto	l2528
  5107  001178  EFCA  F008         u2530:
  5108  00117C                     	line	128
  5109                           	
  5110                           l2524:
  5111  00117C                     	movlw	low(normalize32(0x0))
  5112  00117C  0E00               	movwf	((c:?___fladd)),c
  5113  00117E  6E28               	movlw	high(normalize32(0x0))
  5114  001180  0E00               	movwf	((c:?___fladd+1)),c
  5115  001182  6E29               	movlw	low highword(normalize32(0x0))
  5116  001184  0E00               	movwf	((c:?___fladd+2)),c
  5117  001186  6E2A               	movlw	high highword(normalize32(0x0))
  5118  001188  0E00               	movwf	((c:?___fladd+3)),c
  5119  00118A  6E2B               	goto	l1154
  5120  00118C  EF58  F00A         	
  5121                           l2526:
  5122  001190                     	goto	l1154
  5123  001190  EF58  F00A         	line	129
  5124                           	
  5125                           l1153:
  5126  001194                     	line	132
  5127                           	
  5128                           l2528:
  5129  001194                     	movf	((c:___fladd@a)),c,w
  5130  001194  502C               	addwf	((c:___fladd@b)),c
  5131  001196  2628               	movf	((c:___fladd@a+1)),c,w
  5132  001198  502D               	addwfc	((c:___fladd@b+1)),c
  5133  00119A  2229               	movf	((c:___fladd@a+2)),c,w
  5134  00119C  502E               	addwfc	((c:___fladd@b+2)),c
  5135  00119E  222A               	movf	((c:___fladd@a+3)),c,w
  5136  0011A0  502F               	addwfc	((c:___fladd@b+3)),c
  5137  0011A2  222B               	line	134
  5138                           	
  5139                           l2530:
  5140  0011A4                     	
  5141                           	btfss	((c:___fladd@b+3)),c,(24)&7
  5142  0011A4  A02B               	goto	u2541
  5143  0011A6  EFD7  F008         	goto	u2540
  5144  0011AA  EFD9  F008         u2541:
  5145  0011AE                     	goto	l2582
  5146  0011AE  EFAE  F009         u2540:
  5147  0011B2                     	line	135
  5148                           	
  5149                           l2532:
  5150  0011B2                     	
  5151                           	btfss	((c:___fladd@grs)),c,(0)&7
  5152  0011B2  A03B               	goto	u2551
  5153  0011B4  EFDE  F008         	goto	u2550
  5154  0011B8  EFE0  F008         u2551:
  5155  0011BC                     	goto	l2536
  5156  0011BC  EFE6  F008         u2550:
  5157  0011C0                     	line	136
  5158                           	
  5159                           l2534:
  5160  0011C0                     	bcf	status,0
  5161  0011C0  90D8               	rrcf	((c:___fladd@grs)),c,w
  5162  0011C2  303B               	iorlw	low(01h)
  5163  0011C4  0901               	movwf	((c:___fladd@grs)),c
  5164  0011C6  6E3B               	line	137
  5165                           	goto	l2538
  5166  0011C8  EFEA  F008         	line	138
  5167                           	
  5168                           l1156:
  5169  0011CC                     	line	139
  5170                           	
  5171                           l2536:
  5172  0011CC                     	bcf status,0
  5173  0011CC  90D8               	rrcf	((c:___fladd@grs)),c
  5174  0011CE  323B               
  5175                           	goto	l2538
  5176  0011D0  EFEA  F008         	line	140
  5177                           	
  5178                           l1157:
  5179  0011D4                     	line	141
  5180                           	
  5181                           l2538:
  5182  0011D4                     	
  5183                           	btfss	((c:___fladd@b)),c,(0)&7
  5184  0011D4  A028               	goto	u2561
  5185  0011D6  EFEF  F008         	goto	u2560
  5186  0011DA  EFF1  F008         u2561:
  5187  0011DE                     	goto	l2542
  5188  0011DE  EFF4  F008         u2560:
  5189  0011E2                     	line	142
  5190                           	
  5191                           l2540:
  5192  0011E2                     	bsf	(0+(7/8)+(c:___fladd@grs)),c,(7)&7
  5193  0011E2  8E3B               	goto	l2542
  5194  0011E4  EFF4  F008         	line	143
  5195                           	
  5196                           l1158:
  5197  0011E8                     	line	144
  5198                           	
  5199                           l2542:
  5200  0011E8                     	rlcf	((c:___fladd@b+3)),c,w
  5201  0011E8  342B               	rrcf	((c:___fladd@b+3)),c
  5202  0011EA  322B               	rrcf	((c:___fladd@b+2)),c
  5203  0011EC  322A               	rrcf	((c:___fladd@b+1)),c
  5204  0011EE  3229               	rrcf	((c:___fladd@b)),c
  5205  0011F0  3228               	line	145
  5206                           	
  5207                           l2544:
  5208  0011F2                     	incf	((c:___fladd@bexp)),c
  5209  0011F2  2A3A               	goto	l2582
  5210  0011F4  EFAE  F009         	line	146
  5211                           	
  5212                           l1155:
  5213  0011F8                     	line	148
  5214                           	goto	l2582
  5215  0011F8  EFAE  F009         	line	149
  5216                           	
  5217                           l1152:
  5218  0011FC                     	line	153
  5219                           	
  5220                           l2546:
  5221  0011FC                     		movf	((c:___fladd@a)),c,w
  5222  0011FC  502C               	subwf	((c:___fladd@b)),c,w
  5223  0011FE  5C28               	movf	((c:___fladd@a+1)),c,w
  5224  001200  502D               	subwfb	((c:___fladd@b+1)),c,w
  5225  001202  5829               	movf	((c:___fladd@a+2)),c,w
  5226  001204  502E               	subwfb	((c:___fladd@b+2)),c,w
  5227  001206  582A               	movf	((c:___fladd@b+3)),c,w
  5228  001208  502B               	xorlw	80h
  5229  00120A  0A80               	movwf	(??___fladd+0+0)&0ffh,c
  5230  00120C  6E30               	movf	((c:___fladd@a+3)),c,w
  5231  00120E  502F               	xorlw	80h
  5232  001210  0A80               	subwfb	(??___fladd+0+0)&0ffh,c,w
  5233  001212  5830               	btfsc	status,0
  5234  001214  B0D8               	goto	u2571
  5235  001216  EF0F  F009         	goto	u2570
  5236  00121A  EF11  F009         
  5237                           u2571:
  5238  00121E                     	goto	l2556
  5239  00121E  EF4F  F009         u2570:
  5240  001222                     	line	154
  5241                           	
  5242                           l2548:
  5243  001222                     	movff	(c:___fladd@b),??___fladd+0+0
  5244  001222  C028  F030         	movff	(c:___fladd@b+1),??___fladd+0+0+1
  5245  001226  C029  F031         	movff	(c:___fladd@b+2),??___fladd+0+0+2
  5246  00122A  C02A  F032         	movff	(c:___fladd@b+3),??___fladd+0+0+3
  5247  00122E  C02B  F033         	comf	(??___fladd+0+0),c
  5248  001232  1E30               	comf	(??___fladd+0+1),c
  5249  001234  1E31               	comf	(??___fladd+0+2),c
  5250  001236  1E32               	comf	(??___fladd+0+3),c
  5251  001238  1E33               	incf	(??___fladd+0+0),c
  5252  00123A  2A30               	movlw	0
  5253  00123C  0E00               	addwfc	(??___fladd+0+1),c
  5254  00123E  2231               	addwfc	(??___fladd+0+2),c
  5255  001240  2232               	addwfc	(??___fladd+0+3),c
  5256  001242  2233               	movf	((c:___fladd@a)),c,w
  5257  001244  502C               	addwf	(??___fladd+0+0),c,w
  5258  001246  2430               	movwf	(??___fladd+4+0)&0ffh,c
  5259  001248  6E34               	movf	((c:___fladd@a+1)),c,w
  5260  00124A  502D               	addwfc	(??___fladd+0+1),c,w
  5261  00124C  2031               	movwf	1+(??___fladd+4+0)&0ffh,c
  5262  00124E  6E35               	
  5263                           	movf	((c:___fladd@a+2)),c,w
  5264  001250  502E               	addwfc	(??___fladd+0+2),c,w
  5265  001252  2032               	movwf	2+(??___fladd+4+0)&0ffh,c
  5266  001254  6E36               	
  5267                           	movf	((c:___fladd@a+3)),c,w
  5268  001256  502F               	addwfc	(??___fladd+0+3),c,w
  5269  001258  2033               	movwf	3+(??___fladd+4+0)&0ffh,c
  5270  00125A  6E37               	movlw	0FFh
  5271  00125C  0EFF               	addwf	(??___fladd+4+0),c,w
  5272  00125E  2434               	movwf	((c:___fladd@b)),c
  5273  001260  6E28               	movlw	0FFh
  5274  001262  0EFF               	addwfc	(??___fladd+4+1),c,w
  5275  001264  2035               	movwf	1+((c:___fladd@b)),c
  5276  001266  6E29               	
  5277                           	movlw	0FFh
  5278  001268  0EFF               	addwfc	(??___fladd+4+2),c,w
  5279  00126A  2036               	movwf	2+((c:___fladd@b)),c
  5280  00126C  6E2A               	
  5281                           	movlw	0FFh
  5282  00126E  0EFF               	addwfc	(??___fladd+4+3),c,w
  5283  001270  2037               	movwf	3+((c:___fladd@b)),c
  5284  001272  6E2B               	line	155
  5285                           	movlw	(080h)&0ffh
  5286  001274  0E80               	xorwf	((c:___fladd@signs)),c
  5287  001276  1A38               	line	156
  5288                           	
  5289                           l2550:
  5290  001278                     	negf	((c:___fladd@grs)),c
  5291  001278  6C3B               	line	157
  5292                           	
  5293                           l2552:
  5294  00127A                     	movf	((c:___fladd@grs)),c,w
  5295  00127A  503B               	btfss	status,2
  5296  00127C  A4D8               	goto	u2581
  5297  00127E  EF43  F009         	goto	u2580
  5298  001282  EF45  F009         u2581:
  5299  001286                     	goto	l1162
  5300  001286  EF57  F009         u2580:
  5301  00128A                     	line	158
  5302                           	
  5303                           l2554:
  5304  00128A                     	movlw	low(01h)
  5305  00128A  0E01               	addwf	((c:___fladd@b)),c
  5306  00128C  2628               	movlw	0
  5307  00128E  0E00               	addwfc	((c:___fladd@b+1)),c
  5308  001290  2229               	addwfc	((c:___fladd@b+2)),c
  5309  001292  222A               	addwfc	((c:___fladd@b+3)),c
  5310  001294  222B               	goto	l1162
  5311  001296  EF57  F009         	line	159
  5312                           	
  5313                           l1161:
  5314  00129A                     	line	160
  5315                           	goto	l1162
  5316  00129A  EF57  F009         	line	161
  5317                           	
  5318                           l1160:
  5319  00129E                     	line	162
  5320                           	
  5321                           l2556:
  5322  00129E                     	movf	((c:___fladd@a)),c,w
  5323  00129E  502C               	subwf	((c:___fladd@b)),c
  5324  0012A0  5E28               	movf	((c:___fladd@a+1)),c,w
  5325  0012A2  502D               	subwfb	((c:___fladd@b+1)),c
  5326  0012A4  5A29               	movf	((c:___fladd@a+2)),c,w
  5327  0012A6  502E               	subwfb	((c:___fladd@b+2)),c
  5328  0012A8  5A2A               	movf	((c:___fladd@a+3)),c,w
  5329  0012AA  502F               	subwfb	((c:___fladd@b+3)),c
  5330  0012AC  5A2B               	line	163
  5331                           	
  5332                           l1162:
  5333  0012AE                     	line	166
  5334                           	movf	((c:___fladd@b)),c,w
  5335  0012AE  5028               iorwf	((c:___fladd@b+1)),c,w
  5336  0012B0  1029               iorwf	((c:___fladd@b+2)),c,w
  5337  0012B2  102A               iorwf	((c:___fladd@b+3)),c,w
  5338  0012B4  102B               	btfss	status,2
  5339  0012B6  A4D8               	goto	u2591
  5340  0012B8  EF60  F009         	goto	u2590
  5341  0012BC  EF62  F009         
  5342                           u2591:
  5343  0012C0                     	goto	l2580
  5344  0012C0  EFA3  F009         u2590:
  5345  0012C4                     	
  5346                           l2558:
  5347  0012C4                     	movf	((c:___fladd@grs)),c,w
  5348  0012C4  503B               	btfss	status,2
  5349  0012C6  A4D8               	goto	u2601
  5350  0012C8  EF68  F009         	goto	u2600
  5351  0012CC  EF6A  F009         u2601:
  5352  0012D0                     	goto	l2580
  5353  0012D0  EFA3  F009         u2600:
  5354  0012D4                     	line	167
  5355                           	
  5356                           l2560:
  5357  0012D4                     	movlw	low(normalize32(0x0))
  5358  0012D4  0E00               	movwf	((c:?___fladd)),c
  5359  0012D6  6E28               	movlw	high(normalize32(0x0))
  5360  0012D8  0E00               	movwf	((c:?___fladd+1)),c
  5361  0012DA  6E29               	movlw	low highword(normalize32(0x0))
  5362  0012DC  0E00               	movwf	((c:?___fladd+2)),c
  5363  0012DE  6E2A               	movlw	high highword(normalize32(0x0))
  5364  0012E0  0E00               	movwf	((c:?___fladd+3)),c
  5365  0012E2  6E2B               	goto	l1154
  5366  0012E4  EF58  F00A         	
  5367                           l2562:
  5368  0012E8                     	goto	l1154
  5369  0012E8  EF58  F00A         	line	168
  5370                           	
  5371                           l1163:
  5372  0012EC                     	line	171
  5373                           	goto	l2580
  5374  0012EC  EFA3  F009         	
  5375                           l1165:
  5376  0012F0                     	line	172
  5377                           	
  5378                           l2564:
  5379  0012F0                     	bcf	status,0
  5380  0012F0  90D8               	rlcf	((c:___fladd@b)),c
  5381  0012F2  3628               	rlcf	((c:___fladd@b+1)),c
  5382  0012F4  3629               	rlcf	((c:___fladd@b+2)),c
  5383  0012F6  362A               	rlcf	((c:___fladd@b+3)),c
  5384  0012F8  362B               	line	173
  5385                           	
  5386                           l2566:
  5387  0012FA                     	
  5388                           	btfss	((c:___fladd@grs)),c,(7)&7
  5389  0012FA  AE3B               	goto	u2611
  5390  0012FC  EF82  F009         	goto	u2610
  5391  001300  EF84  F009         u2611:
  5392  001304                     	goto	l2570
  5393  001304  EF87  F009         u2610:
  5394  001308                     	line	174
  5395                           	
  5396                           l2568:
  5397  001308                     	bsf	(0+(0/8)+(c:___fladd@b)),c,(0)&7
  5398  001308  8028               	goto	l2570
  5399  00130A  EF87  F009         	line	175
  5400                           	
  5401                           l1166:
  5402  00130E                     	line	176
  5403                           	
  5404                           l2570:
  5405  00130E                     	
  5406                           	btfss	((c:___fladd@grs)),c,(0)&7
  5407  00130E  A03B               	goto	u2621
  5408  001310  EF8C  F009         	goto	u2620
  5409  001314  EF8E  F009         u2621:
  5410  001318                     	goto	l2574
  5411  001318  EF92  F009         u2620:
  5412  00131C                     	line	177
  5413                           	
  5414                           l2572:
  5415  00131C                     	bsf	status,0
  5416  00131C  80D8               	
  5417                           	rlcf	((c:___fladd@grs)),c
  5418  00131E  363B               	line	178
  5419                           	goto	l2576
  5420  001320  EF96  F009         	line	179
  5421                           	
  5422                           l1167:
  5423  001324                     	line	180
  5424                           	
  5425                           l2574:
  5426  001324                     	bcf status,0
  5427  001324  90D8               	rlcf	((c:___fladd@grs)),c
  5428  001326  363B               
  5429                           	goto	l2576
  5430  001328  EF96  F009         	line	181
  5431                           	
  5432                           l1168:
  5433  00132C                     	line	182
  5434                           	
  5435                           l2576:
  5436  00132C                     	movf	((c:___fladd@bexp)),c,w
  5437  00132C  503A               	btfsc	status,2
  5438  00132E  B4D8               	goto	u2631
  5439  001330  EF9C  F009         	goto	u2630
  5440  001334  EF9E  F009         u2631:
  5441  001338                     	goto	l2580
  5442  001338  EFA3  F009         u2630:
  5443  00133C                     	line	183
  5444                           	
  5445                           l2578:
  5446  00133C                     	decf	((c:___fladd@bexp)),c
  5447  00133C  063A               	goto	l2580
  5448  00133E  EFA3  F009         	line	184
  5449                           	
  5450                           l1169:
  5451  001342                     	goto	l2580
  5452  001342  EFA3  F009         	line	185
  5453                           	
  5454                           l1164:
  5455  001346                     	line	171
  5456                           	
  5457                           l2580:
  5458  001346                     	
  5459                           	btfss	((c:___fladd@b+2)),c,(23)&7
  5460  001346  AE2A               	goto	u2641
  5461  001348  EFA8  F009         	goto	u2640
  5462  00134C  EFAA  F009         u2641:
  5463  001350                     	goto	l2564
  5464  001350  EF78  F009         u2640:
  5465  001354                     	goto	l2582
  5466  001354  EFAE  F009         	
  5467                           l1170:
  5468  001358                     	goto	l2582
  5469  001358  EFAE  F009         	line	186
  5470                           	
  5471                           l1159:
  5472  00135C                     	line	192
  5473                           	
  5474                           l2582:
  5475  00135C                     	movlw	low(0)
  5476  00135C  0E00               	movwf	((c:___fladd@aexp)),c
  5477  00135E  6E39               	line	193
  5478                           	
  5479                           l2584:
  5480  001360                     	
  5481                           	btfss	((c:___fladd@grs)),c,(7)&7
  5482  001360  AE3B               	goto	u2651
  5483  001362  EFB5  F009         	goto	u2650
  5484  001366  EFB7  F009         u2651:
  5485  00136A                     	goto	l1171
  5486  00136A  EFD3  F009         u2650:
  5487  00136E                     	line	194
  5488                           	
  5489                           l2586:
  5490  00136E                     	movff	(c:___fladd@grs),??___fladd+0+0
  5491  00136E  C03B  F030         	movlw	07Fh
  5492  001372  0E7F               	andwf	(??___fladd+0+0),c
  5493  001374  1630               	btfsc	status,2
  5494  001376  B4D8               	goto	u2661
  5495  001378  EFC0  F009         	goto	u2660
  5496  00137C  EFC2  F009         u2661:
  5497  001380                     	goto	l1172
  5498  001380  EFC6  F009         u2660:
  5499  001384                     	line	195
  5500                           	
  5501                           l2588:
  5502  001384                     	movlw	low(01h)
  5503  001384  0E01               	movwf	((c:___fladd@aexp)),c
  5504  001386  6E39               	line	196
  5505                           	goto	l1171
  5506  001388  EFD3  F009         	line	197
  5507                           	
  5508                           l1172:
  5509  00138C                     	line	198
  5510                           	
  5511                           	btfss	((c:___fladd@b)),c,(0)&7
  5512  00138C  A028               	goto	u2671
  5513  00138E  EFCB  F009         	goto	u2670
  5514  001392  EFCD  F009         u2671:
  5515  001396                     	goto	l1171
  5516  001396  EFD3  F009         u2670:
  5517  00139A                     	line	199
  5518                           	
  5519                           l2590:
  5520  00139A                     	movlw	low(01h)
  5521  00139A  0E01               	movwf	((c:___fladd@aexp)),c
  5522  00139C  6E39               	goto	l1171
  5523  00139E  EFD3  F009         	line	200
  5524                           	
  5525                           l1174:
  5526  0013A2                     	goto	l1171
  5527  0013A2  EFD3  F009         	line	201
  5528                           	
  5529                           l1173:
  5530  0013A6                     	line	202
  5531                           	
  5532                           l1171:
  5533  0013A6                     	line	203
  5534                           	movf	((c:___fladd@aexp)),c,w
  5535  0013A6  5039               	btfsc	status,2
  5536  0013A8  B4D8               	goto	u2681
  5537  0013AA  EFD9  F009         	goto	u2680
  5538  0013AE  EFDB  F009         u2681:
  5539  0013B2                     	goto	l2600
  5540  0013B2  EF0C  F00A         u2680:
  5541  0013B6                     	line	204
  5542                           	
  5543                           l2592:
  5544  0013B6                     	movlw	low(01h)
  5545  0013B6  0E01               	addwf	((c:___fladd@b)),c
  5546  0013B8  2628               	movlw	0
  5547  0013BA  0E00               	addwfc	((c:___fladd@b+1)),c
  5548  0013BC  2229               	addwfc	((c:___fladd@b+2)),c
  5549  0013BE  222A               	addwfc	((c:___fladd@b+3)),c
  5550  0013C0  222B               	line	205
  5551                           	
  5552                           l2594:
  5553  0013C2                     	
  5554                           	btfss	((c:___fladd@b+3)),c,(24)&7
  5555  0013C2  A02B               	goto	u2691
  5556  0013C4  EFE6  F009         	goto	u2690
  5557  0013C8  EFE8  F009         u2691:
  5558  0013CC                     	goto	l2600
  5559  0013CC  EF0C  F00A         u2690:
  5560  0013D0                     	line	206
  5561                           	
  5562                           l2596:
  5563  0013D0                     	movff	(c:___fladd@b),??___fladd+0+0
  5564  0013D0  C028  F030         	movff	(c:___fladd@b+1),??___fladd+0+0+1
  5565  0013D4  C029  F031         	movff	(c:___fladd@b+2),??___fladd+0+0+2
  5566  0013D8  C02A  F032         	movff	(c:___fladd@b+3),??___fladd+0+0+3
  5567  0013DC  C02B  F033         	rlcf	(??___fladd+0+3),c,w
  5568  0013E0  3433               	rrcf	(??___fladd+0+3),c
  5569  0013E2  3233               	rrcf	(??___fladd+0+2),c
  5570  0013E4  3232               	rrcf	(??___fladd+0+1),c
  5571  0013E6  3231               	rrcf	(??___fladd+0+0),c
  5572  0013E8  3230               	movff	??___fladd+0+0,(c:___fladd@b)
  5573  0013EA  C030  F028         	movff	??___fladd+0+1,(c:___fladd@b+1)
  5574  0013EE  C031  F029         	movff	??___fladd+0+2,(c:___fladd@b+2)
  5575  0013F2  C032  F02A         	movff	??___fladd+0+3,(c:___fladd@b+3)
  5576  0013F6  C033  F02B         	line	207
  5577                           		incf	((c:___fladd@bexp)),c,w
  5578  0013FA  283A               	btfsc	status,2
  5579  0013FC  B4D8               	goto	u2701
  5580  0013FE  EF03  F00A         	goto	u2700
  5581  001402  EF05  F00A         
  5582                           u2701:
  5583  001406                     	goto	l2600
  5584  001406  EF0C  F00A         u2700:
  5585  00140A                     	line	208
  5586                           	
  5587                           l2598:
  5588  00140A                     	incf	((c:___fladd@bexp)),c
  5589  00140A  2A3A               	goto	l2600
  5590  00140C  EF0C  F00A         	line	209
  5591                           	
  5592                           l1177:
  5593  001410                     	goto	l2600
  5594  001410  EF0C  F00A         	line	210
  5595                           	
  5596                           l1176:
  5597  001414                     	goto	l2600
  5598  001414  EF0C  F00A         	line	211
  5599                           	
  5600                           l1175:
  5601  001418                     	line	215
  5602                           	
  5603                           l2600:
  5604  001418                     		incf	((c:___fladd@bexp)),c,w
  5605  001418  283A               	btfsc	status,2
  5606  00141A  B4D8               	goto	u2711
  5607  00141C  EF12  F00A         	goto	u2710
  5608  001420  EF14  F00A         
  5609                           u2711:
  5610  001424                     	goto	l2604
  5611  001424  EF1E  F00A         u2710:
  5612  001428                     	
  5613                           l2602:
  5614  001428                     	movf	((c:___fladd@bexp)),c,w
  5615  001428  503A               	btfss	status,2
  5616  00142A  A4D8               	goto	u2721
  5617  00142C  EF1A  F00A         	goto	u2720
  5618  001430  EF1C  F00A         u2721:
  5619  001434                     	goto	l2608
  5620  001434  EF34  F00A         u2720:
  5621  001438                     	goto	l2604
  5622  001438  EF1E  F00A         	
  5623                           l1180:
  5624  00143C                     	line	216
  5625                           	
  5626                           l2604:
  5627  00143C                     	movlw	low(0)
  5628  00143C  0E00               	movwf	((c:___fladd@b)),c
  5629  00143E  6E28               	movlw	high(0)
  5630  001440  0E00               	movwf	((c:___fladd@b+1)),c
  5631  001442  6E29               	movlw	low highword(0)
  5632  001444  0E00               	movwf	((c:___fladd@b+2)),c
  5633  001446  6E2A               	movlw	high highword(0)
  5634  001448  0E00               	movwf	((c:___fladd@b+3)),c
  5635  00144A  6E2B               	line	218
  5636                           	movf	((c:___fladd@bexp)),c,w
  5637  00144C  503A               	btfss	status,2
  5638  00144E  A4D8               	goto	u2731
  5639  001450  EF2C  F00A         	goto	u2730
  5640  001454  EF2E  F00A         u2731:
  5641  001458                     	goto	l2608
  5642  001458  EF34  F00A         u2730:
  5643  00145C                     	line	219
  5644                           	
  5645                           l2606:
  5646  00145C                     	movlw	low(0)
  5647  00145C  0E00               	movwf	((c:___fladd@signs)),c
  5648  00145E  6E38               	goto	l2608
  5649  001460  EF34  F00A         	line	220
  5650                           	
  5651                           l1181:
  5652  001464                     	goto	l2608
  5653  001464  EF34  F00A         	line	221
  5654                           	
  5655                           l1178:
  5656  001468                     	line	225
  5657                           	
  5658                           l2608:
  5659  001468                     	
  5660                           	btfss	((c:___fladd@bexp)),c,(0)&7
  5661  001468  A03A               	goto	u2741
  5662  00146A  EF39  F00A         	goto	u2740
  5663  00146E  EF3B  F00A         u2741:
  5664  001472                     	goto	l2612
  5665  001472  EF3E  F00A         u2740:
  5666  001476                     	line	226
  5667                           	
  5668                           l2610:
  5669  001476                     	bsf	(0+(7/8)+0+((c:___fladd@b)+02h)),c,(7)&7
  5670  001476  8E2A               	line	227
  5671                           	goto	l2614
  5672  001478  EF41  F00A         	line	229
  5673                           	
  5674                           l1182:
  5675  00147C                     	line	230
  5676                           	
  5677                           l2612:
  5678  00147C                     	bcf	(0+(7/8)+0+((c:___fladd@b)+02h)),c,(7)&7
  5679  00147C  9E2A               	goto	l2614
  5680  00147E  EF41  F00A         	line	231
  5681                           	
  5682                           l1183:
  5683  001482                     	line	232
  5684                           	
  5685                           l2614:
  5686  001482                     	bcf	status,0
  5687  001482  90D8               	rrcf	((c:___fladd@bexp)),c,w
  5688  001484  303A               	movwf	(0+((c:___fladd@b)+03h)),c
  5689  001486  6E2B               	line	233
  5690                           	
  5691                           l2616:
  5692  001488                     	
  5693                           	btfss	((c:___fladd@signs)),c,(7)&7
  5694  001488  AE38               	goto	u2751
  5695  00148A  EF49  F00A         	goto	u2750
  5696  00148E  EF4B  F00A         u2751:
  5697  001492                     	goto	l2620
  5698  001492  EF4E  F00A         u2750:
  5699  001496                     	line	234
  5700                           	
  5701                           l2618:
  5702  001496                     	bsf	(0+(7/8)+0+((c:___fladd@b)+03h)),c,(7)&7
  5703  001496  8E2B               	goto	l2620
  5704  001498  EF4E  F00A         	line	235
  5705                           	
  5706                           l1184:
  5707  00149C                     	line	236
  5708                           	
  5709                           l2620:
  5710  00149C                     	movff	(c:___fladd@b),(c:?___fladd)
  5711  00149C  C028  F028         	movff	(c:___fladd@b+1),(c:?___fladd+1)
  5712  0014A0  C029  F029         	movff	(c:___fladd@b+2),(c:?___fladd+2)
  5713  0014A4  C02A  F02A         	movff	(c:___fladd@b+3),(c:?___fladd+3)
  5714  0014A8  C02B  F02B         	goto	l1154
  5715  0014AC  EF58  F00A         	
  5716                           l2622:
  5717  0014B0                     	line	237
  5718                           	
  5719                           l1154:
  5720  0014B0                     	return	;funcret
  5721  0014B0  0012               	opt stack 0
  5722                           GLOBAL	__end_of___fladd
  5723                           	__end_of___fladd:
  5724  0014B2                     	signat	___fladd,8316
  5725                           	global	_loop
  5726                           
  5727 ;; *************** function _loop *****************
  5728 ;; Defined at:
  5729 ;;		line 31 in file "application.c"
  5730 ;; Parameters:    Size  Location     Type
  5731 ;;		None
  5732 ;; Auto vars:     Size  Location     Type
  5733 ;;		None
  5734 ;; Return value:  Size  Location     Type
  5735 ;;                  1    wreg      void 
  5736 ;; Registers used:
  5737 ;;		wreg, status,2, status,0, cstack
  5738 ;; Tracked objects:
  5739 ;;		On entry : 0/0
  5740 ;;		On exit  : 0/0
  5741 ;;		Unchanged: 0/0
  5742 ;; Data sizes:     COMRAM   BANK0   BANK1   BANK2   BANK3   BANK4   BANK5   BANK6   BANK7
  5743 ;;      Params:         0       0       0       0       0       0       0       0       0
  5744 ;;      Locals:         0       0       0       0       0       0       0       0       0
  5745 ;;      Temps:          2       0       0       0       0       0       0       0       0
  5746 ;;      Totals:         2       0       0       0       0       0       0       0       0
  5747 ;;Total ram usage:        2 bytes
  5748 ;; Hardware stack levels used:    1
  5749 ;; Hardware stack levels required when called:    3
  5750 ;; This function calls:
  5751 ;;		_PBRead
  5752 ;;		_adelante
  5753 ;;		_atras
  5754 ;;		_delay
  5755 ;;		_derecha
  5756 ;;		_izquierda
  5757 ;;		_stop
  5758 ;; This function is called by:
  5759 ;;		_main
  5760 ;; This function uses a non-reentrant model
  5761 ;;
  5762                           psect	text11,class=CODE,space=0,reloc=2,group=0
  5763                           	file	"application.c"
  5764                           	line	31
  5765                           global __ptext11
  5766                           __ptext11:
  5767  00080C                     psect	text11
  5768                           	file	"application.c"
  5769                           	line	31
  5770                           	global	__size_of_loop
  5771                           	__size_of_loop	equ	__end_of_loop-_loop
  5772  0000                     	
  5773                           _loop:
  5774  00080C                     ;incstack = 0
  5775                           	opt	stack 27
  5776                           	line	33
  5777                           	
  5778                           l2990:
  5779  00080C                     ;application.c: 33:     switch(estado)
  5780                           	goto	l3134
  5781  00080C  EF6C  F007         	line	35
  5782                           ;application.c: 34:     {;application.c: 35:         case forward:
  5783                           	
  5784                           l459:
  5785  000810                     	line	36
  5786                           	
  5787                           l2992:
  5788  000810                     ;application.c: 36:             adelante(vel);
  5789                           	movff	(c:_vel),(c:adelante@velocidad)
  5790  000810  C050  F006         	movff	(c:_vel+1),(c:adelante@velocidad+1)
  5791  000814  C051  F007         	call	_adelante	;wreg free
  5792  000818  EC5F  F012         	line	37
  5793                           ;application.c: 37:             if(PBRead(0) == 1)
  5794                           	movlw	(0)&0ffh
  5795  00081C  0E00               	
  5796                           	call	_PBRead
  5797  00081E  EC35  F011         	decf	wreg
  5798  000822  06E8               	btfss	status,2
  5799  000824  A4D8               	goto	u3681
  5800  000826  EF17  F004         	goto	u3680
  5801  00082A  EF19  F004         u3681:
  5802  00082E                     	goto	l2998
  5803  00082E  EF32  F004         u3680:
  5804  000832                     	line	39
  5805                           	
  5806                           l2994:
  5807  000832                     ;application.c: 38:             {;application.c: 39:                 delay(50);
  5808                           	movlw	high(032h)
  5809  000832  0E00               	movwf	((c:delay@milis+1)),c
  5810  000834  6E02               	movlw	low(032h)
  5811  000836  0E32               	movwf	((c:delay@milis)),c
  5812  000838  6E01               	call	_delay	;wreg free
  5813  00083A  EC97  F010         	line	40
  5814                           ;application.c: 40:                 if(PBRead(0) == 1)
  5815                           	movlw	(0)&0ffh
  5816  00083E  0E00               	
  5817                           	call	_PBRead
  5818  000840  EC35  F011         	decf	wreg
  5819  000844  06E8               	btfss	status,2
  5820  000846  A4D8               	goto	u3691
  5821  000848  EF28  F004         	goto	u3690
  5822  00084C  EF2A  F004         u3691:
  5823  000850                     	goto	l528
  5824  000850  EF96  F007         u3690:
  5825  000854                     	line	42
  5826                           	
  5827                           l2996:
  5828  000854                     ;application.c: 41:                 {;application.c: 42:                     estado = ba
                                 ckward;
  5829                           	movlw	high(01h)
  5830  000854  0E00               	movwf	((c:_estado+1)),c
  5831  000856  6E4D               	movlw	low(01h)
  5832  000858  0E01               	movwf	((c:_estado)),c
  5833  00085A  6E4C               	goto	l528
  5834  00085C  EF96  F007         	line	43
  5835                           ;application.c: 43:                 }
  5836                           	
  5837                           l461:
  5838  000860                     	line	44
  5839                           ;application.c: 44:             }
  5840                           	goto	l528
  5841  000860  EF96  F007         	line	45
  5842                           ;application.c: 45:             else if(PBRead(2) == 1)
  5843                           	
  5844                           l460:
  5845  000864                     	
  5846                           l2998:
  5847  000864                     	movlw	(02h)&0ffh
  5848  000864  0E02               	
  5849                           	call	_PBRead
  5850  000866  EC35  F011         	decf	wreg
  5851  00086A  06E8               	btfss	status,2
  5852  00086C  A4D8               	goto	u3701
  5853  00086E  EF3B  F004         	goto	u3700
  5854  000872  EF3D  F004         u3701:
  5855  000876                     	goto	l3004
  5856  000876  EF56  F004         u3700:
  5857  00087A                     	line	47
  5858                           	
  5859                           l3000:
  5860  00087A                     ;application.c: 46:             {;application.c: 47:                 delay(50);
  5861                           	movlw	high(032h)
  5862  00087A  0E00               	movwf	((c:delay@milis+1)),c
  5863  00087C  6E02               	movlw	low(032h)
  5864  00087E  0E32               	movwf	((c:delay@milis)),c
  5865  000880  6E01               	call	_delay	;wreg free
  5866  000882  EC97  F010         	line	48
  5867                           ;application.c: 48:                 if(PBRead(2) == 1)
  5868                           	movlw	(02h)&0ffh
  5869  000886  0E02               	
  5870                           	call	_PBRead
  5871  000888  EC35  F011         	decf	wreg
  5872  00088C  06E8               	btfss	status,2
  5873  00088E  A4D8               	goto	u3711
  5874  000890  EF4C  F004         	goto	u3710
  5875  000894  EF4E  F004         u3711:
  5876  000898                     	goto	l528
  5877  000898  EF96  F007         u3710:
  5878  00089C                     	line	50
  5879                           	
  5880                           l3002:
  5881  00089C                     ;application.c: 49:                 {;application.c: 50:                     estado = pl
                                 usvel;
  5882                           	movlw	high(05h)
  5883  00089C  0E00               	movwf	((c:_estado+1)),c
  5884  00089E  6E4D               	movlw	low(05h)
  5885  0008A0  0E05               	movwf	((c:_estado)),c
  5886  0008A2  6E4C               	goto	l528
  5887  0008A4  EF96  F007         	line	51
  5888                           ;application.c: 51:                 }
  5889                           	
  5890                           l464:
  5891  0008A8                     	line	52
  5892                           ;application.c: 52:             }
  5893                           	goto	l528
  5894  0008A8  EF96  F007         	line	53
  5895                           ;application.c: 53:             else if(PBRead(2) == 1)
  5896                           	
  5897                           l463:
  5898  0008AC                     	
  5899                           l3004:
  5900  0008AC                     	movlw	(02h)&0ffh
  5901  0008AC  0E02               	
  5902                           	call	_PBRead
  5903  0008AE  EC35  F011         	decf	wreg
  5904  0008B2  06E8               	btfss	status,2
  5905  0008B4  A4D8               	goto	u3721
  5906  0008B6  EF5F  F004         	goto	u3720
  5907  0008BA  EF61  F004         u3721:
  5908  0008BE                     	goto	l3010
  5909  0008BE  EF7A  F004         u3720:
  5910  0008C2                     	line	55
  5911                           	
  5912                           l3006:
  5913  0008C2                     ;application.c: 54:             {;application.c: 55:                 delay(50);
  5914                           	movlw	high(032h)
  5915  0008C2  0E00               	movwf	((c:delay@milis+1)),c
  5916  0008C4  6E02               	movlw	low(032h)
  5917  0008C6  0E32               	movwf	((c:delay@milis)),c
  5918  0008C8  6E01               	call	_delay	;wreg free
  5919  0008CA  EC97  F010         	line	56
  5920                           ;application.c: 56:                 if(PBRead(2) == 1)
  5921                           	movlw	(02h)&0ffh
  5922  0008CE  0E02               	
  5923                           	call	_PBRead
  5924  0008D0  EC35  F011         	decf	wreg
  5925  0008D4  06E8               	btfss	status,2
  5926  0008D6  A4D8               	goto	u3731
  5927  0008D8  EF70  F004         	goto	u3730
  5928  0008DC  EF72  F004         u3731:
  5929  0008E0                     	goto	l528
  5930  0008E0  EF96  F007         u3730:
  5931  0008E4                     	line	58
  5932                           	
  5933                           l3008:
  5934  0008E4                     ;application.c: 57:                 {;application.c: 58:                     estado = mi
                                 nusvel;
  5935                           	movlw	high(06h)
  5936  0008E4  0E00               	movwf	((c:_estado+1)),c
  5937  0008E6  6E4D               	movlw	low(06h)
  5938  0008E8  0E06               	movwf	((c:_estado)),c
  5939  0008EA  6E4C               	goto	l528
  5940  0008EC  EF96  F007         	line	59
  5941                           ;application.c: 59:                 }
  5942                           	
  5943                           l467:
  5944  0008F0                     	line	60
  5945                           ;application.c: 60:             }
  5946                           	goto	l528
  5947  0008F0  EF96  F007         	line	61
  5948                           ;application.c: 61:             else
  5949                           	
  5950                           l466:
  5951  0008F4                     	line	63
  5952                           	
  5953                           l3010:
  5954  0008F4                     ;application.c: 62:             {;application.c: 63:                 estado = forward;
  5955                           	movlw	high(0)
  5956  0008F4  0E00               	movwf	((c:_estado+1)),c
  5957  0008F6  6E4D               	movlw	low(0)
  5958  0008F8  0E00               	movwf	((c:_estado)),c
  5959  0008FA  6E4C               	goto	l528
  5960  0008FC  EF96  F007         	line	64
  5961                           ;application.c: 64:             }
  5962                           	
  5963                           l468:
  5964  000900                     	goto	l528
  5965  000900  EF96  F007         	
  5966                           l465:
  5967  000904                     	goto	l528
  5968  000904  EF96  F007         	
  5969                           l462:
  5970  000908                     	line	65
  5971                           ;application.c: 65:             break;
  5972                           	goto	l528
  5973  000908  EF96  F007         	line	66
  5974                           ;application.c: 66:         case backward:
  5975                           	
  5976                           l470:
  5977  00090C                     	line	67
  5978                           	
  5979                           l3012:
  5980  00090C                     ;application.c: 67:             atras(vel);
  5981                           	movff	(c:_vel),(c:atras@velocidad)
  5982  00090C  C050  F006         	movff	(c:_vel+1),(c:atras@velocidad+1)
  5983  000910  C051  F007         	call	_atras	;wreg free
  5984  000914  EC43  F012         	line	68
  5985                           ;application.c: 68:             if(PBRead(0) == 1)
  5986                           	movlw	(0)&0ffh
  5987  000918  0E00               	
  5988                           	call	_PBRead
  5989  00091A  EC35  F011         	decf	wreg
  5990  00091E  06E8               	btfss	status,2
  5991  000920  A4D8               	goto	u3741
  5992  000922  EF95  F004         	goto	u3740
  5993  000926  EF97  F004         u3741:
  5994  00092A                     	goto	l3018
  5995  00092A  EFB0  F004         u3740:
  5996  00092E                     	line	70
  5997                           	
  5998                           l3014:
  5999  00092E                     ;application.c: 69:             {;application.c: 70:                 delay(50);
  6000                           	movlw	high(032h)
  6001  00092E  0E00               	movwf	((c:delay@milis+1)),c
  6002  000930  6E02               	movlw	low(032h)
  6003  000932  0E32               	movwf	((c:delay@milis)),c
  6004  000934  6E01               	call	_delay	;wreg free
  6005  000936  EC97  F010         	line	71
  6006                           ;application.c: 71:                 if(PBRead(0) == 1)
  6007                           	movlw	(0)&0ffh
  6008  00093A  0E00               	
  6009                           	call	_PBRead
  6010  00093C  EC35  F011         	decf	wreg
  6011  000940  06E8               	btfss	status,2
  6012  000942  A4D8               	goto	u3751
  6013  000944  EFA6  F004         	goto	u3750
  6014  000948  EFA8  F004         u3751:
  6015  00094C                     	goto	l473
  6016  00094C  EFFA  F004         u3750:
  6017  000950                     	line	73
  6018                           	
  6019                           l3016:
  6020  000950                     ;application.c: 72:                 {;application.c: 73:                     estado = le
                                 ft;
  6021                           	movlw	high(02h)
  6022  000950  0E00               	movwf	((c:_estado+1)),c
  6023  000952  6E4D               	movlw	low(02h)
  6024  000954  0E02               	movwf	((c:_estado)),c
  6025  000956  6E4C               	goto	l473
  6026  000958  EFFA  F004         	line	74
  6027                           ;application.c: 74:                 }
  6028                           	
  6029                           l472:
  6030  00095C                     	line	75
  6031                           ;application.c: 75:             }
  6032                           	goto	l473
  6033  00095C  EFFA  F004         	line	76
  6034                           ;application.c: 76:             else if(PBRead(2) == 1)
  6035                           	
  6036                           l471:
  6037  000960                     	
  6038                           l3018:
  6039  000960                     	movlw	(02h)&0ffh
  6040  000960  0E02               	
  6041                           	call	_PBRead
  6042  000962  EC35  F011         	decf	wreg
  6043  000966  06E8               	btfss	status,2
  6044  000968  A4D8               	goto	u3761
  6045  00096A  EFB9  F004         	goto	u3760
  6046  00096E  EFBB  F004         u3761:
  6047  000972                     	goto	l3024
  6048  000972  EFD4  F004         u3760:
  6049  000976                     	line	78
  6050                           	
  6051                           l3020:
  6052  000976                     ;application.c: 77:             {;application.c: 78:                 delay(50);
  6053                           	movlw	high(032h)
  6054  000976  0E00               	movwf	((c:delay@milis+1)),c
  6055  000978  6E02               	movlw	low(032h)
  6056  00097A  0E32               	movwf	((c:delay@milis)),c
  6057  00097C  6E01               	call	_delay	;wreg free
  6058  00097E  EC97  F010         	line	79
  6059                           ;application.c: 79:                 if(PBRead(2) == 1)
  6060                           	movlw	(02h)&0ffh
  6061  000982  0E02               	
  6062                           	call	_PBRead
  6063  000984  EC35  F011         	decf	wreg
  6064  000988  06E8               	btfss	status,2
  6065  00098A  A4D8               	goto	u3771
  6066  00098C  EFCA  F004         	goto	u3770
  6067  000990  EFCC  F004         u3771:
  6068  000994                     	goto	l473
  6069  000994  EFFA  F004         u3770:
  6070  000998                     	line	81
  6071                           	
  6072                           l3022:
  6073  000998                     ;application.c: 80:                 {;application.c: 81:                     estado = pl
                                 usvel;
  6074                           	movlw	high(05h)
  6075  000998  0E00               	movwf	((c:_estado+1)),c
  6076  00099A  6E4D               	movlw	low(05h)
  6077  00099C  0E05               	movwf	((c:_estado)),c
  6078  00099E  6E4C               	goto	l473
  6079  0009A0  EFFA  F004         	line	82
  6080                           ;application.c: 82:                 }
  6081                           	
  6082                           l475:
  6083  0009A4                     	line	83
  6084                           ;application.c: 83:             }
  6085                           	goto	l473
  6086  0009A4  EFFA  F004         	line	84
  6087                           ;application.c: 84:             else if(PBRead(2) == 1)
  6088                           	
  6089                           l474:
  6090  0009A8                     	
  6091                           l3024:
  6092  0009A8                     	movlw	(02h)&0ffh
  6093  0009A8  0E02               	
  6094                           	call	_PBRead
  6095  0009AA  EC35  F011         	decf	wreg
  6096  0009AE  06E8               	btfss	status,2
  6097  0009B0  A4D8               	goto	u3781
  6098  0009B2  EFDD  F004         	goto	u3780
  6099  0009B6  EFDF  F004         u3781:
  6100  0009BA                     	goto	l473
  6101  0009BA  EFFA  F004         u3780:
  6102  0009BE                     	line	86
  6103                           	
  6104                           l3026:
  6105  0009BE                     ;application.c: 85:             {;application.c: 86:                 delay(50);
  6106                           	movlw	high(032h)
  6107  0009BE  0E00               	movwf	((c:delay@milis+1)),c
  6108  0009C0  6E02               	movlw	low(032h)
  6109  0009C2  0E32               	movwf	((c:delay@milis)),c
  6110  0009C4  6E01               	call	_delay	;wreg free
  6111  0009C6  EC97  F010         	line	87
  6112                           ;application.c: 87:                 if(PBRead(2) == 1)
  6113                           	movlw	(02h)&0ffh
  6114  0009CA  0E02               	
  6115                           	call	_PBRead
  6116  0009CC  EC35  F011         	decf	wreg
  6117  0009D0  06E8               	btfss	status,2
  6118  0009D2  A4D8               	goto	u3791
  6119  0009D4  EFEE  F004         	goto	u3790
  6120  0009D8  EFF0  F004         u3791:
  6121  0009DC                     	goto	l473
  6122  0009DC  EFFA  F004         u3790:
  6123  0009E0                     	line	89
  6124                           	
  6125                           l3028:
  6126  0009E0                     ;application.c: 88:                 {;application.c: 89:                     estado = mi
                                 nusvel;
  6127                           	movlw	high(06h)
  6128  0009E0  0E00               	movwf	((c:_estado+1)),c
  6129  0009E2  6E4D               	movlw	low(06h)
  6130  0009E4  0E06               	movwf	((c:_estado)),c
  6131  0009E6  6E4C               	goto	l473
  6132  0009E8  EFFA  F004         	line	90
  6133                           ;application.c: 90:                 }
  6134                           	
  6135                           l478:
  6136  0009EC                     	goto	l473
  6137  0009EC  EFFA  F004         	line	91
  6138                           ;application.c: 91:             }
  6139                           	
  6140                           l477:
  6141  0009F0                     	goto	l473
  6142  0009F0  EFFA  F004         	
  6143                           l476:
  6144  0009F4                     	
  6145                           l473:
  6146  0009F4                     	line	92
  6147                           ;application.c: 92:             estado = backward;
  6148                           	movlw	high(01h)
  6149  0009F4  0E00               	movwf	((c:_estado+1)),c
  6150  0009F6  6E4D               	movlw	low(01h)
  6151  0009F8  0E01               	movwf	((c:_estado)),c
  6152  0009FA  6E4C               	line	93
  6153                           ;application.c: 93:             break;
  6154                           	goto	l528
  6155  0009FC  EF96  F007         	line	94
  6156                           ;application.c: 94:         case left:
  6157                           	
  6158                           l479:
  6159  000A00                     	line	95
  6160                           	
  6161                           l3030:
  6162  000A00                     ;application.c: 95:             izquierda(vel);
  6163                           	movff	(c:_vel),(c:izquierda@velocidad)
  6164  000A00  C050  F006         	movff	(c:_vel+1),(c:izquierda@velocidad+1)
  6165  000A04  C051  F007         	call	_izquierda	;wreg free
  6166  000A08  EC0B  F012         	line	96
  6167                           ;application.c: 96:             if(PBRead(0) == 1)
  6168                           	movlw	(0)&0ffh
  6169  000A0C  0E00               	
  6170                           	call	_PBRead
  6171  000A0E  EC35  F011         	decf	wreg
  6172  000A12  06E8               	btfss	status,2
  6173  000A14  A4D8               	goto	u3801
  6174  000A16  EF0F  F005         	goto	u3800
  6175  000A1A  EF11  F005         u3801:
  6176  000A1E                     	goto	l3036
  6177  000A1E  EF2A  F005         u3800:
  6178  000A22                     	line	98
  6179                           	
  6180                           l3032:
  6181  000A22                     ;application.c: 97:             {;application.c: 98:                 delay(50);
  6182                           	movlw	high(032h)
  6183  000A22  0E00               	movwf	((c:delay@milis+1)),c
  6184  000A24  6E02               	movlw	low(032h)
  6185  000A26  0E32               	movwf	((c:delay@milis)),c
  6186  000A28  6E01               	call	_delay	;wreg free
  6187  000A2A  EC97  F010         	line	99
  6188                           ;application.c: 99:                 if(PBRead(0) == 1)
  6189                           	movlw	(0)&0ffh
  6190  000A2E  0E00               	
  6191                           	call	_PBRead
  6192  000A30  EC35  F011         	decf	wreg
  6193  000A34  06E8               	btfss	status,2
  6194  000A36  A4D8               	goto	u3811
  6195  000A38  EF20  F005         	goto	u3810
  6196  000A3C  EF22  F005         u3811:
  6197  000A40                     	goto	l528
  6198  000A40  EF96  F007         u3810:
  6199  000A44                     	line	101
  6200                           	
  6201                           l3034:
  6202  000A44                     ;application.c: 100:                 {;application.c: 101:                     estado = 
                                 right;
  6203                           	movlw	high(03h)
  6204  000A44  0E00               	movwf	((c:_estado+1)),c
  6205  000A46  6E4D               	movlw	low(03h)
  6206  000A48  0E03               	movwf	((c:_estado)),c
  6207  000A4A  6E4C               	goto	l528
  6208  000A4C  EF96  F007         	line	102
  6209                           ;application.c: 102:                 }
  6210                           	
  6211                           l481:
  6212  000A50                     	line	103
  6213                           ;application.c: 103:             }
  6214                           	goto	l528
  6215  000A50  EF96  F007         	line	104
  6216                           ;application.c: 104:             else if(PBRead(2) == 1)
  6217                           	
  6218                           l480:
  6219  000A54                     	
  6220                           l3036:
  6221  000A54                     	movlw	(02h)&0ffh
  6222  000A54  0E02               	
  6223                           	call	_PBRead
  6224  000A56  EC35  F011         	decf	wreg
  6225  000A5A  06E8               	btfss	status,2
  6226  000A5C  A4D8               	goto	u3821
  6227  000A5E  EF33  F005         	goto	u3820
  6228  000A62  EF35  F005         u3821:
  6229  000A66                     	goto	l3042
  6230  000A66  EF4E  F005         u3820:
  6231  000A6A                     	line	106
  6232                           	
  6233                           l3038:
  6234  000A6A                     ;application.c: 105:             {;application.c: 106:                 delay(50);
  6235                           	movlw	high(032h)
  6236  000A6A  0E00               	movwf	((c:delay@milis+1)),c
  6237  000A6C  6E02               	movlw	low(032h)
  6238  000A6E  0E32               	movwf	((c:delay@milis)),c
  6239  000A70  6E01               	call	_delay	;wreg free
  6240  000A72  EC97  F010         	line	107
  6241                           ;application.c: 107:                 if(PBRead(2) == 1)
  6242                           	movlw	(02h)&0ffh
  6243  000A76  0E02               	
  6244                           	call	_PBRead
  6245  000A78  EC35  F011         	decf	wreg
  6246  000A7C  06E8               	btfss	status,2
  6247  000A7E  A4D8               	goto	u3831
  6248  000A80  EF44  F005         	goto	u3830
  6249  000A84  EF46  F005         u3831:
  6250  000A88                     	goto	l528
  6251  000A88  EF96  F007         u3830:
  6252  000A8C                     	line	109
  6253                           	
  6254                           l3040:
  6255  000A8C                     ;application.c: 108:                 {;application.c: 109:                     estado = 
                                 plusvel;
  6256                           	movlw	high(05h)
  6257  000A8C  0E00               	movwf	((c:_estado+1)),c
  6258  000A8E  6E4D               	movlw	low(05h)
  6259  000A90  0E05               	movwf	((c:_estado)),c
  6260  000A92  6E4C               	goto	l528
  6261  000A94  EF96  F007         	line	110
  6262                           ;application.c: 110:                 }
  6263                           	
  6264                           l484:
  6265  000A98                     	line	111
  6266                           ;application.c: 111:             }
  6267                           	goto	l528
  6268  000A98  EF96  F007         	line	112
  6269                           ;application.c: 112:             else if(PBRead(2) == 1)
  6270                           	
  6271                           l483:
  6272  000A9C                     	
  6273                           l3042:
  6274  000A9C                     	movlw	(02h)&0ffh
  6275  000A9C  0E02               	
  6276                           	call	_PBRead
  6277  000A9E  EC35  F011         	decf	wreg
  6278  000AA2  06E8               	btfss	status,2
  6279  000AA4  A4D8               	goto	u3841
  6280  000AA6  EF57  F005         	goto	u3840
  6281  000AAA  EF59  F005         u3841:
  6282  000AAE                     	goto	l3048
  6283  000AAE  EF72  F005         u3840:
  6284  000AB2                     	line	114
  6285                           	
  6286                           l3044:
  6287  000AB2                     ;application.c: 113:             {;application.c: 114:                 delay(50);
  6288                           	movlw	high(032h)
  6289  000AB2  0E00               	movwf	((c:delay@milis+1)),c
  6290  000AB4  6E02               	movlw	low(032h)
  6291  000AB6  0E32               	movwf	((c:delay@milis)),c
  6292  000AB8  6E01               	call	_delay	;wreg free
  6293  000ABA  EC97  F010         	line	115
  6294                           ;application.c: 115:                 if(PBRead(2) == 1)
  6295                           	movlw	(02h)&0ffh
  6296  000ABE  0E02               	
  6297                           	call	_PBRead
  6298  000AC0  EC35  F011         	decf	wreg
  6299  000AC4  06E8               	btfss	status,2
  6300  000AC6  A4D8               	goto	u3851
  6301  000AC8  EF68  F005         	goto	u3850
  6302  000ACC  EF6A  F005         u3851:
  6303  000AD0                     	goto	l528
  6304  000AD0  EF96  F007         u3850:
  6305  000AD4                     	line	117
  6306                           	
  6307                           l3046:
  6308  000AD4                     ;application.c: 116:                 {;application.c: 117:                     estado = 
                                 minusvel;
  6309                           	movlw	high(06h)
  6310  000AD4  0E00               	movwf	((c:_estado+1)),c
  6311  000AD6  6E4D               	movlw	low(06h)
  6312  000AD8  0E06               	movwf	((c:_estado)),c
  6313  000ADA  6E4C               	goto	l528
  6314  000ADC  EF96  F007         	line	118
  6315                           ;application.c: 118:                 }
  6316                           	
  6317                           l487:
  6318  000AE0                     	line	119
  6319                           ;application.c: 119:             }
  6320                           	goto	l528
  6321  000AE0  EF96  F007         	line	120
  6322                           ;application.c: 120:             else
  6323                           	
  6324                           l486:
  6325  000AE4                     	line	122
  6326                           	
  6327                           l3048:
  6328  000AE4                     ;application.c: 121:             {;application.c: 122:                 estado = left;
  6329                           	movlw	high(02h)
  6330  000AE4  0E00               	movwf	((c:_estado+1)),c
  6331  000AE6  6E4D               	movlw	low(02h)
  6332  000AE8  0E02               	movwf	((c:_estado)),c
  6333  000AEA  6E4C               	goto	l528
  6334  000AEC  EF96  F007         	line	123
  6335                           ;application.c: 123:             }
  6336                           	
  6337                           l488:
  6338  000AF0                     	goto	l528
  6339  000AF0  EF96  F007         	
  6340                           l485:
  6341  000AF4                     	goto	l528
  6342  000AF4  EF96  F007         	
  6343                           l482:
  6344  000AF8                     	line	124
  6345                           ;application.c: 124:             break;
  6346                           	goto	l528
  6347  000AF8  EF96  F007         	line	125
  6348                           ;application.c: 125:         case right:
  6349                           	
  6350                           l489:
  6351  000AFC                     	line	126
  6352                           	
  6353                           l3050:
  6354  000AFC                     ;application.c: 126:             derecha(vel);
  6355                           	movff	(c:_vel),(c:derecha@velocidad)
  6356  000AFC  C050  F006         	movff	(c:_vel+1),(c:derecha@velocidad+1)
  6357  000B00  C051  F007         	call	_derecha	;wreg free
  6358  000B04  EC27  F012         	line	127
  6359                           ;application.c: 127:             if(PBRead(0) == 1)
  6360                           	movlw	(0)&0ffh
  6361  000B08  0E00               	
  6362                           	call	_PBRead
  6363  000B0A  EC35  F011         	decf	wreg
  6364  000B0E  06E8               	btfss	status,2
  6365  000B10  A4D8               	goto	u3861
  6366  000B12  EF8D  F005         	goto	u3860
  6367  000B16  EF8F  F005         u3861:
  6368  000B1A                     	goto	l3056
  6369  000B1A  EFA8  F005         u3860:
  6370  000B1E                     	line	129
  6371                           	
  6372                           l3052:
  6373  000B1E                     ;application.c: 128:             {;application.c: 129:                 delay(50);
  6374                           	movlw	high(032h)
  6375  000B1E  0E00               	movwf	((c:delay@milis+1)),c
  6376  000B20  6E02               	movlw	low(032h)
  6377  000B22  0E32               	movwf	((c:delay@milis)),c
  6378  000B24  6E01               	call	_delay	;wreg free
  6379  000B26  EC97  F010         	line	130
  6380                           ;application.c: 130:                 if(PBRead(0) == 1)
  6381                           	movlw	(0)&0ffh
  6382  000B2A  0E00               	
  6383                           	call	_PBRead
  6384  000B2C  EC35  F011         	decf	wreg
  6385  000B30  06E8               	btfss	status,2
  6386  000B32  A4D8               	goto	u3871
  6387  000B34  EF9E  F005         	goto	u3870
  6388  000B38  EFA0  F005         u3871:
  6389  000B3C                     	goto	l528
  6390  000B3C  EF96  F007         u3870:
  6391  000B40                     	line	132
  6392                           	
  6393                           l3054:
  6394  000B40                     ;application.c: 131:                 {;application.c: 132:                     estado = 
                                 stoped;
  6395                           	movlw	high(04h)
  6396  000B40  0E00               	movwf	((c:_estado+1)),c
  6397  000B42  6E4D               	movlw	low(04h)
  6398  000B44  0E04               	movwf	((c:_estado)),c
  6399  000B46  6E4C               	goto	l528
  6400  000B48  EF96  F007         	line	133
  6401                           ;application.c: 133:                 }
  6402                           	
  6403                           l491:
  6404  000B4C                     	line	134
  6405                           ;application.c: 134:             }
  6406                           	goto	l528
  6407  000B4C  EF96  F007         	line	135
  6408                           ;application.c: 135:             else if(PBRead(2) == 1)
  6409                           	
  6410                           l490:
  6411  000B50                     	
  6412                           l3056:
  6413  000B50                     	movlw	(02h)&0ffh
  6414  000B50  0E02               	
  6415                           	call	_PBRead
  6416  000B52  EC35  F011         	decf	wreg
  6417  000B56  06E8               	btfss	status,2
  6418  000B58  A4D8               	goto	u3881
  6419  000B5A  EFB1  F005         	goto	u3880
  6420  000B5E  EFB3  F005         u3881:
  6421  000B62                     	goto	l3062
  6422  000B62  EFCC  F005         u3880:
  6423  000B66                     	line	137
  6424                           	
  6425                           l3058:
  6426  000B66                     ;application.c: 136:             {;application.c: 137:                 delay(50);
  6427                           	movlw	high(032h)
  6428  000B66  0E00               	movwf	((c:delay@milis+1)),c
  6429  000B68  6E02               	movlw	low(032h)
  6430  000B6A  0E32               	movwf	((c:delay@milis)),c
  6431  000B6C  6E01               	call	_delay	;wreg free
  6432  000B6E  EC97  F010         	line	138
  6433                           ;application.c: 138:                 if(PBRead(2) == 1)
  6434                           	movlw	(02h)&0ffh
  6435  000B72  0E02               	
  6436                           	call	_PBRead
  6437  000B74  EC35  F011         	decf	wreg
  6438  000B78  06E8               	btfss	status,2
  6439  000B7A  A4D8               	goto	u3891
  6440  000B7C  EFC2  F005         	goto	u3890
  6441  000B80  EFC4  F005         u3891:
  6442  000B84                     	goto	l528
  6443  000B84  EF96  F007         u3890:
  6444  000B88                     	line	140
  6445                           	
  6446                           l3060:
  6447  000B88                     ;application.c: 139:                 {;application.c: 140:                     estado = 
                                 plusvel;
  6448                           	movlw	high(05h)
  6449  000B88  0E00               	movwf	((c:_estado+1)),c
  6450  000B8A  6E4D               	movlw	low(05h)
  6451  000B8C  0E05               	movwf	((c:_estado)),c
  6452  000B8E  6E4C               	goto	l528
  6453  000B90  EF96  F007         	line	141
  6454                           ;application.c: 141:                 }
  6455                           	
  6456                           l494:
  6457  000B94                     	line	142
  6458                           ;application.c: 142:             }
  6459                           	goto	l528
  6460  000B94  EF96  F007         	line	143
  6461                           ;application.c: 143:             else if(PBRead(2) == 1)
  6462                           	
  6463                           l493:
  6464  000B98                     	
  6465                           l3062:
  6466  000B98                     	movlw	(02h)&0ffh
  6467  000B98  0E02               	
  6468                           	call	_PBRead
  6469  000B9A  EC35  F011         	decf	wreg
  6470  000B9E  06E8               	btfss	status,2
  6471  000BA0  A4D8               	goto	u3901
  6472  000BA2  EFD5  F005         	goto	u3900
  6473  000BA6  EFD7  F005         u3901:
  6474  000BAA                     	goto	l3068
  6475  000BAA  EFF0  F005         u3900:
  6476  000BAE                     	line	145
  6477                           	
  6478                           l3064:
  6479  000BAE                     ;application.c: 144:             {;application.c: 145:                 delay(50);
  6480                           	movlw	high(032h)
  6481  000BAE  0E00               	movwf	((c:delay@milis+1)),c
  6482  000BB0  6E02               	movlw	low(032h)
  6483  000BB2  0E32               	movwf	((c:delay@milis)),c
  6484  000BB4  6E01               	call	_delay	;wreg free
  6485  000BB6  EC97  F010         	line	146
  6486                           ;application.c: 146:                 if(PBRead(2) == 1)
  6487                           	movlw	(02h)&0ffh
  6488  000BBA  0E02               	
  6489                           	call	_PBRead
  6490  000BBC  EC35  F011         	decf	wreg
  6491  000BC0  06E8               	btfss	status,2
  6492  000BC2  A4D8               	goto	u3911
  6493  000BC4  EFE6  F005         	goto	u3910
  6494  000BC8  EFE8  F005         u3911:
  6495  000BCC                     	goto	l528
  6496  000BCC  EF96  F007         u3910:
  6497  000BD0                     	line	148
  6498                           	
  6499                           l3066:
  6500  000BD0                     ;application.c: 147:                 {;application.c: 148:                     estado = 
                                 minusvel;
  6501                           	movlw	high(06h)
  6502  000BD0  0E00               	movwf	((c:_estado+1)),c
  6503  000BD2  6E4D               	movlw	low(06h)
  6504  000BD4  0E06               	movwf	((c:_estado)),c
  6505  000BD6  6E4C               	goto	l528
  6506  000BD8  EF96  F007         	line	149
  6507                           ;application.c: 149:                 }
  6508                           	
  6509                           l497:
  6510  000BDC                     	line	150
  6511                           ;application.c: 150:             }
  6512                           	goto	l528
  6513  000BDC  EF96  F007         	line	151
  6514                           ;application.c: 151:             else
  6515                           	
  6516                           l496:
  6517  000BE0                     	line	153
  6518                           	
  6519                           l3068:
  6520  000BE0                     ;application.c: 152:             {;application.c: 153:                 estado = right;
  6521                           	movlw	high(03h)
  6522  000BE0  0E00               	movwf	((c:_estado+1)),c
  6523  000BE2  6E4D               	movlw	low(03h)
  6524  000BE4  0E03               	movwf	((c:_estado)),c
  6525  000BE6  6E4C               	goto	l528
  6526  000BE8  EF96  F007         	line	154
  6527                           ;application.c: 154:             }
  6528                           	
  6529                           l498:
  6530  000BEC                     	goto	l528
  6531  000BEC  EF96  F007         	
  6532                           l495:
  6533  000BF0                     	goto	l528
  6534  000BF0  EF96  F007         	
  6535                           l492:
  6536  000BF4                     	line	155
  6537                           ;application.c: 155:             break;
  6538                           	goto	l528
  6539  000BF4  EF96  F007         	line	156
  6540                           ;application.c: 156:         case stoped:
  6541                           	
  6542                           l499:
  6543  000BF8                     	line	157
  6544                           	
  6545                           l3070:
  6546  000BF8                     ;application.c: 157:             stop();
  6547                           	call	_stop	;wreg free
  6548  000BF8  ECE8  F011         	line	158
  6549                           ;application.c: 158:             if(PBRead(0) == 1)
  6550                           	movlw	(0)&0ffh
  6551  000BFC  0E00               	
  6552                           	call	_PBRead
  6553  000BFE  EC35  F011         	decf	wreg
  6554  000C02  06E8               	btfss	status,2
  6555  000C04  A4D8               	goto	u3921
  6556  000C06  EF07  F006         	goto	u3920
  6557  000C0A  EF09  F006         u3921:
  6558  000C0E                     	goto	l3076
  6559  000C0E  EF22  F006         u3920:
  6560  000C12                     	line	160
  6561                           	
  6562                           l3072:
  6563  000C12                     ;application.c: 159:             {;application.c: 160:                 delay(50);
  6564                           	movlw	high(032h)
  6565  000C12  0E00               	movwf	((c:delay@milis+1)),c
  6566  000C14  6E02               	movlw	low(032h)
  6567  000C16  0E32               	movwf	((c:delay@milis)),c
  6568  000C18  6E01               	call	_delay	;wreg free
  6569  000C1A  EC97  F010         	line	161
  6570                           ;application.c: 161:                 if(PBRead(0) == 1)
  6571                           	movlw	(0)&0ffh
  6572  000C1E  0E00               	
  6573                           	call	_PBRead
  6574  000C20  EC35  F011         	decf	wreg
  6575  000C24  06E8               	btfss	status,2
  6576  000C26  A4D8               	goto	u3931
  6577  000C28  EF18  F006         	goto	u3930
  6578  000C2C  EF1A  F006         u3931:
  6579  000C30                     	goto	l528
  6580  000C30  EF96  F007         u3930:
  6581  000C34                     	line	163
  6582                           	
  6583                           l3074:
  6584  000C34                     ;application.c: 162:                 {;application.c: 163:                     estado = 
                                 backward;
  6585                           	movlw	high(01h)
  6586  000C34  0E00               	movwf	((c:_estado+1)),c
  6587  000C36  6E4D               	movlw	low(01h)
  6588  000C38  0E01               	movwf	((c:_estado)),c
  6589  000C3A  6E4C               	goto	l528
  6590  000C3C  EF96  F007         	line	164
  6591                           ;application.c: 164:                 }
  6592                           	
  6593                           l501:
  6594  000C40                     	line	165
  6595                           ;application.c: 165:             }
  6596                           	goto	l528
  6597  000C40  EF96  F007         	line	166
  6598                           ;application.c: 166:             else if(PBRead(2) == 1)
  6599                           	
  6600                           l500:
  6601  000C44                     	
  6602                           l3076:
  6603  000C44                     	movlw	(02h)&0ffh
  6604  000C44  0E02               	
  6605                           	call	_PBRead
  6606  000C46  EC35  F011         	decf	wreg
  6607  000C4A  06E8               	btfss	status,2
  6608  000C4C  A4D8               	goto	u3941
  6609  000C4E  EF2B  F006         	goto	u3940
  6610  000C52  EF2D  F006         u3941:
  6611  000C56                     	goto	l3082
  6612  000C56  EF46  F006         u3940:
  6613  000C5A                     	line	168
  6614                           	
  6615                           l3078:
  6616  000C5A                     ;application.c: 167:             {;application.c: 168:                 delay(50);
  6617                           	movlw	high(032h)
  6618  000C5A  0E00               	movwf	((c:delay@milis+1)),c
  6619  000C5C  6E02               	movlw	low(032h)
  6620  000C5E  0E32               	movwf	((c:delay@milis)),c
  6621  000C60  6E01               	call	_delay	;wreg free
  6622  000C62  EC97  F010         	line	169
  6623                           ;application.c: 169:                 if(PBRead(2) == 1)
  6624                           	movlw	(02h)&0ffh
  6625  000C66  0E02               	
  6626                           	call	_PBRead
  6627  000C68  EC35  F011         	decf	wreg
  6628  000C6C  06E8               	btfss	status,2
  6629  000C6E  A4D8               	goto	u3951
  6630  000C70  EF3C  F006         	goto	u3950
  6631  000C74  EF3E  F006         u3951:
  6632  000C78                     	goto	l528
  6633  000C78  EF96  F007         u3950:
  6634  000C7C                     	line	171
  6635                           	
  6636                           l3080:
  6637  000C7C                     ;application.c: 170:                 {;application.c: 171:                     estado = 
                                 plusvel;
  6638                           	movlw	high(05h)
  6639  000C7C  0E00               	movwf	((c:_estado+1)),c
  6640  000C7E  6E4D               	movlw	low(05h)
  6641  000C80  0E05               	movwf	((c:_estado)),c
  6642  000C82  6E4C               	goto	l528
  6643  000C84  EF96  F007         	line	172
  6644                           ;application.c: 172:                 }
  6645                           	
  6646                           l504:
  6647  000C88                     	line	173
  6648                           ;application.c: 173:             }
  6649                           	goto	l528
  6650  000C88  EF96  F007         	line	174
  6651                           ;application.c: 174:             else if(PBRead(2) == 1)
  6652                           	
  6653                           l503:
  6654  000C8C                     	
  6655                           l3082:
  6656  000C8C                     	movlw	(02h)&0ffh
  6657  000C8C  0E02               	
  6658                           	call	_PBRead
  6659  000C8E  EC35  F011         	decf	wreg
  6660  000C92  06E8               	btfss	status,2
  6661  000C94  A4D8               	goto	u3961
  6662  000C96  EF4F  F006         	goto	u3960
  6663  000C9A  EF51  F006         u3961:
  6664  000C9E                     	goto	l3088
  6665  000C9E  EF6A  F006         u3960:
  6666  000CA2                     	line	176
  6667                           	
  6668                           l3084:
  6669  000CA2                     ;application.c: 175:             {;application.c: 176:                 delay(50);
  6670                           	movlw	high(032h)
  6671  000CA2  0E00               	movwf	((c:delay@milis+1)),c
  6672  000CA4  6E02               	movlw	low(032h)
  6673  000CA6  0E32               	movwf	((c:delay@milis)),c
  6674  000CA8  6E01               	call	_delay	;wreg free
  6675  000CAA  EC97  F010         	line	177
  6676                           ;application.c: 177:                 if(PBRead(2) == 1)
  6677                           	movlw	(02h)&0ffh
  6678  000CAE  0E02               	
  6679                           	call	_PBRead
  6680  000CB0  EC35  F011         	decf	wreg
  6681  000CB4  06E8               	btfss	status,2
  6682  000CB6  A4D8               	goto	u3971
  6683  000CB8  EF60  F006         	goto	u3970
  6684  000CBC  EF62  F006         u3971:
  6685  000CC0                     	goto	l528
  6686  000CC0  EF96  F007         u3970:
  6687  000CC4                     	line	179
  6688                           	
  6689                           l3086:
  6690  000CC4                     ;application.c: 178:                 {;application.c: 179:                     estado = 
                                 minusvel;
  6691                           	movlw	high(06h)
  6692  000CC4  0E00               	movwf	((c:_estado+1)),c
  6693  000CC6  6E4D               	movlw	low(06h)
  6694  000CC8  0E06               	movwf	((c:_estado)),c
  6695  000CCA  6E4C               	goto	l528
  6696  000CCC  EF96  F007         	line	180
  6697                           ;application.c: 180:                 }
  6698                           	
  6699                           l507:
  6700  000CD0                     	line	181
  6701                           ;application.c: 181:             }
  6702                           	goto	l528
  6703  000CD0  EF96  F007         	line	182
  6704                           ;application.c: 182:             else
  6705                           	
  6706                           l506:
  6707  000CD4                     	line	184
  6708                           	
  6709                           l3088:
  6710  000CD4                     ;application.c: 183:             {;application.c: 184:                 estado = stoped;

  6711                           	movlw	high(04h)
  6712  000CD4  0E00               	movwf	((c:_estado+1)),c
  6713  000CD6  6E4D               	movlw	low(04h)
  6714  000CD8  0E04               	movwf	((c:_estado)),c
  6715  000CDA  6E4C               	goto	l528
  6716  000CDC  EF96  F007         	line	185
  6717                           ;application.c: 185:             }
  6718                           	
  6719                           l508:
  6720  000CE0                     	goto	l528
  6721  000CE0  EF96  F007         	
  6722                           l505:
  6723  000CE4                     	goto	l528
  6724  000CE4  EF96  F007         	
  6725                           l502:
  6726  000CE8                     	line	186
  6727                           ;application.c: 186:             break;
  6728                           	goto	l528
  6729  000CE8  EF96  F007         	line	187
  6730                           ;application.c: 187:         case plusvel:
  6731                           	
  6732                           l509:
  6733  000CEC                     	line	188
  6734                           	
  6735                           l3090:
  6736  000CEC                     ;application.c: 188:             vel = 300;
  6737                           	movlw	high(012Ch)
  6738  000CEC  0E01               	movwf	((c:_vel+1)),c
  6739  000CEE  6E51               	movlw	low(012Ch)
  6740  000CF0  0E2C               	movwf	((c:_vel)),c
  6741  000CF2  6E50               	line	189
  6742                           	
  6743                           l3092:
  6744  000CF4                     ;application.c: 189:             if(PBRead(0) == 1)
  6745                           	movlw	(0)&0ffh
  6746  000CF4  0E00               	
  6747                           	call	_PBRead
  6748  000CF6  EC35  F011         	decf	wreg
  6749  000CFA  06E8               	btfss	status,2
  6750  000CFC  A4D8               	goto	u3981
  6751  000CFE  EF83  F006         	goto	u3980
  6752  000D02  EF85  F006         u3981:
  6753  000D06                     	goto	l3098
  6754  000D06  EF9E  F006         u3980:
  6755  000D0A                     	line	191
  6756                           	
  6757                           l3094:
  6758  000D0A                     ;application.c: 190:             {;application.c: 191:                 delay(50);
  6759                           	movlw	high(032h)
  6760  000D0A  0E00               	movwf	((c:delay@milis+1)),c
  6761  000D0C  6E02               	movlw	low(032h)
  6762  000D0E  0E32               	movwf	((c:delay@milis)),c
  6763  000D10  6E01               	call	_delay	;wreg free
  6764  000D12  EC97  F010         	line	192
  6765                           ;application.c: 192:                 if(PBRead(0) == 1)
  6766                           	movlw	(0)&0ffh
  6767  000D16  0E00               	
  6768                           	call	_PBRead
  6769  000D18  EC35  F011         	decf	wreg
  6770  000D1C  06E8               	btfss	status,2
  6771  000D1E  A4D8               	goto	u3991
  6772  000D20  EF94  F006         	goto	u3990
  6773  000D24  EF96  F006         u3991:
  6774  000D28                     	goto	l512
  6775  000D28  EFE8  F006         u3990:
  6776  000D2C                     	line	194
  6777                           	
  6778                           l3096:
  6779  000D2C                     ;application.c: 193:                 {;application.c: 194:                     estado = 
                                 backward;
  6780                           	movlw	high(01h)
  6781  000D2C  0E00               	movwf	((c:_estado+1)),c
  6782  000D2E  6E4D               	movlw	low(01h)
  6783  000D30  0E01               	movwf	((c:_estado)),c
  6784  000D32  6E4C               	goto	l512
  6785  000D34  EFE8  F006         	line	195
  6786                           ;application.c: 195:                 }
  6787                           	
  6788                           l511:
  6789  000D38                     	line	196
  6790                           ;application.c: 196:             }
  6791                           	goto	l512
  6792  000D38  EFE8  F006         	line	197
  6793                           ;application.c: 197:             else if(PBRead(2) == 1)
  6794                           	
  6795                           l510:
  6796  000D3C                     	
  6797                           l3098:
  6798  000D3C                     	movlw	(02h)&0ffh
  6799  000D3C  0E02               	
  6800                           	call	_PBRead
  6801  000D3E  EC35  F011         	decf	wreg
  6802  000D42  06E8               	btfss	status,2
  6803  000D44  A4D8               	goto	u4001
  6804  000D46  EFA7  F006         	goto	u4000
  6805  000D4A  EFA9  F006         u4001:
  6806  000D4E                     	goto	l3104
  6807  000D4E  EFC2  F006         u4000:
  6808  000D52                     	line	199
  6809                           	
  6810                           l3100:
  6811  000D52                     ;application.c: 198:             {;application.c: 199:                 delay(50);
  6812                           	movlw	high(032h)
  6813  000D52  0E00               	movwf	((c:delay@milis+1)),c
  6814  000D54  6E02               	movlw	low(032h)
  6815  000D56  0E32               	movwf	((c:delay@milis)),c
  6816  000D58  6E01               	call	_delay	;wreg free
  6817  000D5A  EC97  F010         	line	200
  6818                           ;application.c: 200:                 if(PBRead(2) == 1)
  6819                           	movlw	(02h)&0ffh
  6820  000D5E  0E02               	
  6821                           	call	_PBRead
  6822  000D60  EC35  F011         	decf	wreg
  6823  000D64  06E8               	btfss	status,2
  6824  000D66  A4D8               	goto	u4011
  6825  000D68  EFB8  F006         	goto	u4010
  6826  000D6C  EFBA  F006         u4011:
  6827  000D70                     	goto	l512
  6828  000D70  EFE8  F006         u4010:
  6829  000D74                     	line	202
  6830                           	
  6831                           l3102:
  6832  000D74                     ;application.c: 201:                 {;application.c: 202:                     estado = 
                                 plusvel;
  6833                           	movlw	high(05h)
  6834  000D74  0E00               	movwf	((c:_estado+1)),c
  6835  000D76  6E4D               	movlw	low(05h)
  6836  000D78  0E05               	movwf	((c:_estado)),c
  6837  000D7A  6E4C               	goto	l512
  6838  000D7C  EFE8  F006         	line	203
  6839                           ;application.c: 203:                 }
  6840                           	
  6841                           l514:
  6842  000D80                     	line	204
  6843                           ;application.c: 204:             }
  6844                           	goto	l512
  6845  000D80  EFE8  F006         	line	205
  6846                           ;application.c: 205:             else if(PBRead(2) == 1)
  6847                           	
  6848                           l513:
  6849  000D84                     	
  6850                           l3104:
  6851  000D84                     	movlw	(02h)&0ffh
  6852  000D84  0E02               	
  6853                           	call	_PBRead
  6854  000D86  EC35  F011         	decf	wreg
  6855  000D8A  06E8               	btfss	status,2
  6856  000D8C  A4D8               	goto	u4021
  6857  000D8E  EFCB  F006         	goto	u4020
  6858  000D92  EFCD  F006         u4021:
  6859  000D96                     	goto	l512
  6860  000D96  EFE8  F006         u4020:
  6861  000D9A                     	line	207
  6862                           	
  6863                           l3106:
  6864  000D9A                     ;application.c: 206:             {;application.c: 207:                 delay(50);
  6865                           	movlw	high(032h)
  6866  000D9A  0E00               	movwf	((c:delay@milis+1)),c
  6867  000D9C  6E02               	movlw	low(032h)
  6868  000D9E  0E32               	movwf	((c:delay@milis)),c
  6869  000DA0  6E01               	call	_delay	;wreg free
  6870  000DA2  EC97  F010         	line	208
  6871                           ;application.c: 208:                 if(PBRead(2) == 1)
  6872                           	movlw	(02h)&0ffh
  6873  000DA6  0E02               	
  6874                           	call	_PBRead
  6875  000DA8  EC35  F011         	decf	wreg
  6876  000DAC  06E8               	btfss	status,2
  6877  000DAE  A4D8               	goto	u4031
  6878  000DB0  EFDC  F006         	goto	u4030
  6879  000DB4  EFDE  F006         u4031:
  6880  000DB8                     	goto	l512
  6881  000DB8  EFE8  F006         u4030:
  6882  000DBC                     	line	210
  6883                           	
  6884                           l3108:
  6885  000DBC                     ;application.c: 209:                 {;application.c: 210:                     estado = 
                                 minusvel;
  6886                           	movlw	high(06h)
  6887  000DBC  0E00               	movwf	((c:_estado+1)),c
  6888  000DBE  6E4D               	movlw	low(06h)
  6889  000DC0  0E06               	movwf	((c:_estado)),c
  6890  000DC2  6E4C               	goto	l512
  6891  000DC4  EFE8  F006         	line	211
  6892                           ;application.c: 211:                 }
  6893                           	
  6894                           l517:
  6895  000DC8                     	goto	l512
  6896  000DC8  EFE8  F006         	line	212
  6897                           ;application.c: 212:             }
  6898                           	
  6899                           l516:
  6900  000DCC                     	goto	l512
  6901  000DCC  EFE8  F006         	
  6902                           l515:
  6903  000DD0                     	
  6904                           l512:
  6905  000DD0                     	line	213
  6906                           ;application.c: 213:             estado = backward;
  6907                           	movlw	high(01h)
  6908  000DD0  0E00               	movwf	((c:_estado+1)),c
  6909  000DD2  6E4D               	movlw	low(01h)
  6910  000DD4  0E01               	movwf	((c:_estado)),c
  6911  000DD6  6E4C               	line	214
  6912                           ;application.c: 214:             break;
  6913                           	goto	l528
  6914  000DD8  EF96  F007         	line	215
  6915                           ;application.c: 215:         case minusvel:
  6916                           	
  6917                           l518:
  6918  000DDC                     	line	216
  6919                           	
  6920                           l3110:
  6921  000DDC                     ;application.c: 216:             vel = 150;
  6922                           	movlw	high(096h)
  6923  000DDC  0E00               	movwf	((c:_vel+1)),c
  6924  000DDE  6E51               	movlw	low(096h)
  6925  000DE0  0E96               	movwf	((c:_vel)),c
  6926  000DE2  6E50               	line	217
  6927                           	
  6928                           l3112:
  6929  000DE4                     ;application.c: 217:             if(PBRead(0) == 1)
  6930                           	movlw	(0)&0ffh
  6931  000DE4  0E00               	
  6932                           	call	_PBRead
  6933  000DE6  EC35  F011         	decf	wreg
  6934  000DEA  06E8               	btfss	status,2
  6935  000DEC  A4D8               	goto	u4041
  6936  000DEE  EFFB  F006         	goto	u4040
  6937  000DF2  EFFD  F006         u4041:
  6938  000DF6                     	goto	l3118
  6939  000DF6  EF16  F007         u4040:
  6940  000DFA                     	line	219
  6941                           	
  6942                           l3114:
  6943  000DFA                     ;application.c: 218:             {;application.c: 219:                 delay(50);
  6944                           	movlw	high(032h)
  6945  000DFA  0E00               	movwf	((c:delay@milis+1)),c
  6946  000DFC  6E02               	movlw	low(032h)
  6947  000DFE  0E32               	movwf	((c:delay@milis)),c
  6948  000E00  6E01               	call	_delay	;wreg free
  6949  000E02  EC97  F010         	line	220
  6950                           ;application.c: 220:                 if(PBRead(0) == 1)
  6951                           	movlw	(0)&0ffh
  6952  000E06  0E00               	
  6953                           	call	_PBRead
  6954  000E08  EC35  F011         	decf	wreg
  6955  000E0C  06E8               	btfss	status,2
  6956  000E0E  A4D8               	goto	u4051
  6957  000E10  EF0C  F007         	goto	u4050
  6958  000E14  EF0E  F007         u4051:
  6959  000E18                     	goto	l528
  6960  000E18  EF96  F007         u4050:
  6961  000E1C                     	line	222
  6962                           	
  6963                           l3116:
  6964  000E1C                     ;application.c: 221:                 {;application.c: 222:                     estado = 
                                 backward;
  6965                           	movlw	high(01h)
  6966  000E1C  0E00               	movwf	((c:_estado+1)),c
  6967  000E1E  6E4D               	movlw	low(01h)
  6968  000E20  0E01               	movwf	((c:_estado)),c
  6969  000E22  6E4C               	goto	l528
  6970  000E24  EF96  F007         	line	223
  6971                           ;application.c: 223:                 }
  6972                           	
  6973                           l520:
  6974  000E28                     	line	224
  6975                           ;application.c: 224:             }
  6976                           	goto	l528
  6977  000E28  EF96  F007         	line	225
  6978                           ;application.c: 225:             else if(PBRead(2) == 1)
  6979                           	
  6980                           l519:
  6981  000E2C                     	
  6982                           l3118:
  6983  000E2C                     	movlw	(02h)&0ffh
  6984  000E2C  0E02               	
  6985                           	call	_PBRead
  6986  000E2E  EC35  F011         	decf	wreg
  6987  000E32  06E8               	btfss	status,2
  6988  000E34  A4D8               	goto	u4061
  6989  000E36  EF1F  F007         	goto	u4060
  6990  000E3A  EF21  F007         u4061:
  6991  000E3E                     	goto	l3124
  6992  000E3E  EF3A  F007         u4060:
  6993  000E42                     	line	227
  6994                           	
  6995                           l3120:
  6996  000E42                     ;application.c: 226:             {;application.c: 227:                 delay(50);
  6997                           	movlw	high(032h)
  6998  000E42  0E00               	movwf	((c:delay@milis+1)),c
  6999  000E44  6E02               	movlw	low(032h)
  7000  000E46  0E32               	movwf	((c:delay@milis)),c
  7001  000E48  6E01               	call	_delay	;wreg free
  7002  000E4A  EC97  F010         	line	228
  7003                           ;application.c: 228:                 if(PBRead(2) == 1)
  7004                           	movlw	(02h)&0ffh
  7005  000E4E  0E02               	
  7006                           	call	_PBRead
  7007  000E50  EC35  F011         	decf	wreg
  7008  000E54  06E8               	btfss	status,2
  7009  000E56  A4D8               	goto	u4071
  7010  000E58  EF30  F007         	goto	u4070
  7011  000E5C  EF32  F007         u4071:
  7012  000E60                     	goto	l528
  7013  000E60  EF96  F007         u4070:
  7014  000E64                     	line	230
  7015                           	
  7016                           l3122:
  7017  000E64                     ;application.c: 229:                 {;application.c: 230:                     estado = 
                                 plusvel;
  7018                           	movlw	high(05h)
  7019  000E64  0E00               	movwf	((c:_estado+1)),c
  7020  000E66  6E4D               	movlw	low(05h)
  7021  000E68  0E05               	movwf	((c:_estado)),c
  7022  000E6A  6E4C               	goto	l528
  7023  000E6C  EF96  F007         	line	231
  7024                           ;application.c: 231:                 }
  7025                           	
  7026                           l523:
  7027  000E70                     	line	232
  7028                           ;application.c: 232:             }
  7029                           	goto	l528
  7030  000E70  EF96  F007         	line	233
  7031                           ;application.c: 233:             else if(PBRead(2) == 1)
  7032                           	
  7033                           l522:
  7034  000E74                     	
  7035                           l3124:
  7036  000E74                     	movlw	(02h)&0ffh
  7037  000E74  0E02               	
  7038                           	call	_PBRead
  7039  000E76  EC35  F011         	decf	wreg
  7040  000E7A  06E8               	btfss	status,2
  7041  000E7C  A4D8               	goto	u4081
  7042  000E7E  EF43  F007         	goto	u4080
  7043  000E82  EF45  F007         u4081:
  7044  000E86                     	goto	l3130
  7045  000E86  EF5E  F007         u4080:
  7046  000E8A                     	line	235
  7047                           	
  7048                           l3126:
  7049  000E8A                     ;application.c: 234:             {;application.c: 235:                 delay(50);
  7050                           	movlw	high(032h)
  7051  000E8A  0E00               	movwf	((c:delay@milis+1)),c
  7052  000E8C  6E02               	movlw	low(032h)
  7053  000E8E  0E32               	movwf	((c:delay@milis)),c
  7054  000E90  6E01               	call	_delay	;wreg free
  7055  000E92  EC97  F010         	line	236
  7056                           ;application.c: 236:                 if(PBRead(2) == 1)
  7057                           	movlw	(02h)&0ffh
  7058  000E96  0E02               	
  7059                           	call	_PBRead
  7060  000E98  EC35  F011         	decf	wreg
  7061  000E9C  06E8               	btfss	status,2
  7062  000E9E  A4D8               	goto	u4091
  7063  000EA0  EF54  F007         	goto	u4090
  7064  000EA4  EF56  F007         u4091:
  7065  000EA8                     	goto	l528
  7066  000EA8  EF96  F007         u4090:
  7067  000EAC                     	line	238
  7068                           	
  7069                           l3128:
  7070  000EAC                     ;application.c: 237:                 {;application.c: 238:                     estado = 
                                 minusvel;
  7071                           	movlw	high(06h)
  7072  000EAC  0E00               	movwf	((c:_estado+1)),c
  7073  000EAE  6E4D               	movlw	low(06h)
  7074  000EB0  0E06               	movwf	((c:_estado)),c
  7075  000EB2  6E4C               	goto	l528
  7076  000EB4  EF96  F007         	line	239
  7077                           ;application.c: 239:                 }
  7078                           	
  7079                           l526:
  7080  000EB8                     	line	240
  7081                           ;application.c: 240:             }
  7082                           	goto	l528
  7083  000EB8  EF96  F007         	line	241
  7084                           ;application.c: 241:             else
  7085                           	
  7086                           l525:
  7087  000EBC                     	line	243
  7088                           	
  7089                           l3130:
  7090  000EBC                     ;application.c: 242:             {;application.c: 243:                 estado = backward
                                 ;
  7091                           	movlw	high(01h)
  7092  000EBC  0E00               	movwf	((c:_estado+1)),c
  7093  000EBE  6E4D               	movlw	low(01h)
  7094  000EC0  0E01               	movwf	((c:_estado)),c
  7095  000EC2  6E4C               	goto	l528
  7096  000EC4  EF96  F007         	line	244
  7097                           ;application.c: 244:             }
  7098                           	
  7099                           l527:
  7100  000EC8                     	goto	l528
  7101  000EC8  EF96  F007         	
  7102                           l524:
  7103  000ECC                     	goto	l528
  7104  000ECC  EF96  F007         	
  7105                           l521:
  7106  000ED0                     	line	245
  7107                           ;application.c: 245:             break;
  7108                           	goto	l528
  7109  000ED0  EF96  F007         	line	247
  7110                           	
  7111                           l3132:
  7112  000ED4                     ;application.c: 247:     }
  7113                           	goto	l528
  7114  000ED4  EF96  F007         	
  7115                           l458:
  7116  000ED8                     	
  7117                           l3134:
  7118  000ED8                     	movff	(c:_estado),??_loop+0+0
  7119  000ED8  C04C  F008         	movff	(c:_estado+1),??_loop+0+0+1
  7120  000EDC  C04D  F009         	; Switch on 2 bytes has been partitioned into a top level switch of size 1, and 1 sub-s
                                 witches
  7121                           ; Switch size 1, requested type "space"
  7122                           ; Number of cases is 1, Range of values is 0 to 0
  7123                           ; switch strategies available:
  7124                           ; Name         Instructions Cycles
  7125                           ; simple_byte            4     3 (average)
  7126                           ;	Chosen strategy is simple_byte
  7127                           
  7128                           	movf ??_loop+0+1,c,w
  7129  000EE0  5009               	xorlw	0^0	; case 0
  7130  000EE2  0A00               	skipnz
  7131  000EE4  B4D8               	goto	l3252
  7132  000EE6  EF77  F007         	goto	l528
  7133  000EEA  EF96  F007         	
  7134                           l3252:
  7135  000EEE                     ; Switch size 1, requested type "space"
  7136                           ; Number of cases is 7, Range of values is 0 to 6
  7137                           ; switch strategies available:
  7138                           ; Name         Instructions Cycles
  7139                           ; simple_byte           22    12 (average)
  7140                           ;	Chosen strategy is simple_byte
  7141                           
  7142                           	movf ??_loop+0+0,c,w
  7143  000EEE  5008               	xorlw	0^0	; case 0
  7144  000EF0  0A00               	skipnz
  7145  000EF2  B4D8               	goto	l2992
  7146  000EF4  EF08  F004         	xorlw	1^0	; case 1
  7147  000EF8  0A01               	skipnz
  7148  000EFA  B4D8               	goto	l3012
  7149  000EFC  EF86  F004         	xorlw	2^1	; case 2
  7150  000F00  0A03               	skipnz
  7151  000F02  B4D8               	goto	l3030
  7152  000F04  EF00  F005         	xorlw	3^2	; case 3
  7153  000F08  0A01               	skipnz
  7154  000F0A  B4D8               	goto	l3050
  7155  000F0C  EF7E  F005         	xorlw	4^3	; case 4
  7156  000F10  0A07               	skipnz
  7157  000F12  B4D8               	goto	l3070
  7158  000F14  EFFC  F005         	xorlw	5^4	; case 5
  7159  000F18  0A01               	skipnz
  7160  000F1A  B4D8               	goto	l3090
  7161  000F1C  EF76  F006         	xorlw	6^5	; case 6
  7162  000F20  0A03               	skipnz
  7163  000F22  B4D8               	goto	l3110
  7164  000F24  EFEE  F006         	goto	l528
  7165  000F28  EF96  F007         
  7166                           	
  7167                           l469:
  7168  000F2C                     	line	248
  7169                           	
  7170                           l528:
  7171  000F2C                     	return	;funcret
  7172  000F2C  0012               	opt stack 0
  7173                           GLOBAL	__end_of_loop
  7174                           	__end_of_loop:
  7175  000F2E                     	signat	_loop,89
  7176                           	global	_stop
  7177                           
  7178 ;; *************** function _stop *****************
  7179 ;; Defined at:
  7180 ;;		line 307 in file "application.c"
  7181 ;; Parameters:    Size  Location     Type
  7182 ;;		None
  7183 ;; Auto vars:     Size  Location     Type
  7184 ;;		None
  7185 ;; Return value:  Size  Location     Type
  7186 ;;                  1    wreg      void 
  7187 ;; Registers used:
  7188 ;;		wreg, status,2, status,0, cstack
  7189 ;; Tracked objects:
  7190 ;;		On entry : 0/0
  7191 ;;		On exit  : 0/0
  7192 ;;		Unchanged: 0/0
  7193 ;; Data sizes:     COMRAM   BANK0   BANK1   BANK2   BANK3   BANK4   BANK5   BANK6   BANK7
  7194 ;;      Params:         0       0       0       0       0       0       0       0       0
  7195 ;;      Locals:         0       0       0       0       0       0       0       0       0
  7196 ;;      Temps:          0       0       0       0       0       0       0       0       0
  7197 ;;      Totals:         0       0       0       0       0       0       0       0       0
  7198 ;;Total ram usage:        0 bytes
  7199 ;; Hardware stack levels used:    1
  7200 ;; Hardware stack levels required when called:    2
  7201 ;; This function calls:
  7202 ;;		_analogWrite
  7203 ;;		_digitalWrite
  7204 ;; This function is called by:
  7205 ;;		_loop
  7206 ;; This function uses a non-reentrant model
  7207 ;;
  7208                           psect	text12,class=CODE,space=0,reloc=2,group=0
  7209                           	line	307
  7210                           global __ptext12
  7211                           __ptext12:
  7212  0023D0                     psect	text12
  7213                           	file	"application.c"
  7214                           	line	307
  7215                           	global	__size_of_stop
  7216                           	__size_of_stop	equ	__end_of_stop-_stop
  7217  0000                     	
  7218                           _stop:
  7219  0023D0                     ;incstack = 0
  7220                           	opt	stack 27
  7221                           	line	309
  7222                           	
  7223                           l2976:
  7224  0023D0                     ;application.c: 309:  digitalWrite(5,0);
  7225                           	movlw	low(0)
  7226  0023D0  0E00               	movwf	((c:digitalWrite@mode)),c
  7227  0023D2  6E01               	movlw	(05h)&0ffh
  7228  0023D4  0E05               	
  7229                           	call	_digitalWrite
  7230  0023D6  EC79  F00D         	line	310
  7231                           ;application.c: 310:  digitalWrite(6,0);
  7232                           	movlw	low(0)
  7233  0023DA  0E00               	movwf	((c:digitalWrite@mode)),c
  7234  0023DC  6E01               	movlw	(06h)&0ffh
  7235  0023DE  0E06               	
  7236                           	call	_digitalWrite
  7237  0023E0  EC79  F00D         	line	312
  7238                           ;application.c: 312:  digitalWrite(7,0);
  7239                           	movlw	low(0)
  7240  0023E4  0E00               	movwf	((c:digitalWrite@mode)),c
  7241  0023E6  6E01               	movlw	(07h)&0ffh
  7242  0023E8  0E07               	
  7243                           	call	_digitalWrite
  7244  0023EA  EC79  F00D         	line	313
  7245                           ;application.c: 313:  digitalWrite(8,0);
  7246                           	movlw	low(0)
  7247  0023EE  0E00               	movwf	((c:digitalWrite@mode)),c
  7248  0023F0  6E01               	movlw	(08h)&0ffh
  7249  0023F2  0E08               	
  7250                           	call	_digitalWrite
  7251  0023F4  EC79  F00D         	line	315
  7252                           ;application.c: 315:  analogWrite(3,0);
  7253                           	movlw	high(0)
  7254  0023F8  0E00               	movwf	((c:analogWrite@value+1)),c
  7255  0023FA  6E02               	movlw	low(0)
  7256  0023FC  0E00               	movwf	((c:analogWrite@value)),c
  7257  0023FE  6E01               	movlw	(03h)&0ffh
  7258  002400  0E03               	
  7259                           	call	_analogWrite
  7260  002402  EC20  F010         	line	316
  7261                           ;application.c: 316:  analogWrite(4,0);
  7262                           	movlw	high(0)
  7263  002406  0E00               	movwf	((c:analogWrite@value+1)),c
  7264  002408  6E02               	movlw	low(0)
  7265  00240A  0E00               	movwf	((c:analogWrite@value)),c
  7266  00240C  6E01               	movlw	(04h)&0ffh
  7267  00240E  0E04               	
  7268                           	call	_analogWrite
  7269  002410  EC20  F010         	line	317
  7270                           	
  7271                           l546:
  7272  002414                     	return	;funcret
  7273  002414  0012               	opt stack 0
  7274                           GLOBAL	__end_of_stop
  7275                           	__end_of_stop:
  7276  002416                     	signat	_stop,89
  7277                           	global	_izquierda
  7278                           
  7279 ;; *************** function _izquierda *****************
  7280 ;; Defined at:
  7281 ;;		line 275 in file "application.c"
  7282 ;; Parameters:    Size  Location     Type
  7283 ;;  velocidad       2    5[COMRAM] const int 
  7284 ;; Auto vars:     Size  Location     Type
  7285 ;;		None
  7286 ;; Return value:  Size  Location     Type
  7287 ;;                  1    wreg      void 
  7288 ;; Registers used:
  7289 ;;		wreg, status,2, status,0, cstack
  7290 ;; Tracked objects:
  7291 ;;		On entry : 0/0
  7292 ;;		On exit  : 0/0
  7293 ;;		Unchanged: 0/0
  7294 ;; Data sizes:     COMRAM   BANK0   BANK1   BANK2   BANK3   BANK4   BANK5   BANK6   BANK7
  7295 ;;      Params:         2       0       0       0       0       0       0       0       0
  7296 ;;      Locals:         0       0       0       0       0       0       0       0       0
  7297 ;;      Temps:          0       0       0       0       0       0       0       0       0
  7298 ;;      Totals:         2       0       0       0       0       0       0       0       0
  7299 ;;Total ram usage:        2 bytes
  7300 ;; Hardware stack levels used:    1
  7301 ;; Hardware stack levels required when called:    2
  7302 ;; This function calls:
  7303 ;;		_analogWrite
  7304 ;;		_digitalWrite
  7305 ;; This function is called by:
  7306 ;;		_loop
  7307 ;; This function uses a non-reentrant model
  7308 ;;
  7309                           psect	text13,class=CODE,space=0,reloc=2,group=0
  7310                           	line	275
  7311                           global __ptext13
  7312                           __ptext13:
  7313  002416                     psect	text13
  7314                           	file	"application.c"
  7315                           	line	275
  7316                           	global	__size_of_izquierda
  7317                           	__size_of_izquierda	equ	__end_of_izquierda-_izquierda
  7318  0000                     	
  7319                           _izquierda:
  7320  002416                     ;incstack = 0
  7321                           	opt	stack 27
  7322                           	line	277
  7323                           	
  7324                           l2972:
  7325  002416                     ;application.c: 275: void izquierda(const int velocidad);application.c: 276: {;applicati
                                 on.c: 277:  digitalWrite(5,0);
  7326                           	movlw	low(0)
  7327  002416  0E00               	movwf	((c:digitalWrite@mode)),c
  7328  002418  6E01               	movlw	(05h)&0ffh
  7329  00241A  0E05               	
  7330                           	call	_digitalWrite
  7331  00241C  EC79  F00D         	line	278
  7332                           ;application.c: 278:  digitalWrite(6,1);
  7333                           	movlw	low(01h)
  7334  002420  0E01               	movwf	((c:digitalWrite@mode)),c
  7335  002422  6E01               	movlw	(06h)&0ffh
  7336  002424  0E06               	
  7337                           	call	_digitalWrite
  7338  002426  EC79  F00D         	line	280
  7339                           ;application.c: 280:  digitalWrite(7,1);
  7340                           	movlw	low(01h)
  7341  00242A  0E01               	movwf	((c:digitalWrite@mode)),c
  7342  00242C  6E01               	movlw	(07h)&0ffh
  7343  00242E  0E07               	
  7344                           	call	_digitalWrite
  7345  002430  EC79  F00D         	line	281
  7346                           ;application.c: 281:  digitalWrite(8,0);
  7347                           	movlw	low(0)
  7348  002434  0E00               	movwf	((c:digitalWrite@mode)),c
  7349  002436  6E01               	movlw	(08h)&0ffh
  7350  002438  0E08               	
  7351                           	call	_digitalWrite
  7352  00243A  EC79  F00D         	line	284
  7353                           ;application.c: 284:  analogWrite(4,velocidad);
  7354                           	movff	(c:izquierda@velocidad),(c:analogWrite@value)
  7355  00243E  C006  F001         	movff	(c:izquierda@velocidad+1),(c:analogWrite@value+1)
  7356  002442  C007  F002         	movlw	(04h)&0ffh
  7357  002446  0E04               	
  7358                           	call	_analogWrite
  7359  002448  EC20  F010         	line	285
  7360                           	
  7361                           l537:
  7362  00244C                     	return	;funcret
  7363  00244C  0012               	opt stack 0
  7364                           GLOBAL	__end_of_izquierda
  7365                           	__end_of_izquierda:
  7366  00244E                     	signat	_izquierda,4217
  7367                           	global	_derecha
  7368                           
  7369 ;; *************** function _derecha *****************
  7370 ;; Defined at:
  7371 ;;		line 287 in file "application.c"
  7372 ;; Parameters:    Size  Location     Type
  7373 ;;  velocidad       2    5[COMRAM] const int 
  7374 ;; Auto vars:     Size  Location     Type
  7375 ;;		None
  7376 ;; Return value:  Size  Location     Type
  7377 ;;                  1    wreg      void 
  7378 ;; Registers used:
  7379 ;;		wreg, status,2, status,0, cstack
  7380 ;; Tracked objects:
  7381 ;;		On entry : 0/0
  7382 ;;		On exit  : 0/0
  7383 ;;		Unchanged: 0/0
  7384 ;; Data sizes:     COMRAM   BANK0   BANK1   BANK2   BANK3   BANK4   BANK5   BANK6   BANK7
  7385 ;;      Params:         2       0       0       0       0       0       0       0       0
  7386 ;;      Locals:         0       0       0       0       0       0       0       0       0
  7387 ;;      Temps:          0       0       0       0       0       0       0       0       0
  7388 ;;      Totals:         2       0       0       0       0       0       0       0       0
  7389 ;;Total ram usage:        2 bytes
  7390 ;; Hardware stack levels used:    1
  7391 ;; Hardware stack levels required when called:    2
  7392 ;; This function calls:
  7393 ;;		_analogWrite
  7394 ;;		_digitalWrite
  7395 ;; This function is called by:
  7396 ;;		_loop
  7397 ;; This function uses a non-reentrant model
  7398 ;;
  7399                           psect	text14,class=CODE,space=0,reloc=2,group=0
  7400                           	line	287
  7401                           global __ptext14
  7402                           __ptext14:
  7403  00244E                     psect	text14
  7404                           	file	"application.c"
  7405                           	line	287
  7406                           	global	__size_of_derecha
  7407                           	__size_of_derecha	equ	__end_of_derecha-_derecha
  7408  0000                     	
  7409                           _derecha:
  7410  00244E                     ;incstack = 0
  7411                           	opt	stack 27
  7412                           	line	289
  7413                           	
  7414                           l2974:
  7415  00244E                     ;application.c: 287: void derecha(const int velocidad);application.c: 288: {;application
                                 .c: 289:  digitalWrite(5,1);
  7416                           	movlw	low(01h)
  7417  00244E  0E01               	movwf	((c:digitalWrite@mode)),c
  7418  002450  6E01               	movlw	(05h)&0ffh
  7419  002452  0E05               	
  7420                           	call	_digitalWrite
  7421  002454  EC79  F00D         	line	290
  7422                           ;application.c: 290:  digitalWrite(6,0);
  7423                           	movlw	low(0)
  7424  002458  0E00               	movwf	((c:digitalWrite@mode)),c
  7425  00245A  6E01               	movlw	(06h)&0ffh
  7426  00245C  0E06               	
  7427                           	call	_digitalWrite
  7428  00245E  EC79  F00D         	line	292
  7429                           ;application.c: 292:  digitalWrite(7,0);
  7430                           	movlw	low(0)
  7431  002462  0E00               	movwf	((c:digitalWrite@mode)),c
  7432  002464  6E01               	movlw	(07h)&0ffh
  7433  002466  0E07               	
  7434                           	call	_digitalWrite
  7435  002468  EC79  F00D         	line	293
  7436                           ;application.c: 293:  digitalWrite(8,1);
  7437                           	movlw	low(01h)
  7438  00246C  0E01               	movwf	((c:digitalWrite@mode)),c
  7439  00246E  6E01               	movlw	(08h)&0ffh
  7440  002470  0E08               	
  7441                           	call	_digitalWrite
  7442  002472  EC79  F00D         	line	296
  7443                           ;application.c: 296:  analogWrite(4,velocidad);
  7444                           	movff	(c:derecha@velocidad),(c:analogWrite@value)
  7445  002476  C006  F001         	movff	(c:derecha@velocidad+1),(c:analogWrite@value+1)
  7446  00247A  C007  F002         	movlw	(04h)&0ffh
  7447  00247E  0E04               	
  7448                           	call	_analogWrite
  7449  002480  EC20  F010         	line	297
  7450                           	
  7451                           l540:
  7452  002484                     	return	;funcret
  7453  002484  0012               	opt stack 0
  7454                           GLOBAL	__end_of_derecha
  7455                           	__end_of_derecha:
  7456  002486                     	signat	_derecha,4217
  7457                           	global	_delay
  7458                           
  7459 ;; *************** function _delay *****************
  7460 ;; Defined at:
  7461 ;;		line 37 in file "main.c"
  7462 ;; Parameters:    Size  Location     Type
  7463 ;;  milis           2    0[COMRAM] const int 
  7464 ;; Auto vars:     Size  Location     Type
  7465 ;;  i               2    5[COMRAM] int 
  7466 ;;  j               2    3[COMRAM] int 
  7467 ;; Return value:  Size  Location     Type
  7468 ;;                  1    wreg      void 
  7469 ;; Registers used:
  7470 ;;		wreg, status,2, status,0
  7471 ;; Tracked objects:
  7472 ;;		On entry : 0/0
  7473 ;;		On exit  : 0/0
  7474 ;;		Unchanged: 0/0
  7475 ;; Data sizes:     COMRAM   BANK0   BANK1   BANK2   BANK3   BANK4   BANK5   BANK6   BANK7
  7476 ;;      Params:         2       0       0       0       0       0       0       0       0
  7477 ;;      Locals:         4       0       0       0       0       0       0       0       0
  7478 ;;      Temps:          1       0       0       0       0       0       0       0       0
  7479 ;;      Totals:         7       0       0       0       0       0       0       0       0
  7480 ;;Total ram usage:        7 bytes
  7481 ;; Hardware stack levels used:    1
  7482 ;; Hardware stack levels required when called:    1
  7483 ;; This function calls:
  7484 ;;		Nothing
  7485 ;; This function is called by:
  7486 ;;		_loop
  7487 ;;		_ComunicationInit
  7488 ;;		_Frequency
  7489 ;;		_testing
  7490 ;; This function uses a non-reentrant model
  7491 ;;
  7492                           psect	text15,class=CODE,space=0,reloc=2,group=0
  7493                           	file	"main.c"
  7494                           	line	37
  7495                           global __ptext15
  7496                           __ptext15:
  7497  00212E                     psect	text15
  7498                           	file	"main.c"
  7499                           	line	37
  7500                           	global	__size_of_delay
  7501                           	__size_of_delay	equ	__end_of_delay-_delay
  7502  0000                     	
  7503                           _delay:
  7504  00212E                     ;incstack = 0
  7505                           	opt	stack 27
  7506                           	line	39
  7507                           	
  7508                           l2852:
  7509  00212E                     ;main.c: 37: void delay(const int milis);main.c: 38: {;main.c: 39:     for(int j=0;j<mil
                                 is;j++)
  7510                           	movlw	high(0)
  7511  00212E  0E00               	movwf	((c:delay@j+1)),c
  7512  002130  6E05               	movlw	low(0)
  7513  002132  0E00               	movwf	((c:delay@j)),c
  7514  002134  6E04               	
  7515                           l2854:
  7516  002136                     		movf	((c:delay@milis)),c,w
  7517  002136  5001               	subwf	((c:delay@j)),c,w
  7518  002138  5C04               	movf	((c:delay@j+1)),c,w
  7519  00213A  5005               	xorlw	80h
  7520  00213C  0A80               	movwf	(??_delay+0+0)&0ffh,c
  7521  00213E  6E03               	movf	((c:delay@milis+1)),c,w
  7522  002140  5002               	xorlw	80h
  7523  002142  0A80               	subwfb	(??_delay+0+0)&0ffh,c,w
  7524  002144  5803               	btfss	status,0
  7525  002146  A0D8               	goto	u3161
  7526  002148  EFA8  F010         	goto	u3160
  7527  00214C  EFAA  F010         
  7528                           u3161:
  7529  002150                     	goto	l2858
  7530  002150  EFAE  F010         u3160:
  7531  002154                     	goto	l166
  7532  002154  EFEA  F010         	
  7533                           l2856:
  7534  002158                     	goto	l166
  7535  002158  EFEA  F010         	
  7536                           l162:
  7537  00215C                     	line	42
  7538                           	
  7539                           l2858:
  7540  00215C                     ;main.c: 40:     {;main.c: 42:         for(int i=0;i<400;i++)
  7541                           	movlw	high(0)
  7542  00215C  0E00               	movwf	((c:delay@i+1)),c
  7543  00215E  6E07               	movlw	low(0)
  7544  002160  0E00               	movwf	((c:delay@i)),c
  7545  002162  6E06               	
  7546                           l2860:
  7547  002164                     	btfsc	((c:delay@i+1)),c,7
  7548  002164  BE07               	goto	u3171
  7549  002166  EFBE  F010         	movlw	144
  7550  00216A  0E90               	subwf	 ((c:delay@i)),c,w
  7551  00216C  5C06               	movlw	1
  7552  00216E  0E01               	subwfb	((c:delay@i+1)),c,w
  7553  002170  5807               	btfss	status,0
  7554  002172  A0D8               	goto	u3171
  7555  002174  EFBE  F010         	goto	u3170
  7556  002178  EFC0  F010         
  7557                           u3171:
  7558  00217C                     	goto	l164
  7559  00217C  EFC4  F010         u3170:
  7560  002180                     	goto	l2868
  7561  002180  EFD7  F010         	
  7562                           l2862:
  7563  002184                     	goto	l2868
  7564  002184  EFD7  F010         	
  7565                           l164:
  7566  002188                     	line	44
  7567                           # 44 "main.c"
  7568                           NOP ;# 
  7569  002188  F000               psect	text15
  7570                           	line	45
  7571                           	
  7572                           l2864:
  7573  00218A                     ;main.c: 45:         }
  7574                           	infsnz	((c:delay@i)),c
  7575  00218A  4A06               	incf	((c:delay@i+1)),c
  7576  00218C  2A07               	
  7577                           l2866:
  7578  00218E                     	btfsc	((c:delay@i+1)),c,7
  7579  00218E  BE07               	goto	u3181
  7580  002190  EFD3  F010         	movlw	144
  7581  002194  0E90               	subwf	 ((c:delay@i)),c,w
  7582  002196  5C06               	movlw	1
  7583  002198  0E01               	subwfb	((c:delay@i+1)),c,w
  7584  00219A  5807               	btfss	status,0
  7585  00219C  A0D8               	goto	u3181
  7586  00219E  EFD3  F010         	goto	u3180
  7587  0021A2  EFD5  F010         
  7588                           u3181:
  7589  0021A6                     	goto	l164
  7590  0021A6  EFC4  F010         u3180:
  7591  0021AA                     	goto	l2868
  7592  0021AA  EFD7  F010         	
  7593                           l165:
  7594  0021AE                     	line	46
  7595                           	
  7596                           l2868:
  7597  0021AE                     ;main.c: 46:     }
  7598                           	infsnz	((c:delay@j)),c
  7599  0021AE  4A04               	incf	((c:delay@j+1)),c
  7600  0021B0  2A05               	
  7601                           l2870:
  7602  0021B2                     		movf	((c:delay@milis)),c,w
  7603  0021B2  5001               	subwf	((c:delay@j)),c,w
  7604  0021B4  5C04               	movf	((c:delay@j+1)),c,w
  7605  0021B6  5005               	xorlw	80h
  7606  0021B8  0A80               	movwf	(??_delay+0+0)&0ffh,c
  7607  0021BA  6E03               	movf	((c:delay@milis+1)),c,w
  7608  0021BC  5002               	xorlw	80h
  7609  0021BE  0A80               	subwfb	(??_delay+0+0)&0ffh,c,w
  7610  0021C0  5803               	btfss	status,0
  7611  0021C2  A0D8               	goto	u3191
  7612  0021C4  EFE6  F010         	goto	u3190
  7613  0021C8  EFE8  F010         
  7614                           u3191:
  7615  0021CC                     	goto	l2858
  7616  0021CC  EFAE  F010         u3190:
  7617  0021D0                     	goto	l166
  7618  0021D0  EFEA  F010         	
  7619                           l163:
  7620  0021D4                     	line	47
  7621                           	
  7622                           l166:
  7623  0021D4                     	return	;funcret
  7624  0021D4  0012               	opt stack 0
  7625                           GLOBAL	__end_of_delay
  7626                           	__end_of_delay:
  7627  0021D6                     	signat	_delay,4217
  7628                           	global	_atras
  7629                           
  7630 ;; *************** function _atras *****************
  7631 ;; Defined at:
  7632 ;;		line 263 in file "application.c"
  7633 ;; Parameters:    Size  Location     Type
  7634 ;;  velocidad       2    5[COMRAM] int 
  7635 ;; Auto vars:     Size  Location     Type
  7636 ;;		None
  7637 ;; Return value:  Size  Location     Type
  7638 ;;                  1    wreg      void 
  7639 ;; Registers used:
  7640 ;;		wreg, status,2, status,0, cstack
  7641 ;; Tracked objects:
  7642 ;;		On entry : 0/0
  7643 ;;		On exit  : 0/0
  7644 ;;		Unchanged: 0/0
  7645 ;; Data sizes:     COMRAM   BANK0   BANK1   BANK2   BANK3   BANK4   BANK5   BANK6   BANK7
  7646 ;;      Params:         2       0       0       0       0       0       0       0       0
  7647 ;;      Locals:         0       0       0       0       0       0       0       0       0
  7648 ;;      Temps:          0       0       0       0       0       0       0       0       0
  7649 ;;      Totals:         2       0       0       0       0       0       0       0       0
  7650 ;;Total ram usage:        2 bytes
  7651 ;; Hardware stack levels used:    1
  7652 ;; Hardware stack levels required when called:    2
  7653 ;; This function calls:
  7654 ;;		_analogWrite
  7655 ;;		_digitalWrite
  7656 ;; This function is called by:
  7657 ;;		_loop
  7658 ;; This function uses a non-reentrant model
  7659 ;;
  7660                           psect	text16,class=CODE,space=0,reloc=2,group=0
  7661                           	file	"application.c"
  7662                           	line	263
  7663                           global __ptext16
  7664                           __ptext16:
  7665  002486                     psect	text16
  7666                           	file	"application.c"
  7667                           	line	263
  7668                           	global	__size_of_atras
  7669                           	__size_of_atras	equ	__end_of_atras-_atras
  7670  0000                     	
  7671                           _atras:
  7672  002486                     ;incstack = 0
  7673                           	opt	stack 27
  7674                           	line	265
  7675                           	
  7676                           l2970:
  7677  002486                     ;application.c: 263: void atras(int velocidad);application.c: 264: {;application.c: 265:
                                   digitalWrite(5,1);
  7678                           	movlw	low(01h)
  7679  002486  0E01               	movwf	((c:digitalWrite@mode)),c
  7680  002488  6E01               	movlw	(05h)&0ffh
  7681  00248A  0E05               	
  7682                           	call	_digitalWrite
  7683  00248C  EC79  F00D         	line	266
  7684                           ;application.c: 266:  digitalWrite(6,0);
  7685                           	movlw	low(0)
  7686  002490  0E00               	movwf	((c:digitalWrite@mode)),c
  7687  002492  6E01               	movlw	(06h)&0ffh
  7688  002494  0E06               	
  7689                           	call	_digitalWrite
  7690  002496  EC79  F00D         	line	268
  7691                           ;application.c: 268:  digitalWrite(7,1);
  7692                           	movlw	low(01h)
  7693  00249A  0E01               	movwf	((c:digitalWrite@mode)),c
  7694  00249C  6E01               	movlw	(07h)&0ffh
  7695  00249E  0E07               	
  7696                           	call	_digitalWrite
  7697  0024A0  EC79  F00D         	line	269
  7698                           ;application.c: 269:  digitalWrite(8,0);
  7699                           	movlw	low(0)
  7700  0024A4  0E00               	movwf	((c:digitalWrite@mode)),c
  7701  0024A6  6E01               	movlw	(08h)&0ffh
  7702  0024A8  0E08               	
  7703                           	call	_digitalWrite
  7704  0024AA  EC79  F00D         	line	272
  7705                           ;application.c: 272:  analogWrite(4,velocidad);
  7706                           	movff	(c:atras@velocidad),(c:analogWrite@value)
  7707  0024AE  C006  F001         	movff	(c:atras@velocidad+1),(c:analogWrite@value+1)
  7708  0024B2  C007  F002         	movlw	(04h)&0ffh
  7709  0024B6  0E04               	
  7710                           	call	_analogWrite
  7711  0024B8  EC20  F010         	line	273
  7712                           	
  7713                           l534:
  7714  0024BC                     	return	;funcret
  7715  0024BC  0012               	opt stack 0
  7716                           GLOBAL	__end_of_atras
  7717                           	__end_of_atras:
  7718  0024BE                     	signat	_atras,4217
  7719                           	global	_adelante
  7720                           
  7721 ;; *************** function _adelante *****************
  7722 ;; Defined at:
  7723 ;;		line 250 in file "application.c"
  7724 ;; Parameters:    Size  Location     Type
  7725 ;;  velocidad       2    5[COMRAM] int 
  7726 ;; Auto vars:     Size  Location     Type
  7727 ;;		None
  7728 ;; Return value:  Size  Location     Type
  7729 ;;                  1    wreg      void 
  7730 ;; Registers used:
  7731 ;;		wreg, status,2, status,0, cstack
  7732 ;; Tracked objects:
  7733 ;;		On entry : 0/0
  7734 ;;		On exit  : 0/0
  7735 ;;		Unchanged: 0/0
  7736 ;; Data sizes:     COMRAM   BANK0   BANK1   BANK2   BANK3   BANK4   BANK5   BANK6   BANK7
  7737 ;;      Params:         2       0       0       0       0       0       0       0       0
  7738 ;;      Locals:         0       0       0       0       0       0       0       0       0
  7739 ;;      Temps:          0       0       0       0       0       0       0       0       0
  7740 ;;      Totals:         2       0       0       0       0       0       0       0       0
  7741 ;;Total ram usage:        2 bytes
  7742 ;; Hardware stack levels used:    1
  7743 ;; Hardware stack levels required when called:    2
  7744 ;; This function calls:
  7745 ;;		_analogWrite
  7746 ;;		_digitalWrite
  7747 ;; This function is called by:
  7748 ;;		_loop
  7749 ;; This function uses a non-reentrant model
  7750 ;;
  7751                           psect	text17,class=CODE,space=0,reloc=2,group=0
  7752                           	line	250
  7753                           global __ptext17
  7754                           __ptext17:
  7755  0024BE                     psect	text17
  7756                           	file	"application.c"
  7757                           	line	250
  7758                           	global	__size_of_adelante
  7759                           	__size_of_adelante	equ	__end_of_adelante-_adelante
  7760  0000                     	
  7761                           _adelante:
  7762  0024BE                     ;incstack = 0
  7763                           	opt	stack 27
  7764                           	line	253
  7765                           	
  7766                           l2968:
  7767  0024BE                     ;application.c: 250: void adelante(int velocidad);application.c: 251: {;application.c: 2
                                 53:  digitalWrite(5,0);
  7768                           	movlw	low(0)
  7769  0024BE  0E00               	movwf	((c:digitalWrite@mode)),c
  7770  0024C0  6E01               	movlw	(05h)&0ffh
  7771  0024C2  0E05               	
  7772                           	call	_digitalWrite
  7773  0024C4  EC79  F00D         	line	254
  7774                           ;application.c: 254:  digitalWrite(6,1);
  7775                           	movlw	low(01h)
  7776  0024C8  0E01               	movwf	((c:digitalWrite@mode)),c
  7777  0024CA  6E01               	movlw	(06h)&0ffh
  7778  0024CC  0E06               	
  7779                           	call	_digitalWrite
  7780  0024CE  EC79  F00D         	line	256
  7781                           ;application.c: 256:  digitalWrite(7,0);
  7782                           	movlw	low(0)
  7783  0024D2  0E00               	movwf	((c:digitalWrite@mode)),c
  7784  0024D4  6E01               	movlw	(07h)&0ffh
  7785  0024D6  0E07               	
  7786                           	call	_digitalWrite
  7787  0024D8  EC79  F00D         	line	257
  7788                           ;application.c: 257:  digitalWrite(8,1);
  7789                           	movlw	low(01h)
  7790  0024DC  0E01               	movwf	((c:digitalWrite@mode)),c
  7791  0024DE  6E01               	movlw	(08h)&0ffh
  7792  0024E0  0E08               	
  7793                           	call	_digitalWrite
  7794  0024E2  EC79  F00D         	line	260
  7795                           ;application.c: 260:  analogWrite(4,velocidad);
  7796                           	movff	(c:adelante@velocidad),(c:analogWrite@value)
  7797  0024E6  C006  F001         	movff	(c:adelante@velocidad+1),(c:analogWrite@value+1)
  7798  0024EA  C007  F002         	movlw	(04h)&0ffh
  7799  0024EE  0E04               	
  7800                           	call	_analogWrite
  7801  0024F0  EC20  F010         	line	261
  7802                           	
  7803                           l531:
  7804  0024F4                     	return	;funcret
  7805  0024F4  0012               	opt stack 0
  7806                           GLOBAL	__end_of_adelante
  7807                           	__end_of_adelante:
  7808  0024F6                     	signat	_adelante,4217
  7809                           	global	_digitalWrite
  7810                           
  7811 ;; *************** function _digitalWrite *****************
  7812 ;; Defined at:
  7813 ;;		line 134 in file "main.c"
  7814 ;; Parameters:    Size  Location     Type
  7815 ;;  pin             1    wreg     unsigned char 
  7816 ;;  mode            1    0[COMRAM] unsigned char 
  7817 ;; Auto vars:     Size  Location     Type
  7818 ;;  pin             1    3[COMRAM] unsigned char 
  7819 ;; Return value:  Size  Location     Type
  7820 ;;                  1    wreg      void 
  7821 ;; Registers used:
  7822 ;;		wreg, status,2, status,0
  7823 ;; Tracked objects:
  7824 ;;		On entry : 0/0
  7825 ;;		On exit  : 0/0
  7826 ;;		Unchanged: 0/0
  7827 ;; Data sizes:     COMRAM   BANK0   BANK1   BANK2   BANK3   BANK4   BANK5   BANK6   BANK7
  7828 ;;      Params:         1       0       0       0       0       0       0       0       0
  7829 ;;      Locals:         1       0       0       0       0       0       0       0       0
  7830 ;;      Temps:          2       0       0       0       0       0       0       0       0
  7831 ;;      Totals:         4       0       0       0       0       0       0       0       0
  7832 ;;Total ram usage:        4 bytes
  7833 ;; Hardware stack levels used:    1
  7834 ;; Hardware stack levels required when called:    1
  7835 ;; This function calls:
  7836 ;;		Nothing
  7837 ;; This function is called by:
  7838 ;;		_adelante
  7839 ;;		_atras
  7840 ;;		_izquierda
  7841 ;;		_derecha
  7842 ;;		_stop
  7843 ;;		_WeaponInit
  7844 ;;		_Attack
  7845 ;;		_testing
  7846 ;; This function uses a non-reentrant model
  7847 ;;
  7848                           psect	text18,class=CODE,space=0,reloc=2,group=0
  7849                           	file	"main.c"
  7850                           	line	134
  7851                           global __ptext18
  7852                           __ptext18:
  7853  001AF2                     psect	text18
  7854                           	file	"main.c"
  7855                           	line	134
  7856                           	global	__size_of_digitalWrite
  7857                           	__size_of_digitalWrite	equ	__end_of_digitalWrite-_digitalWrite
  7858  0000                     	
  7859                           _digitalWrite:
  7860  001AF2                     ;incstack = 0
  7861                           	opt	stack 27
  7862                           ;digitalWrite@pin stored from wreg
  7863                           	movwf	((c:digitalWrite@pin)),c
  7864  001AF2  6E04               	line	136
  7865                           	
  7866                           l2882:
  7867  001AF4                     ;main.c: 134: void digitalWrite(char pin, char mode);main.c: 135: {;main.c: 136:     swi
                                 tch(pin)
  7868                           	goto	l2886
  7869  001AF4  EF1F  F00E         	line	138
  7870                           ;main.c: 137:     {;main.c: 138:        case 0:
  7871                           	
  7872                           l203:
  7873  001AF8                     	line	139
  7874                           ;main.c: 139:            LATAbits.LA4 = mode;
  7875                           	btfsc	(c:digitalWrite@mode),c,0
  7876  001AF8  B001               	bra	u3435
  7877  001AFA  D002               	bcf	((c:3977)),c,4	;volatile
  7878  001AFC  9889               	bra	u3436
  7879  001AFE  D001               	u3435:
  7880  001B00                     	bsf	((c:3977)),c,4	;volatile
  7881  001B00  8889               	u3436:
  7882  001B02                     
  7883                           	line	140
  7884                           ;main.c: 140:             break;
  7885                           	goto	l227
  7886  001B02  EF88  F00E         	line	141
  7887                           ;main.c: 141:         case 1:
  7888                           	
  7889                           l205:
  7890  001B06                     	line	142
  7891                           ;main.c: 142:             LATAbits.LA5 = mode;
  7892                           	btfsc	(c:digitalWrite@mode),c,0
  7893  001B06  B001               	bra	u3445
  7894  001B08  D002               	bcf	((c:3977)),c,5	;volatile
  7895  001B0A  9A89               	bra	u3446
  7896  001B0C  D001               	u3445:
  7897  001B0E                     	bsf	((c:3977)),c,5	;volatile
  7898  001B0E  8A89               	u3446:
  7899  001B10                     
  7900                           	line	143
  7901                           ;main.c: 143:             break;
  7902                           	goto	l227
  7903  001B10  EF88  F00E         	line	144
  7904                           ;main.c: 144:         case 2:
  7905                           	
  7906                           l206:
  7907  001B14                     	line	145
  7908                           ;main.c: 145:             LATCbits.LC0 = mode;
  7909                           	btfsc	(c:digitalWrite@mode),c,0
  7910  001B14  B001               	bra	u3455
  7911  001B16  D002               	bcf	((c:3979)),c,0	;volatile
  7912  001B18  908B               	bra	u3456
  7913  001B1A  D001               	u3455:
  7914  001B1C                     	bsf	((c:3979)),c,0	;volatile
  7915  001B1C  808B               	u3456:
  7916  001B1E                     
  7917                           	line	146
  7918                           ;main.c: 146:             break;
  7919                           	goto	l227
  7920  001B1E  EF88  F00E         	line	147
  7921                           ;main.c: 147:         case 3:
  7922                           	
  7923                           l207:
  7924  001B22                     	line	148
  7925                           ;main.c: 148:             LATCbits.LC1 = mode;
  7926                           	btfsc	(c:digitalWrite@mode),c,0
  7927  001B22  B001               	bra	u3465
  7928  001B24  D002               	bcf	((c:3979)),c,1	;volatile
  7929  001B26  928B               	bra	u3466
  7930  001B28  D001               	u3465:
  7931  001B2A                     	bsf	((c:3979)),c,1	;volatile
  7932  001B2A  828B               	u3466:
  7933  001B2C                     
  7934                           	line	149
  7935                           ;main.c: 149:             break;
  7936                           	goto	l227
  7937  001B2C  EF88  F00E         	line	150
  7938                           ;main.c: 150:         case 4:
  7939                           	
  7940                           l208:
  7941  001B30                     	line	151
  7942                           ;main.c: 151:             LATCbits.LC2 = mode;
  7943                           	btfsc	(c:digitalWrite@mode),c,0
  7944  001B30  B001               	bra	u3475
  7945  001B32  D002               	bcf	((c:3979)),c,2	;volatile
  7946  001B34  948B               	bra	u3476
  7947  001B36  D001               	u3475:
  7948  001B38                     	bsf	((c:3979)),c,2	;volatile
  7949  001B38  848B               	u3476:
  7950  001B3A                     
  7951                           	line	152
  7952                           ;main.c: 152:             break;
  7953                           	goto	l227
  7954  001B3A  EF88  F00E         	line	153
  7955                           ;main.c: 153:         case 5:
  7956                           	
  7957                           l209:
  7958  001B3E                     	line	154
  7959                           ;main.c: 154:             LATDbits.LD0 = mode;
  7960                           	btfsc	(c:digitalWrite@mode),c,0
  7961  001B3E  B001               	bra	u3485
  7962  001B40  D002               	bcf	((c:3980)),c,0	;volatile
  7963  001B42  908C               	bra	u3486
  7964  001B44  D001               	u3485:
  7965  001B46                     	bsf	((c:3980)),c,0	;volatile
  7966  001B46  808C               	u3486:
  7967  001B48                     
  7968                           	line	155
  7969                           ;main.c: 155:             break;
  7970                           	goto	l227
  7971  001B48  EF88  F00E         	line	156
  7972                           ;main.c: 156:         case 6:
  7973                           	
  7974                           l210:
  7975  001B4C                     	line	157
  7976                           ;main.c: 157:             LATDbits.LD1 = mode;
  7977                           	btfsc	(c:digitalWrite@mode),c,0
  7978  001B4C  B001               	bra	u3495
  7979  001B4E  D002               	bcf	((c:3980)),c,1	;volatile
  7980  001B50  928C               	bra	u3496
  7981  001B52  D001               	u3495:
  7982  001B54                     	bsf	((c:3980)),c,1	;volatile
  7983  001B54  828C               	u3496:
  7984  001B56                     
  7985                           	line	158
  7986                           ;main.c: 158:             break;
  7987                           	goto	l227
  7988  001B56  EF88  F00E         	line	159
  7989                           ;main.c: 159:         case 7:
  7990                           	
  7991                           l211:
  7992  001B5A                     	line	160
  7993                           ;main.c: 160:             LATDbits.LD2 = mode;
  7994                           	btfsc	(c:digitalWrite@mode),c,0
  7995  001B5A  B001               	bra	u3505
  7996  001B5C  D002               	bcf	((c:3980)),c,2	;volatile
  7997  001B5E  948C               	bra	u3506
  7998  001B60  D001               	u3505:
  7999  001B62                     	bsf	((c:3980)),c,2	;volatile
  8000  001B62  848C               	u3506:
  8001  001B64                     
  8002                           	line	161
  8003                           ;main.c: 161:             break;
  8004                           	goto	l227
  8005  001B64  EF88  F00E         	line	162
  8006                           ;main.c: 162:         case 8:
  8007                           	
  8008                           l212:
  8009  001B68                     	line	163
  8010                           ;main.c: 163:             LATDbits.LD3 = mode;
  8011                           	btfsc	(c:digitalWrite@mode),c,0
  8012  001B68  B001               	bra	u3515
  8013  001B6A  D002               	bcf	((c:3980)),c,3	;volatile
  8014  001B6C  968C               	bra	u3516
  8015  001B6E  D001               	u3515:
  8016  001B70                     	bsf	((c:3980)),c,3	;volatile
  8017  001B70  868C               	u3516:
  8018  001B72                     
  8019                           	line	164
  8020                           ;main.c: 164:             break;
  8021                           	goto	l227
  8022  001B72  EF88  F00E         	line	165
  8023                           ;main.c: 165:         case 9:
  8024                           	
  8025                           l213:
  8026  001B76                     	line	166
  8027                           ;main.c: 166:             LATCbits.LC6 = mode;
  8028                           	btfsc	(c:digitalWrite@mode),c,0
  8029  001B76  B001               	bra	u3525
  8030  001B78  D002               	bcf	((c:3979)),c,6	;volatile
  8031  001B7A  9C8B               	bra	u3526
  8032  001B7C  D001               	u3525:
  8033  001B7E                     	bsf	((c:3979)),c,6	;volatile
  8034  001B7E  8C8B               	u3526:
  8035  001B80                     
  8036                           	line	167
  8037                           ;main.c: 167:             break;
  8038                           	goto	l227
  8039  001B80  EF88  F00E         	line	168
  8040                           ;main.c: 168:         case 10:
  8041                           	
  8042                           l214:
  8043  001B84                     	line	169
  8044                           ;main.c: 169:             LATCbits.LC7 = mode;
  8045                           	btfsc	(c:digitalWrite@mode),c,0
  8046  001B84  B001               	bra	u3535
  8047  001B86  D002               	bcf	((c:3979)),c,7	;volatile
  8048  001B88  9E8B               	bra	u3536
  8049  001B8A  D001               	u3535:
  8050  001B8C                     	bsf	((c:3979)),c,7	;volatile
  8051  001B8C  8E8B               	u3536:
  8052  001B8E                     
  8053                           	line	170
  8054                           ;main.c: 170:             break;
  8055                           	goto	l227
  8056  001B8E  EF88  F00E         	line	171
  8057                           ;main.c: 171:         case 11:
  8058                           	
  8059                           l215:
  8060  001B92                     	line	172
  8061                           ;main.c: 172:             LATDbits.LD4 = mode;
  8062                           	btfsc	(c:digitalWrite@mode),c,0
  8063  001B92  B001               	bra	u3545
  8064  001B94  D002               	bcf	((c:3980)),c,4	;volatile
  8065  001B96  988C               	bra	u3546
  8066  001B98  D001               	u3545:
  8067  001B9A                     	bsf	((c:3980)),c,4	;volatile
  8068  001B9A  888C               	u3546:
  8069  001B9C                     
  8070                           	line	173
  8071                           ;main.c: 173:             break;
  8072                           	goto	l227
  8073  001B9C  EF88  F00E         	line	174
  8074                           ;main.c: 174:         case 12:
  8075                           	
  8076                           l216:
  8077  001BA0                     	line	175
  8078                           ;main.c: 175:             LATDbits.LD5 = mode;
  8079                           	btfsc	(c:digitalWrite@mode),c,0
  8080  001BA0  B001               	bra	u3555
  8081  001BA2  D002               	bcf	((c:3980)),c,5	;volatile
  8082  001BA4  9A8C               	bra	u3556
  8083  001BA6  D001               	u3555:
  8084  001BA8                     	bsf	((c:3980)),c,5	;volatile
  8085  001BA8  8A8C               	u3556:
  8086  001BAA                     
  8087                           	line	176
  8088                           ;main.c: 176:             break;
  8089                           	goto	l227
  8090  001BAA  EF88  F00E         	line	177
  8091                           ;main.c: 177:         case 13:
  8092                           	
  8093                           l217:
  8094  001BAE                     	line	178
  8095                           ;main.c: 178:             LATDbits.LD6 = mode;
  8096                           	btfsc	(c:digitalWrite@mode),c,0
  8097  001BAE  B001               	bra	u3565
  8098  001BB0  D002               	bcf	((c:3980)),c,6	;volatile
  8099  001BB2  9C8C               	bra	u3566
  8100  001BB4  D001               	u3565:
  8101  001BB6                     	bsf	((c:3980)),c,6	;volatile
  8102  001BB6  8C8C               	u3566:
  8103  001BB8                     
  8104                           	line	179
  8105                           ;main.c: 179:             break;
  8106                           	goto	l227
  8107  001BB8  EF88  F00E         	line	180
  8108                           ;main.c: 180:         case 14:
  8109                           	
  8110                           l218:
  8111  001BBC                     	line	181
  8112                           ;main.c: 181:             LATDbits.LD7 = mode;
  8113                           	btfsc	(c:digitalWrite@mode),c,0
  8114  001BBC  B001               	bra	u3575
  8115  001BBE  D002               	bcf	((c:3980)),c,7	;volatile
  8116  001BC0  9E8C               	bra	u3576
  8117  001BC2  D001               	u3575:
  8118  001BC4                     	bsf	((c:3980)),c,7	;volatile
  8119  001BC4  8E8C               	u3576:
  8120  001BC6                     
  8121                           	line	182
  8122                           ;main.c: 182:             break;
  8123                           	goto	l227
  8124  001BC6  EF88  F00E         	line	183
  8125                           ;main.c: 183:         case 15:
  8126                           	
  8127                           l219:
  8128  001BCA                     	line	184
  8129                           ;main.c: 184:             LATBbits.LB0 = mode;
  8130                           	btfsc	(c:digitalWrite@mode),c,0
  8131  001BCA  B001               	bra	u3585
  8132  001BCC  D002               	bcf	((c:3978)),c,0	;volatile
  8133  001BCE  908A               	bra	u3586
  8134  001BD0  D001               	u3585:
  8135  001BD2                     	bsf	((c:3978)),c,0	;volatile
  8136  001BD2  808A               	u3586:
  8137  001BD4                     
  8138                           	line	185
  8139                           ;main.c: 185:             break;
  8140                           	goto	l227
  8141  001BD4  EF88  F00E         	line	186
  8142                           ;main.c: 186:         case 16:
  8143                           	
  8144                           l220:
  8145  001BD8                     	line	187
  8146                           ;main.c: 187:             LATBbits.LB1 = mode;
  8147                           	btfsc	(c:digitalWrite@mode),c,0
  8148  001BD8  B001               	bra	u3595
  8149  001BDA  D002               	bcf	((c:3978)),c,1	;volatile
  8150  001BDC  928A               	bra	u3596
  8151  001BDE  D001               	u3595:
  8152  001BE0                     	bsf	((c:3978)),c,1	;volatile
  8153  001BE0  828A               	u3596:
  8154  001BE2                     
  8155                           	line	188
  8156                           ;main.c: 188:             break;
  8157                           	goto	l227
  8158  001BE2  EF88  F00E         	line	189
  8159                           ;main.c: 189:         case 17:
  8160                           	
  8161                           l221:
  8162  001BE6                     	line	190
  8163                           ;main.c: 190:             LATBbits.LB2 = mode;
  8164                           	btfsc	(c:digitalWrite@mode),c,0
  8165  001BE6  B001               	bra	u3605
  8166  001BE8  D002               	bcf	((c:3978)),c,2	;volatile
  8167  001BEA  948A               	bra	u3606
  8168  001BEC  D001               	u3605:
  8169  001BEE                     	bsf	((c:3978)),c,2	;volatile
  8170  001BEE  848A               	u3606:
  8171  001BF0                     
  8172                           	line	191
  8173                           ;main.c: 191:             break;
  8174                           	goto	l227
  8175  001BF0  EF88  F00E         	line	192
  8176                           ;main.c: 192:         case 18:
  8177                           	
  8178                           l222:
  8179  001BF4                     	line	193
  8180                           ;main.c: 193:             LATBbits.LB3 = mode;
  8181                           	btfsc	(c:digitalWrite@mode),c,0
  8182  001BF4  B001               	bra	u3615
  8183  001BF6  D002               	bcf	((c:3978)),c,3	;volatile
  8184  001BF8  968A               	bra	u3616
  8185  001BFA  D001               	u3615:
  8186  001BFC                     	bsf	((c:3978)),c,3	;volatile
  8187  001BFC  868A               	u3616:
  8188  001BFE                     
  8189                           	line	194
  8190                           ;main.c: 194:             break;
  8191                           	goto	l227
  8192  001BFE  EF88  F00E         	line	195
  8193                           ;main.c: 195:         case 19:
  8194                           	
  8195                           l223:
  8196  001C02                     	line	196
  8197                           ;main.c: 196:             LATBbits.LB4 = mode;
  8198                           	btfsc	(c:digitalWrite@mode),c,0
  8199  001C02  B001               	bra	u3625
  8200  001C04  D002               	bcf	((c:3978)),c,4	;volatile
  8201  001C06  988A               	bra	u3626
  8202  001C08  D001               	u3625:
  8203  001C0A                     	bsf	((c:3978)),c,4	;volatile
  8204  001C0A  888A               	u3626:
  8205  001C0C                     
  8206                           	line	197
  8207                           ;main.c: 197:             break;
  8208                           	goto	l227
  8209  001C0C  EF88  F00E         	line	198
  8210                           ;main.c: 198:         case 20:
  8211                           	
  8212                           l224:
  8213  001C10                     	line	199
  8214                           ;main.c: 199:             LATBbits.LB5 = mode;
  8215                           	btfsc	(c:digitalWrite@mode),c,0
  8216  001C10  B001               	bra	u3635
  8217  001C12  D002               	bcf	((c:3978)),c,5	;volatile
  8218  001C14  9A8A               	bra	u3636
  8219  001C16  D001               	u3635:
  8220  001C18                     	bsf	((c:3978)),c,5	;volatile
  8221  001C18  8A8A               	u3636:
  8222  001C1A                     
  8223                           	line	200
  8224                           ;main.c: 200:             break;
  8225                           	goto	l227
  8226  001C1A  EF88  F00E         	line	201
  8227                           ;main.c: 201:         case 21:
  8228                           	
  8229                           l225:
  8230  001C1E                     	line	202
  8231                           ;main.c: 202:             LATBbits.LB6 = mode;
  8232                           	btfsc	(c:digitalWrite@mode),c,0
  8233  001C1E  B001               	bra	u3645
  8234  001C20  D002               	bcf	((c:3978)),c,6	;volatile
  8235  001C22  9C8A               	bra	u3646
  8236  001C24  D001               	u3645:
  8237  001C26                     	bsf	((c:3978)),c,6	;volatile
  8238  001C26  8C8A               	u3646:
  8239  001C28                     
  8240                           	line	203
  8241                           ;main.c: 203:             break;
  8242                           	goto	l227
  8243  001C28  EF88  F00E         	line	204
  8244                           ;main.c: 204:         case 22:
  8245                           	
  8246                           l226:
  8247  001C2C                     	line	205
  8248                           ;main.c: 205:             LATBbits.LB7 = mode;
  8249                           	btfsc	(c:digitalWrite@mode),c,0
  8250  001C2C  B001               	bra	u3655
  8251  001C2E  D002               	bcf	((c:3978)),c,7	;volatile
  8252  001C30  9E8A               	bra	u3656
  8253  001C32  D001               	u3655:
  8254  001C34                     	bsf	((c:3978)),c,7	;volatile
  8255  001C34  8E8A               	u3656:
  8256  001C36                     
  8257                           	line	206
  8258                           ;main.c: 206:             break;
  8259                           	goto	l227
  8260  001C36  EF88  F00E         	line	207
  8261                           	
  8262                           l2884:
  8263  001C3A                     ;main.c: 207:     }
  8264                           	goto	l227
  8265  001C3A  EF88  F00E         	
  8266                           l202:
  8267  001C3E                     	
  8268                           l2886:
  8269  001C3E                     	movf	((c:digitalWrite@pin)),c,w
  8270  001C3E  5004               	movwf	(??_digitalWrite+0+0)&0ffh,c
  8271  001C40  6E02               	clrf	(??_digitalWrite+0+0+1)&0ffh,c
  8272  001C42  6A03               
  8273                           	; Switch on 2 bytes has been partitioned into a top level switch of size 1, and 1 sub-s
                                 witches
  8274                           ; Switch size 1, requested type "space"
  8275                           ; Number of cases is 1, Range of values is 0 to 0
  8276                           ; switch strategies available:
  8277                           ; Name         Instructions Cycles
  8278                           ; simple_byte            4     3 (average)
  8279                           ;	Chosen strategy is simple_byte
  8280                           
  8281                           	movf ??_digitalWrite+0+1,c,w
  8282  001C44  5003               	xorlw	0^0	; case 0
  8283  001C46  0A00               	skipnz
  8284  001C48  B4D8               	goto	l3254
  8285  001C4A  EF29  F00E         	goto	l227
  8286  001C4E  EF88  F00E         	
  8287                           l3254:
  8288  001C52                     ; Switch size 1, requested type "space"
  8289                           ; Number of cases is 23, Range of values is 0 to 22
  8290                           ; switch strategies available:
  8291                           ; Name         Instructions Cycles
  8292                           ; simple_byte           70    36 (average)
  8293                           ;	Chosen strategy is simple_byte
  8294                           
  8295                           	movf ??_digitalWrite+0+0,c,w
  8296  001C52  5002               	xorlw	0^0	; case 0
  8297  001C54  0A00               	skipnz
  8298  001C56  B4D8               	goto	l203
  8299  001C58  EF7C  F00D         	xorlw	1^0	; case 1
  8300  001C5C  0A01               	skipnz
  8301  001C5E  B4D8               	goto	l205
  8302  001C60  EF83  F00D         	xorlw	2^1	; case 2
  8303  001C64  0A03               	skipnz
  8304  001C66  B4D8               	goto	l206
  8305  001C68  EF8A  F00D         	xorlw	3^2	; case 3
  8306  001C6C  0A01               	skipnz
  8307  001C6E  B4D8               	goto	l207
  8308  001C70  EF91  F00D         	xorlw	4^3	; case 4
  8309  001C74  0A07               	skipnz
  8310  001C76  B4D8               	goto	l208
  8311  001C78  EF98  F00D         	xorlw	5^4	; case 5
  8312  001C7C  0A01               	skipnz
  8313  001C7E  B4D8               	goto	l209
  8314  001C80  EF9F  F00D         	xorlw	6^5	; case 6
  8315  001C84  0A03               	skipnz
  8316  001C86  B4D8               	goto	l210
  8317  001C88  EFA6  F00D         	xorlw	7^6	; case 7
  8318  001C8C  0A01               	skipnz
  8319  001C8E  B4D8               	goto	l211
  8320  001C90  EFAD  F00D         	xorlw	8^7	; case 8
  8321  001C94  0A0F               	skipnz
  8322  001C96  B4D8               	goto	l212
  8323  001C98  EFB4  F00D         	xorlw	9^8	; case 9
  8324  001C9C  0A01               	skipnz
  8325  001C9E  B4D8               	goto	l213
  8326  001CA0  EFBB  F00D         	xorlw	10^9	; case 10
  8327  001CA4  0A03               	skipnz
  8328  001CA6  B4D8               	goto	l214
  8329  001CA8  EFC2  F00D         	xorlw	11^10	; case 11
  8330  001CAC  0A01               	skipnz
  8331  001CAE  B4D8               	goto	l215
  8332  001CB0  EFC9  F00D         	xorlw	12^11	; case 12
  8333  001CB4  0A07               	skipnz
  8334  001CB6  B4D8               	goto	l216
  8335  001CB8  EFD0  F00D         	xorlw	13^12	; case 13
  8336  001CBC  0A01               	skipnz
  8337  001CBE  B4D8               	goto	l217
  8338  001CC0  EFD7  F00D         	xorlw	14^13	; case 14
  8339  001CC4  0A03               	skipnz
  8340  001CC6  B4D8               	goto	l218
  8341  001CC8  EFDE  F00D         	xorlw	15^14	; case 15
  8342  001CCC  0A01               	skipnz
  8343  001CCE  B4D8               	goto	l219
  8344  001CD0  EFE5  F00D         	xorlw	16^15	; case 16
  8345  001CD4  0A1F               	skipnz
  8346  001CD6  B4D8               	goto	l220
  8347  001CD8  EFEC  F00D         	xorlw	17^16	; case 17
  8348  001CDC  0A01               	skipnz
  8349  001CDE  B4D8               	goto	l221
  8350  001CE0  EFF3  F00D         	xorlw	18^17	; case 18
  8351  001CE4  0A03               	skipnz
  8352  001CE6  B4D8               	goto	l222
  8353  001CE8  EFFA  F00D         	xorlw	19^18	; case 19
  8354  001CEC  0A01               	skipnz
  8355  001CEE  B4D8               	goto	l223
  8356  001CF0  EF01  F00E         	xorlw	20^19	; case 20
  8357  001CF4  0A07               	skipnz
  8358  001CF6  B4D8               	goto	l224
  8359  001CF8  EF08  F00E         	xorlw	21^20	; case 21
  8360  001CFC  0A01               	skipnz
  8361  001CFE  B4D8               	goto	l225
  8362  001D00  EF0F  F00E         	xorlw	22^21	; case 22
  8363  001D04  0A03               	skipnz
  8364  001D06  B4D8               	goto	l226
  8365  001D08  EF16  F00E         	goto	l227
  8366  001D0C  EF88  F00E         
  8367                           	
  8368                           l204:
  8369  001D10                     	line	208
  8370                           	
  8371                           l227:
  8372  001D10                     	return	;funcret
  8373  001D10  0012               	opt stack 0
  8374                           GLOBAL	__end_of_digitalWrite
  8375                           	__end_of_digitalWrite:
  8376  001D12                     	signat	_digitalWrite,8313
  8377                           	global	_analogWrite
  8378                           
  8379 ;; *************** function _analogWrite *****************
  8380 ;; Defined at:
  8381 ;;		line 340 in file "main.c"
  8382 ;; Parameters:    Size  Location     Type
  8383 ;;  pin             1    wreg     unsigned char 
  8384 ;;  value           2    0[COMRAM] unsigned int 
  8385 ;; Auto vars:     Size  Location     Type
  8386 ;;  pin             1    4[COMRAM] unsigned char 
  8387 ;; Return value:  Size  Location     Type
  8388 ;;                  1    wreg      void 
  8389 ;; Registers used:
  8390 ;;		wreg, status,2, status,0
  8391 ;; Tracked objects:
  8392 ;;		On entry : 0/0
  8393 ;;		On exit  : 0/0
  8394 ;;		Unchanged: 0/0
  8395 ;; Data sizes:     COMRAM   BANK0   BANK1   BANK2   BANK3   BANK4   BANK5   BANK6   BANK7
  8396 ;;      Params:         2       0       0       0       0       0       0       0       0
  8397 ;;      Locals:         1       0       0       0       0       0       0       0       0
  8398 ;;      Temps:          2       0       0       0       0       0       0       0       0
  8399 ;;      Totals:         5       0       0       0       0       0       0       0       0
  8400 ;;Total ram usage:        5 bytes
  8401 ;; Hardware stack levels used:    1
  8402 ;; Hardware stack levels required when called:    1
  8403 ;; This function calls:
  8404 ;;		Nothing
  8405 ;; This function is called by:
  8406 ;;		_adelante
  8407 ;;		_atras
  8408 ;;		_izquierda
  8409 ;;		_derecha
  8410 ;;		_stop
  8411 ;; This function uses a non-reentrant model
  8412 ;;
  8413                           psect	text19,class=CODE,space=0,reloc=2,group=0
  8414                           	line	340
  8415                           global __ptext19
  8416                           __ptext19:
  8417  002040                     psect	text19
  8418                           	file	"main.c"
  8419                           	line	340
  8420                           	global	__size_of_analogWrite
  8421                           	__size_of_analogWrite	equ	__end_of_analogWrite-_analogWrite
  8422  0000                     	
  8423                           _analogWrite:
  8424  002040                     ;incstack = 0
  8425                           	opt	stack 27
  8426                           ;analogWrite@pin stored from wreg
  8427                           	movwf	((c:analogWrite@pin)),c
  8428  002040  6E05               	line	342
  8429                           	
  8430                           l2892:
  8431  002042                     ;main.c: 340: void analogWrite(char pin,unsigned int value);main.c: 341: {;main.c: 342: 
                                     switch(pin)
  8432                           	goto	l2904
  8433  002042  EF81  F010         	line	344
  8434                           ;main.c: 343:     {;main.c: 344:         case 4:
  8435                           	
  8436                           l291:
  8437  002046                     	line	345
  8438                           	
  8439                           l2894:
  8440  002046                     ;main.c: 345:             if(value <1024)
  8441                           		movlw	4
  8442  002046  0E04               	subwf	 ((c:analogWrite@value+1)),c,w
  8443  002048  5C02               	btfsc	status,0
  8444  00204A  B0D8               	goto	u3661
  8445  00204C  EF2A  F010         	goto	u3660
  8446  002050  EF2C  F010         
  8447                           u3661:
  8448  002054                     	goto	l296
  8449  002054  EF96  F010         u3660:
  8450  002058                     	line	347
  8451                           	
  8452                           l2896:
  8453  002058                     ;main.c: 346:             {;main.c: 347:                 CCPR1L = value >> 2;
  8454                           	movff	(c:analogWrite@value),??_analogWrite+0+0
  8455  002058  C001  F003         	movff	(c:analogWrite@value+1),??_analogWrite+0+0+1
  8456  00205C  C002  F004         	bcf	status,0
  8457  002060  90D8               	rrcf	(??_analogWrite+0+1),c
  8458  002062  3204               	rrcf	(??_analogWrite+0+0),c
  8459  002064  3203               	bcf	status,0
  8460  002066  90D8               	rrcf	(??_analogWrite+0+1),c
  8461  002068  3204               	rrcf	(??_analogWrite+0+0),c
  8462  00206A  3203               	movf	(??_analogWrite+0+0),c,w
  8463  00206C  5003               	movwf	((c:4030)),c	;volatile
  8464  00206E  6EBE               	line	348
  8465                           ;main.c: 348:                 CCP1CONbits.DC1B1 = value & 2;
  8466                           	movff	(c:analogWrite@value),??_analogWrite+0+0
  8467  002070  C001  F003         	movlw	02h
  8468  002074  0E02               	andwf	(??_analogWrite+0+0),c
  8469  002076  1603               	swapf	(??_analogWrite+0+0),c
  8470  002078  3A03               	rlncf	(??_analogWrite+0+0),c
  8471  00207A  4603               	movf	((c:4029)),c,w	;volatile
  8472  00207C  50BD               	xorwf	(??_analogWrite+0+0),c,w
  8473  00207E  1803               	andlw	not (((1<<1)-1)<<5)
  8474  002080  0BDF               	xorwf	(??_analogWrite+0+0),c,w
  8475  002082  1803               	movwf	((c:4029)),c	;volatile
  8476  002084  6EBD               	line	349
  8477                           ;main.c: 349:                 CCP1CONbits.DC1B0 = value & 1;
  8478                           	movff	(c:analogWrite@value),??_analogWrite+0+0
  8479  002086  C001  F003         	movlw	01h
  8480  00208A  0E01               	andwf	(??_analogWrite+0+0),c
  8481  00208C  1603               	swapf	(??_analogWrite+0+0),c
  8482  00208E  3A03               	movf	((c:4029)),c,w	;volatile
  8483  002090  50BD               	xorwf	(??_analogWrite+0+0),c,w
  8484  002092  1803               	andlw	not (((1<<1)-1)<<4)
  8485  002094  0BEF               	xorwf	(??_analogWrite+0+0),c,w
  8486  002096  1803               	movwf	((c:4029)),c	;volatile
  8487  002098  6EBD               	goto	l296
  8488  00209A  EF96  F010         	line	351
  8489                           ;main.c: 351:             }
  8490                           	
  8491                           l292:
  8492  00209E                     	line	352
  8493                           ;main.c: 352:             break;
  8494                           	goto	l296
  8495  00209E  EF96  F010         	line	353
  8496                           ;main.c: 353:         case 3:
  8497                           	
  8498                           l294:
  8499  0020A2                     	line	354
  8500                           	
  8501                           l2898:
  8502  0020A2                     ;main.c: 354:             if(value <1024)
  8503                           		movlw	4
  8504  0020A2  0E04               	subwf	 ((c:analogWrite@value+1)),c,w
  8505  0020A4  5C02               	btfsc	status,0
  8506  0020A6  B0D8               	goto	u3671
  8507  0020A8  EF58  F010         	goto	u3670
  8508  0020AC  EF5A  F010         
  8509                           u3671:
  8510  0020B0                     	goto	l296
  8511  0020B0  EF96  F010         u3670:
  8512  0020B4                     	line	356
  8513                           	
  8514                           l2900:
  8515  0020B4                     ;main.c: 355:             {;main.c: 356:                 CCPR2L = value >> 2;
  8516                           	movff	(c:analogWrite@value),??_analogWrite+0+0
  8517  0020B4  C001  F003         	movff	(c:analogWrite@value+1),??_analogWrite+0+0+1
  8518  0020B8  C002  F004         	bcf	status,0
  8519  0020BC  90D8               	rrcf	(??_analogWrite+0+1),c
  8520  0020BE  3204               	rrcf	(??_analogWrite+0+0),c
  8521  0020C0  3203               	bcf	status,0
  8522  0020C2  90D8               	rrcf	(??_analogWrite+0+1),c
  8523  0020C4  3204               	rrcf	(??_analogWrite+0+0),c
  8524  0020C6  3203               	movf	(??_analogWrite+0+0),c,w
  8525  0020C8  5003               	movwf	((c:4027)),c	;volatile
  8526  0020CA  6EBB               	line	357
  8527                           ;main.c: 357:                 CCP2CONbits.DC2B1 = value & 2;
  8528                           	movff	(c:analogWrite@value),??_analogWrite+0+0
  8529  0020CC  C001  F003         	movlw	02h
  8530  0020D0  0E02               	andwf	(??_analogWrite+0+0),c
  8531  0020D2  1603               	swapf	(??_analogWrite+0+0),c
  8532  0020D4  3A03               	rlncf	(??_analogWrite+0+0),c
  8533  0020D6  4603               	movf	((c:4026)),c,w	;volatile
  8534  0020D8  50BA               	xorwf	(??_analogWrite+0+0),c,w
  8535  0020DA  1803               	andlw	not (((1<<1)-1)<<5)
  8536  0020DC  0BDF               	xorwf	(??_analogWrite+0+0),c,w
  8537  0020DE  1803               	movwf	((c:4026)),c	;volatile
  8538  0020E0  6EBA               	line	358
  8539                           ;main.c: 358:                 CCP2CONbits.DC2B0 = value & 1;
  8540                           	movff	(c:analogWrite@value),??_analogWrite+0+0
  8541  0020E2  C001  F003         	movlw	01h
  8542  0020E6  0E01               	andwf	(??_analogWrite+0+0),c
  8543  0020E8  1603               	swapf	(??_analogWrite+0+0),c
  8544  0020EA  3A03               	movf	((c:4026)),c,w	;volatile
  8545  0020EC  50BA               	xorwf	(??_analogWrite+0+0),c,w
  8546  0020EE  1803               	andlw	not (((1<<1)-1)<<4)
  8547  0020F0  0BEF               	xorwf	(??_analogWrite+0+0),c,w
  8548  0020F2  1803               	movwf	((c:4026)),c	;volatile
  8549  0020F4  6EBA               	goto	l296
  8550  0020F6  EF96  F010         	line	359
  8551                           ;main.c: 359:             }
  8552                           	
  8553                           l295:
  8554  0020FA                     	line	360
  8555                           ;main.c: 360:             break;
  8556                           	goto	l296
  8557  0020FA  EF96  F010         	line	361
  8558                           	
  8559                           l2902:
  8560  0020FE                     ;main.c: 361:     }
  8561                           	goto	l296
  8562  0020FE  EF96  F010         	
  8563                           l290:
  8564  002102                     	
  8565                           l2904:
  8566  002102                     	movf	((c:analogWrite@pin)),c,w
  8567  002102  5005               	movwf	(??_analogWrite+0+0)&0ffh,c
  8568  002104  6E03               	clrf	(??_analogWrite+0+0+1)&0ffh,c
  8569  002106  6A04               
  8570                           	; Switch on 2 bytes has been partitioned into a top level switch of size 1, and 1 sub-s
                                 witches
  8571                           ; Switch size 1, requested type "space"
  8572                           ; Number of cases is 1, Range of values is 0 to 0
  8573                           ; switch strategies available:
  8574                           ; Name         Instructions Cycles
  8575                           ; simple_byte            4     3 (average)
  8576                           ;	Chosen strategy is simple_byte
  8577                           
  8578                           	movf ??_analogWrite+0+1,c,w
  8579  002108  5004               	xorlw	0^0	; case 0
  8580  00210A  0A00               	skipnz
  8581  00210C  B4D8               	goto	l3256
  8582  00210E  EF8B  F010         	goto	l296
  8583  002112  EF96  F010         	
  8584                           l3256:
  8585  002116                     ; Switch size 1, requested type "space"
  8586                           ; Number of cases is 2, Range of values is 3 to 4
  8587                           ; switch strategies available:
  8588                           ; Name         Instructions Cycles
  8589                           ; simple_byte            7     4 (average)
  8590                           ;	Chosen strategy is simple_byte
  8591                           
  8592                           	movf ??_analogWrite+0+0,c,w
  8593  002116  5003               	xorlw	3^0	; case 3
  8594  002118  0A03               	skipnz
  8595  00211A  B4D8               	goto	l2898
  8596  00211C  EF51  F010         	xorlw	4^3	; case 4
  8597  002120  0A07               	skipnz
  8598  002122  B4D8               	goto	l2894
  8599  002124  EF23  F010         	goto	l296
  8600  002128  EF96  F010         
  8601                           	
  8602                           l293:
  8603  00212C                     	line	362
  8604                           	
  8605                           l296:
  8606  00212C                     	return	;funcret
  8607  00212C  0012               	opt stack 0
  8608                           GLOBAL	__end_of_analogWrite
  8609                           	__end_of_analogWrite:
  8610  00212E                     	signat	_analogWrite,8313
  8611                           	global	_PBRead
  8612                           
  8613 ;; *************** function _PBRead *****************
  8614 ;; Defined at:
  8615 ;;		line 510 in file "main.c"
  8616 ;; Parameters:    Size  Location     Type
  8617 ;;  pin             1    wreg     unsigned char 
  8618 ;; Auto vars:     Size  Location     Type
  8619 ;;  pin             1    2[COMRAM] unsigned char 
  8620 ;; Return value:  Size  Location     Type
  8621 ;;                  1    wreg      unsigned char 
  8622 ;; Registers used:
  8623 ;;		wreg, status,2, status,0
  8624 ;; Tracked objects:
  8625 ;;		On entry : 0/0
  8626 ;;		On exit  : 0/0
  8627 ;;		Unchanged: 0/0
  8628 ;; Data sizes:     COMRAM   BANK0   BANK1   BANK2   BANK3   BANK4   BANK5   BANK6   BANK7
  8629 ;;      Params:         0       0       0       0       0       0       0       0       0
  8630 ;;      Locals:         1       0       0       0       0       0       0       0       0
  8631 ;;      Temps:          2       0       0       0       0       0       0       0       0
  8632 ;;      Totals:         3       0       0       0       0       0       0       0       0
  8633 ;;Total ram usage:        3 bytes
  8634 ;; Hardware stack levels used:    1
  8635 ;; Hardware stack levels required when called:    1
  8636 ;; This function calls:
  8637 ;;		Nothing
  8638 ;; This function is called by:
  8639 ;;		_loop
  8640 ;; This function uses a non-reentrant model
  8641 ;;
  8642                           psect	text20,class=CODE,space=0,reloc=2,group=0
  8643                           	line	510
  8644                           global __ptext20
  8645                           __ptext20:
  8646  00226A                     psect	text20
  8647                           	file	"main.c"
  8648                           	line	510
  8649                           	global	__size_of_PBRead
  8650                           	__size_of_PBRead	equ	__end_of_PBRead-_PBRead
  8651  0000                     	
  8652                           _PBRead:
  8653  00226A                     ;incstack = 0
  8654                           	opt	stack 28
  8655                           ;PBRead@pin stored from wreg
  8656                           	movwf	((c:PBRead@pin)),c
  8657  00226A  6E03               	line	512
  8658                           	
  8659                           l1888:
  8660  00226C                     ;main.c: 510: char PBRead(char pin);main.c: 511: {;main.c: 512:     switch(pin)
  8661                           	goto	l1898
  8662  00226C  EF61  F011         	line	514
  8663                           ;main.c: 513:     {;main.c: 514:         case 0:
  8664                           	
  8665                           l350:
  8666  002270                     	line	515
  8667                           ;main.c: 515:             return PORTEbits.RE0;
  8668                           	btfsc	((c:3972)),c,0	;volatile
  8669  002270  B084               	goto	u1321
  8670  002272  EF3D  F011         	goto	u1320
  8671  002276  EF40  F011         u1321:
  8672  00227A                     	movlw	1
  8673  00227A  0E01               	goto	u1326
  8674  00227C  EF41  F011         u1320:
  8675  002280                     	movlw	0
  8676  002280  0E00               u1326:
  8677  002282                     	goto	l351
  8678  002282  EF7A  F011         	line	516
  8679                           	
  8680                           l1890:
  8681  002286                     ;main.c: 516:             break;
  8682                           	goto	l351
  8683  002286  EF7A  F011         	line	517
  8684                           ;main.c: 517:         case 1:
  8685                           	
  8686                           l353:
  8687  00228A                     	line	518
  8688                           ;main.c: 518:             return PORTEbits.RE1;
  8689                           	btfsc	((c:3972)),c,1	;volatile
  8690  00228A  B284               	goto	u1331
  8691  00228C  EF4A  F011         	goto	u1330
  8692  002290  EF4D  F011         u1331:
  8693  002294                     	movlw	1
  8694  002294  0E01               	goto	u1336
  8695  002296  EF4E  F011         u1330:
  8696  00229A                     	movlw	0
  8697  00229A  0E00               u1336:
  8698  00229C                     	goto	l351
  8699  00229C  EF7A  F011         	line	519
  8700                           	
  8701                           l1892:
  8702  0022A0                     ;main.c: 519:             break;
  8703                           	goto	l351
  8704  0022A0  EF7A  F011         	line	520
  8705                           ;main.c: 520:         case 2:
  8706                           	
  8707                           l354:
  8708  0022A4                     	line	521
  8709                           ;main.c: 521:             return PORTEbits.RE2;
  8710                           	btfsc	((c:3972)),c,2	;volatile
  8711  0022A4  B484               	goto	u1341
  8712  0022A6  EF57  F011         	goto	u1340
  8713  0022AA  EF5A  F011         u1341:
  8714  0022AE                     	movlw	1
  8715  0022AE  0E01               	goto	u1346
  8716  0022B0  EF5B  F011         u1340:
  8717  0022B4                     	movlw	0
  8718  0022B4  0E00               u1346:
  8719  0022B6                     	goto	l351
  8720  0022B6  EF7A  F011         	line	522
  8721                           	
  8722                           l1894:
  8723  0022BA                     ;main.c: 522:             break;
  8724                           	goto	l351
  8725  0022BA  EF7A  F011         	line	523
  8726                           	
  8727                           l1896:
  8728  0022BE                     ;main.c: 523:     }
  8729                           	goto	l351
  8730  0022BE  EF7A  F011         	
  8731                           l349:
  8732  0022C2                     	
  8733                           l1898:
  8734  0022C2                     	movf	((c:PBRead@pin)),c,w
  8735  0022C2  5003               	movwf	(??_PBRead+0+0)&0ffh,c
  8736  0022C4  6E01               	clrf	(??_PBRead+0+0+1)&0ffh,c
  8737  0022C6  6A02               
  8738                           	; Switch on 2 bytes has been partitioned into a top level switch of size 1, and 1 sub-s
                                 witches
  8739                           ; Switch size 1, requested type "space"
  8740                           ; Number of cases is 1, Range of values is 0 to 0
  8741                           ; switch strategies available:
  8742                           ; Name         Instructions Cycles
  8743                           ; simple_byte            4     3 (average)
  8744                           ;	Chosen strategy is simple_byte
  8745                           
  8746                           	movf ??_PBRead+0+1,c,w
  8747  0022C8  5002               	xorlw	0^0	; case 0
  8748  0022CA  0A00               	skipnz
  8749  0022CC  B4D8               	goto	l3258
  8750  0022CE  EF6B  F011         	goto	l351
  8751  0022D2  EF7A  F011         	
  8752                           l3258:
  8753  0022D6                     ; Switch size 1, requested type "space"
  8754                           ; Number of cases is 3, Range of values is 0 to 2
  8755                           ; switch strategies available:
  8756                           ; Name         Instructions Cycles
  8757                           ; simple_byte           10     6 (average)
  8758                           ;	Chosen strategy is simple_byte
  8759                           
  8760                           	movf ??_PBRead+0+0,c,w
  8761  0022D6  5001               	xorlw	0^0	; case 0
  8762  0022D8  0A00               	skipnz
  8763  0022DA  B4D8               	goto	l350
  8764  0022DC  EF38  F011         	xorlw	1^0	; case 1
  8765  0022E0  0A01               	skipnz
  8766  0022E2  B4D8               	goto	l353
  8767  0022E4  EF45  F011         	xorlw	2^1	; case 2
  8768  0022E8  0A03               	skipnz
  8769  0022EA  B4D8               	goto	l354
  8770  0022EC  EF52  F011         	goto	l351
  8771  0022F0  EF7A  F011         
  8772                           	
  8773                           l352:
  8774  0022F4                     	line	524
  8775                           	
  8776                           l351:
  8777  0022F4                     	return	;funcret
  8778  0022F4  0012               	opt stack 0
  8779                           GLOBAL	__end_of_PBRead
  8780                           	__end_of_PBRead:
  8781  0022F6                     	signat	_PBRead,4217
  8782                           	global	_configuracionInicial
  8783                           
  8784 ;; *************** function _configuracionInicial *****************
  8785 ;; Defined at:
  8786 ;;		line 29 in file "main.c"
  8787 ;; Parameters:    Size  Location     Type
  8788 ;;		None
  8789 ;; Auto vars:     Size  Location     Type
  8790 ;;		None
  8791 ;; Return value:  Size  Location     Type
  8792 ;;                  1    wreg      void 
  8793 ;; Registers used:
  8794 ;;		wreg, status,2, status,0, cstack
  8795 ;; Tracked objects:
  8796 ;;		On entry : 0/0
  8797 ;;		On exit  : 0/0
  8798 ;;		Unchanged: 0/0
  8799 ;; Data sizes:     COMRAM   BANK0   BANK1   BANK2   BANK3   BANK4   BANK5   BANK6   BANK7
  8800 ;;      Params:         0       0       0       0       0       0       0       0       0
  8801 ;;      Locals:         0       0       0       0       0       0       0       0       0
  8802 ;;      Temps:          0       0       0       0       0       0       0       0       0
  8803 ;;      Totals:         0       0       0       0       0       0       0       0       0
  8804 ;;Total ram usage:        0 bytes
  8805 ;; Hardware stack levels used:    1
  8806 ;; Hardware stack levels required when called:    2
  8807 ;; This function calls:
  8808 ;;		_ADCConfig
  8809 ;;		_CCPConfig
  8810 ;;		_PORTSConfiguration
  8811 ;;		_TMR0Config
  8812 ;;		_TMR1Config
  8813 ;; This function is called by:
  8814 ;;		_main
  8815 ;; This function uses a non-reentrant model
  8816 ;;
  8817                           psect	text21,class=CODE,space=0,reloc=2,group=0
  8818                           	line	29
  8819                           global __ptext21
  8820                           __ptext21:
  8821  002528                     psect	text21
  8822                           	file	"main.c"
  8823                           	line	29
  8824                           	global	__size_of_configuracionInicial
  8825                           	__size_of_configuracionInicial	equ	__end_of_configuracionInicial-_configuracionInicial

  8826  0000                     	
  8827                           _configuracionInicial:
  8828  002528                     ;incstack = 0
  8829                           	opt	stack 28
  8830                           	line	31
  8831                           	
  8832                           l2978:
  8833  002528                     ;main.c: 31:     ADCConfig();
  8834                           	call	_ADCConfig	;wreg free
  8835  002528  EC13  F013         	line	32
  8836                           	
  8837                           l2980:
  8838  00252C                     ;main.c: 32:     CCPConfig(1000, 16);
  8839                           	movlw	low(03E8h)
  8840  00252C  0EE8               	movwf	((c:CCPConfig@pwm1)),c
  8841  00252E  6E01               	movlw	high(03E8h)
  8842  002530  0E03               	movwf	((c:CCPConfig@pwm1+1)),c
  8843  002532  6E02               	movlw	low highword(03E8h)
  8844  002534  0E00               	movwf	((c:CCPConfig@pwm1+2)),c
  8845  002536  6E03               	movlw	high highword(03E8h)
  8846  002538  0E00               	movwf	((c:CCPConfig@pwm1+3)),c
  8847  00253A  6E04               	movlw	high(010h)
  8848  00253C  0E00               	movwf	((c:CCPConfig@TMR2PRESCALE+1)),c
  8849  00253E  6E06               	movlw	low(010h)
  8850  002540  0E10               	movwf	((c:CCPConfig@TMR2PRESCALE)),c
  8851  002542  6E05               	call	_CCPConfig	;wreg free
  8852  002544  EC7B  F011         	line	33
  8853                           	
  8854                           l2982:
  8855  002548                     ;main.c: 33:     PORTSConfiguration();
  8856                           	call	_PORTSConfiguration	;wreg free
  8857  002548  EC1E  F013         	line	34
  8858                           ;main.c: 34:     TMR0Config(0);
  8859                           	movlw	(0)&0ffh
  8860  00254C  0E00               	
  8861                           	call	_TMR0Config
  8862  00254E  ECBD  F011         	line	35
  8863                           	
  8864                           l2984:
  8865  002552                     ;main.c: 35:     TMR1Config();
  8866                           	call	_TMR1Config	;wreg free
  8867  002552  EC28  F013         	line	36
  8868                           	
  8869                           l159:
  8870  002556                     	return	;funcret
  8871  002556  0012               	opt stack 0
  8872                           GLOBAL	__end_of_configuracionInicial
  8873                           	__end_of_configuracionInicial:
  8874  002558                     	signat	_configuracionInicial,89
  8875                           	global	_TMR1Config
  8876                           
  8877 ;; *************** function _TMR1Config *****************
  8878 ;; Defined at:
  8879 ;;		line 451 in file "main.c"
  8880 ;; Parameters:    Size  Location     Type
  8881 ;;		None
  8882 ;; Auto vars:     Size  Location     Type
  8883 ;;		None
  8884 ;; Return value:  Size  Location     Type
  8885 ;;                  1    wreg      void 
  8886 ;; Registers used:
  8887 ;;		wreg, status,2
  8888 ;; Tracked objects:
  8889 ;;		On entry : 0/0
  8890 ;;		On exit  : 0/0
  8891 ;;		Unchanged: 0/0
  8892 ;; Data sizes:     COMRAM   BANK0   BANK1   BANK2   BANK3   BANK4   BANK5   BANK6   BANK7
  8893 ;;      Params:         0       0       0       0       0       0       0       0       0
  8894 ;;      Locals:         0       0       0       0       0       0       0       0       0
  8895 ;;      Temps:          0       0       0       0       0       0       0       0       0
  8896 ;;      Totals:         0       0       0       0       0       0       0       0       0
  8897 ;;Total ram usage:        0 bytes
  8898 ;; Hardware stack levels used:    1
  8899 ;; Hardware stack levels required when called:    1
  8900 ;; This function calls:
  8901 ;;		Nothing
  8902 ;; This function is called by:
  8903 ;;		_configuracionInicial
  8904 ;; This function uses a non-reentrant model
  8905 ;;
  8906                           psect	text22,class=CODE,space=0,reloc=2,group=0
  8907                           	line	451
  8908                           global __ptext22
  8909                           __ptext22:
  8910  002650                     psect	text22
  8911                           	file	"main.c"
  8912                           	line	451
  8913                           	global	__size_of_TMR1Config
  8914                           	__size_of_TMR1Config	equ	__end_of_TMR1Config-_TMR1Config
  8915  0000                     	
  8916                           _TMR1Config:
  8917  002650                     ;incstack = 0
  8918                           	opt	stack 28
  8919                           	line	453
  8920                           	
  8921                           l1886:
  8922  002650                     ;main.c: 453:     T1CON = 0xB6;
  8923                           	movlw	low(0B6h)
  8924  002650  0EB6               	movwf	((c:4045)),c	;volatile
  8925  002652  6ECD               	line	454
  8926                           	
  8927                           l326:
  8928  002654                     	return	;funcret
  8929  002654  0012               	opt stack 0
  8930                           GLOBAL	__end_of_TMR1Config
  8931                           	__end_of_TMR1Config:
  8932  002656                     	signat	_TMR1Config,89
  8933                           	global	_TMR0Config
  8934                           
  8935 ;; *************** function _TMR0Config *****************
  8936 ;; Defined at:
  8937 ;;		line 412 in file "main.c"
  8938 ;; Parameters:    Size  Location     Type
  8939 ;;  mode            1    wreg     unsigned char 
  8940 ;; Auto vars:     Size  Location     Type
  8941 ;;  mode            1    2[COMRAM] unsigned char 
  8942 ;; Return value:  Size  Location     Type
  8943 ;;                  1    wreg      void 
  8944 ;; Registers used:
  8945 ;;		wreg, status,2, status,0
  8946 ;; Tracked objects:
  8947 ;;		On entry : 0/0
  8948 ;;		On exit  : 0/0
  8949 ;;		Unchanged: 0/0
  8950 ;; Data sizes:     COMRAM   BANK0   BANK1   BANK2   BANK3   BANK4   BANK5   BANK6   BANK7
  8951 ;;      Params:         0       0       0       0       0       0       0       0       0
  8952 ;;      Locals:         1       0       0       0       0       0       0       0       0
  8953 ;;      Temps:          2       0       0       0       0       0       0       0       0
  8954 ;;      Totals:         3       0       0       0       0       0       0       0       0
  8955 ;;Total ram usage:        3 bytes
  8956 ;; Hardware stack levels used:    1
  8957 ;; Hardware stack levels required when called:    1
  8958 ;; This function calls:
  8959 ;;		Nothing
  8960 ;; This function is called by:
  8961 ;;		_configuracionInicial
  8962 ;; This function uses a non-reentrant model
  8963 ;;
  8964                           psect	text23,class=CODE,space=0,reloc=2,group=0
  8965                           	line	412
  8966                           global __ptext23
  8967                           __ptext23:
  8968  00237A                     psect	text23
  8969                           	file	"main.c"
  8970                           	line	412
  8971                           	global	__size_of_TMR0Config
  8972                           	__size_of_TMR0Config	equ	__end_of_TMR0Config-_TMR0Config
  8973  0000                     	
  8974                           _TMR0Config:
  8975  00237A                     ;incstack = 0
  8976                           	opt	stack 28
  8977                           ;TMR0Config@mode stored from wreg
  8978                           	movwf	((c:TMR0Config@mode)),c
  8979  00237A  6E03               	line	414
  8980                           	
  8981                           l1866:
  8982  00237C                     ;main.c: 412: void TMR0Config(char mode);main.c: 413: {;main.c: 414:     switch(mode)
  8983                           	goto	l1880
  8984  00237C  EFD2  F011         	line	416
  8985                           ;main.c: 415:     {;main.c: 416:         case 1:
  8986                           	
  8987                           l311:
  8988  002380                     	line	418
  8989                           	
  8990                           l1868:
  8991  002380                     ;main.c: 418:             T0CON = 0x17;
  8992                           	movlw	low(017h)
  8993  002380  0E17               	movwf	((c:4053)),c	;volatile
  8994  002382  6ED5               	line	419
  8995                           	
  8996                           l1870:
  8997  002384                     ;main.c: 419:             INTCONbits.T0IE = 1;
  8998                           	bsf	((c:4082)),c,5	;volatile
  8999  002384  8AF2               	line	420
  9000                           	
  9001                           l1872:
  9002  002386                     ;main.c: 420:             T0CONbits.TMR0ON = 1;
  9003                           	bsf	((c:4053)),c,7	;volatile
  9004  002386  8ED5               	line	421
  9005                           ;main.c: 421:             T0CON = 0xC4;
  9006                           	movlw	low(0C4h)
  9007  002388  0EC4               	movwf	((c:4053)),c	;volatile
  9008  00238A  6ED5               	line	424
  9009                           ;main.c: 424:             TMR0L = 0x00;
  9010                           	movlw	low(0)
  9011  00238C  0E00               	movwf	((c:4054)),c	;volatile
  9012  00238E  6ED6               	line	425
  9013                           ;main.c: 425:             TMR0H = 0x00;
  9014                           	movlw	low(0)
  9015  002390  0E00               	movwf	((c:4055)),c	;volatile
  9016  002392  6ED7               	line	426
  9017                           	
  9018                           l1874:
  9019  002394                     ;main.c: 426:             INTCONbits.TMR0IF = 0;
  9020                           	bcf	((c:4082)),c,2	;volatile
  9021  002394  94F2               	line	427
  9022                           	
  9023                           l1876:
  9024  002396                     ;main.c: 427:             (INTCONbits.GIE = 1);
  9025                           	bsf	((c:4082)),c,7	;volatile
  9026  002396  8EF2               	line	428
  9027                           ;main.c: 428:             break;
  9028                           	goto	l314
  9029  002398  EFE7  F011         	line	429
  9030                           ;main.c: 429:         case 0:
  9031                           	
  9032                           l313:
  9033  00239C                     	line	431
  9034                           ;main.c: 431:             break;
  9035                           	goto	l314
  9036  00239C  EFE7  F011         	line	432
  9037                           	
  9038                           l1878:
  9039  0023A0                     ;main.c: 432:     }
  9040                           	goto	l314
  9041  0023A0  EFE7  F011         	
  9042                           l310:
  9043  0023A4                     	
  9044                           l1880:
  9045  0023A4                     	movf	((c:TMR0Config@mode)),c,w
  9046  0023A4  5003               	movwf	(??_TMR0Config+0+0)&0ffh,c
  9047  0023A6  6E01               	clrf	(??_TMR0Config+0+0+1)&0ffh,c
  9048  0023A8  6A02               
  9049                           	; Switch on 2 bytes has been partitioned into a top level switch of size 1, and 1 sub-s
                                 witches
  9050                           ; Switch size 1, requested type "space"
  9051                           ; Number of cases is 1, Range of values is 0 to 0
  9052                           ; switch strategies available:
  9053                           ; Name         Instructions Cycles
  9054                           ; simple_byte            4     3 (average)
  9055                           ;	Chosen strategy is simple_byte
  9056                           
  9057                           	movf ??_TMR0Config+0+1,c,w
  9058  0023AA  5002               	xorlw	0^0	; case 0
  9059  0023AC  0A00               	skipnz
  9060  0023AE  B4D8               	goto	l3260
  9061  0023B0  EFDC  F011         	goto	l314
  9062  0023B4  EFE7  F011         	
  9063                           l3260:
  9064  0023B8                     ; Switch size 1, requested type "space"
  9065                           ; Number of cases is 2, Range of values is 0 to 1
  9066                           ; switch strategies available:
  9067                           ; Name         Instructions Cycles
  9068                           ; simple_byte            7     4 (average)
  9069                           ;	Chosen strategy is simple_byte
  9070                           
  9071                           	movf ??_TMR0Config+0+0,c,w
  9072  0023B8  5001               	xorlw	0^0	; case 0
  9073  0023BA  0A00               	skipnz
  9074  0023BC  B4D8               	goto	l314
  9075  0023BE  EFE7  F011         	xorlw	1^0	; case 1
  9076  0023C2  0A01               	skipnz
  9077  0023C4  B4D8               	goto	l1868
  9078  0023C6  EFC0  F011         	goto	l314
  9079  0023CA  EFE7  F011         
  9080                           	
  9081                           l312:
  9082  0023CE                     	line	433
  9083                           	
  9084                           l314:
  9085  0023CE                     	return	;funcret
  9086  0023CE  0012               	opt stack 0
  9087                           GLOBAL	__end_of_TMR0Config
  9088                           	__end_of_TMR0Config:
  9089  0023D0                     	signat	_TMR0Config,4217
  9090                           	global	_PORTSConfiguration
  9091                           
  9092 ;; *************** function _PORTSConfiguration *****************
  9093 ;; Defined at:
  9094 ;;		line 500 in file "main.c"
  9095 ;; Parameters:    Size  Location     Type
  9096 ;;		None
  9097 ;; Auto vars:     Size  Location     Type
  9098 ;;		None
  9099 ;; Return value:  Size  Location     Type
  9100 ;;                  1    wreg      void 
  9101 ;; Registers used:
  9102 ;;		wreg, status,2
  9103 ;; Tracked objects:
  9104 ;;		On entry : 0/0
  9105 ;;		On exit  : 0/0
  9106 ;;		Unchanged: 0/0
  9107 ;; Data sizes:     COMRAM   BANK0   BANK1   BANK2   BANK3   BANK4   BANK5   BANK6   BANK7
  9108 ;;      Params:         0       0       0       0       0       0       0       0       0
  9109 ;;      Locals:         0       0       0       0       0       0       0       0       0
  9110 ;;      Temps:          0       0       0       0       0       0       0       0       0
  9111 ;;      Totals:         0       0       0       0       0       0       0       0       0
  9112 ;;Total ram usage:        0 bytes
  9113 ;; Hardware stack levels used:    1
  9114 ;; Hardware stack levels required when called:    1
  9115 ;; This function calls:
  9116 ;;		Nothing
  9117 ;; This function is called by:
  9118 ;;		_configuracionInicial
  9119 ;; This function uses a non-reentrant model
  9120 ;;
  9121                           psect	text24,class=CODE,space=0,reloc=2,group=0
  9122                           	line	500
  9123                           global __ptext24
  9124                           __ptext24:
  9125  00263C                     psect	text24
  9126                           	file	"main.c"
  9127                           	line	500
  9128                           	global	__size_of_PORTSConfiguration
  9129                           	__size_of_PORTSConfiguration	equ	__end_of_PORTSConfiguration-_PORTSConfiguration
  9130  0000                     	
  9131                           _PORTSConfiguration:
  9132  00263C                     ;incstack = 0
  9133                           	opt	stack 28
  9134                           	line	502
  9135                           	
  9136                           l1854:
  9137  00263C                     ;main.c: 502:     TRISA = 0x3F;
  9138                           	movlw	low(03Fh)
  9139  00263C  0E3F               	movwf	((c:3986)),c	;volatile
  9140  00263E  6E92               	line	503
  9141                           	
  9142                           l1856:
  9143  002640                     ;main.c: 503:     TRISB = 0xFF;
  9144                           	setf	((c:3987)),c	;volatile
  9145  002640  6893               	line	504
  9146                           ;main.c: 504:     TRISC = 0xCF;
  9147                           	movlw	low(0CFh)
  9148  002642  0ECF               	movwf	((c:3988)),c	;volatile
  9149  002644  6E94               	line	505
  9150                           	
  9151                           l1858:
  9152  002646                     ;main.c: 505:     TRISD = 0xFF;
  9153                           	setf	((c:3989)),c	;volatile
  9154  002646  6895               	line	506
  9155                           	
  9156                           l1860:
  9157  002648                     ;main.c: 506:     TRISEbits.RE0 = 1;
  9158                           	bsf	((c:3990)),c,0	;volatile
  9159  002648  8096               	line	507
  9160                           	
  9161                           l1862:
  9162  00264A                     ;main.c: 507:     TRISEbits.RE1 = 1;
  9163                           	bsf	((c:3990)),c,1	;volatile
  9164  00264A  8296               	line	508
  9165                           	
  9166                           l1864:
  9167  00264C                     ;main.c: 508:     TRISEbits.RE2 = 1;
  9168                           	bsf	((c:3990)),c,2	;volatile
  9169  00264C  8496               	line	509
  9170                           	
  9171                           l346:
  9172  00264E                     	return	;funcret
  9173  00264E  0012               	opt stack 0
  9174                           GLOBAL	__end_of_PORTSConfiguration
  9175                           	__end_of_PORTSConfiguration:
  9176  002650                     	signat	_PORTSConfiguration,89
  9177                           	global	_CCPConfig
  9178                           
  9179 ;; *************** function _CCPConfig *****************
  9180 ;; Defined at:
  9181 ;;		line 363 in file "main.c"
  9182 ;; Parameters:    Size  Location     Type
  9183 ;;  pwm1            4    0[COMRAM] long 
  9184 ;;  TMR2PRESCALE    2    4[COMRAM] const int 
  9185 ;; Auto vars:     Size  Location     Type
  9186 ;;		None
  9187 ;; Return value:  Size  Location     Type
  9188 ;;                  1    wreg      void 
  9189 ;; Registers used:
  9190 ;;		wreg, status,2, status,0
  9191 ;; Tracked objects:
  9192 ;;		On entry : 0/0
  9193 ;;		On exit  : 0/0
  9194 ;;		Unchanged: 0/0
  9195 ;; Data sizes:     COMRAM   BANK0   BANK1   BANK2   BANK3   BANK4   BANK5   BANK6   BANK7
  9196 ;;      Params:         6       0       0       0       0       0       0       0       0
  9197 ;;      Locals:         0       0       0       0       0       0       0       0       0
  9198 ;;      Temps:          2       0       0       0       0       0       0       0       0
  9199 ;;      Totals:         8       0       0       0       0       0       0       0       0
  9200 ;;Total ram usage:        8 bytes
  9201 ;; Hardware stack levels used:    1
  9202 ;; Hardware stack levels required when called:    1
  9203 ;; This function calls:
  9204 ;;		Nothing
  9205 ;; This function is called by:
  9206 ;;		_configuracionInicial
  9207 ;; This function uses a non-reentrant model
  9208 ;;
  9209                           psect	text25,class=CODE,space=0,reloc=2,group=0
  9210                           	line	363
  9211                           global __ptext25
  9212                           __ptext25:
  9213  0022F6                     psect	text25
  9214                           	file	"main.c"
  9215                           	line	363
  9216                           	global	__size_of_CCPConfig
  9217                           	__size_of_CCPConfig	equ	__end_of_CCPConfig-_CCPConfig
  9218  0000                     	
  9219                           _CCPConfig:
  9220  0022F6                     ;incstack = 0
  9221                           	opt	stack 28
  9222                           	line	365
  9223                           	
  9224                           l2918:
  9225  0022F6                     ;main.c: 363: void CCPConfig(long pwm1, const int TMR2PRESCALE);main.c: 364: {;main.c: 3
                                 65:     TRISCbits.RC0 = 1;
  9226                           	bsf	((c:3988)),c,0	;volatile
  9227  0022F6  8094               	line	369
  9228                           ;main.c: 369:     switch(TMR2PRESCALE)
  9229                           	goto	l2922
  9230  0022F8  EF8C  F011         	line	371
  9231                           ;main.c: 370:     {;main.c: 371:         case 1:
  9232                           	
  9233                           l300:
  9234  0022FC                     	line	372
  9235                           ;main.c: 372:             T2CKPS0 = 0;
  9236                           	bcf	c:(32336/8),(32336)&7	;volatile
  9237  0022FC  90CA               	line	373
  9238                           ;main.c: 373:             T2CKPS1 = 0;
  9239                           	bcf	c:(32337/8),(32337)&7	;volatile
  9240  0022FE  92CA               	line	374
  9241                           ;main.c: 374:             break;
  9242                           	goto	l2924
  9243  002300  EFA6  F011         	line	375
  9244                           ;main.c: 375:         case 4:
  9245                           	
  9246                           l302:
  9247  002304                     	line	376
  9248                           ;main.c: 376:             T2CKPS0 = 1;
  9249                           	bsf	c:(32336/8),(32336)&7	;volatile
  9250  002304  80CA               	line	377
  9251                           ;main.c: 377:             T2CKPS1 = 0;
  9252                           	bcf	c:(32337/8),(32337)&7	;volatile
  9253  002306  92CA               	line	378
  9254                           ;main.c: 378:             break;
  9255                           	goto	l2924
  9256  002308  EFA6  F011         	line	379
  9257                           ;main.c: 379:         case 16:
  9258                           	
  9259                           l303:
  9260  00230C                     	line	380
  9261                           ;main.c: 380:             T2CKPS0 = 1;
  9262                           	bsf	c:(32336/8),(32336)&7	;volatile
  9263  00230C  80CA               	line	381
  9264                           ;main.c: 381:             T2CKPS1 = 1;
  9265                           	bsf	c:(32337/8),(32337)&7	;volatile
  9266  00230E  82CA               	line	382
  9267                           ;main.c: 382:             break;
  9268                           	goto	l2924
  9269  002310  EFA6  F011         	line	383
  9270                           	
  9271                           l2920:
  9272  002314                     ;main.c: 383:     }
  9273                           	goto	l2924
  9274  002314  EFA6  F011         	
  9275                           l299:
  9276  002318                     	
  9277                           l2922:
  9278  002318                     	movff	(c:CCPConfig@TMR2PRESCALE),??_CCPConfig+0+0
  9279  002318  C005  F007         	movff	(c:CCPConfig@TMR2PRESCALE+1),??_CCPConfig+0+0+1
  9280  00231C  C006  F008         	; Switch on 2 bytes has been partitioned into a top level switch of size 1, and 1 sub-s
                                 witches
  9281                           ; Switch size 1, requested type "space"
  9282                           ; Number of cases is 1, Range of values is 0 to 0
  9283                           ; switch strategies available:
  9284                           ; Name         Instructions Cycles
  9285                           ; simple_byte            4     3 (average)
  9286                           ;	Chosen strategy is simple_byte
  9287                           
  9288                           	movf ??_CCPConfig+0+1,c,w
  9289  002320  5008               	xorlw	0^0	; case 0
  9290  002322  0A00               	skipnz
  9291  002324  B4D8               	goto	l3262
  9292  002326  EF97  F011         	goto	l2924
  9293  00232A  EFA6  F011         	
  9294                           l3262:
  9295  00232E                     ; Switch size 1, requested type "space"
  9296                           ; Number of cases is 3, Range of values is 1 to 16
  9297                           ; switch strategies available:
  9298                           ; Name         Instructions Cycles
  9299                           ; simple_byte           10     6 (average)
  9300                           ;	Chosen strategy is simple_byte
  9301                           
  9302                           	movf ??_CCPConfig+0+0,c,w
  9303  00232E  5007               	xorlw	1^0	; case 1
  9304  002330  0A01               	skipnz
  9305  002332  B4D8               	goto	l300
  9306  002334  EF7E  F011         	xorlw	4^1	; case 4
  9307  002338  0A05               	skipnz
  9308  00233A  B4D8               	goto	l302
  9309  00233C  EF82  F011         	xorlw	16^4	; case 16
  9310  002340  0A14               	skipnz
  9311  002342  B4D8               	goto	l303
  9312  002344  EF86  F011         	goto	l2924
  9313  002348  EFA6  F011         
  9314                           	
  9315                           l301:
  9316  00234C                     	line	384
  9317                           	
  9318                           l2924:
  9319  00234C                     ;main.c: 384:     PR2 = 0xAA;
  9320                           	movlw	low(0AAh)
  9321  00234C  0EAA               	movwf	((c:4043)),c	;volatile
  9322  00234E  6ECB               	line	385
  9323                           	
  9324                           l2926:
  9325  002350                     ;main.c: 385:     CCP1CONbits.P1M1 = 0;
  9326                           	bcf	((c:4029)),c,7	;volatile
  9327  002350  9EBD               	line	386
  9328                           	
  9329                           l2928:
  9330  002352                     ;main.c: 386:     CCP1CONbits.P1M0 = 0;
  9331                           	bcf	((c:4029)),c,6	;volatile
  9332  002352  9CBD               	line	387
  9333                           	
  9334                           l2930:
  9335  002354                     ;main.c: 387:     CCP1M3 = 1;
  9336                           	bsf	c:(32235/8),(32235)&7	;volatile
  9337  002354  86BD               	line	388
  9338                           	
  9339                           l2932:
  9340  002356                     ;main.c: 388:     CCP1M2 = 1;
  9341                           	bsf	c:(32234/8),(32234)&7	;volatile
  9342  002356  84BD               	line	389
  9343                           ;main.c: 389:     CCPR1L = 0x00;
  9344                           	movlw	low(0)
  9345  002358  0E00               	movwf	((c:4030)),c	;volatile
  9346  00235A  6EBE               	line	390
  9347                           ;main.c: 390:     CCPR2L = 0x00;
  9348                           	movlw	low(0)
  9349  00235C  0E00               	movwf	((c:4027)),c	;volatile
  9350  00235E  6EBB               	line	391
  9351                           	
  9352                           l2934:
  9353  002360                     ;main.c: 391:     CCP2CONbits.DC2B0 = 0;
  9354                           	bcf	((c:4026)),c,4	;volatile
  9355  002360  98BA               	line	392
  9356                           	
  9357                           l2936:
  9358  002362                     ;main.c: 392:     CCP2CONbits.DC2B1 = 0;
  9359                           	bcf	((c:4026)),c,5	;volatile
  9360  002362  9ABA               	line	393
  9361                           	
  9362                           l2938:
  9363  002364                     ;main.c: 393:     DC1B1 = 0;
  9364                           	bcf	c:(32237/8),(32237)&7	;volatile
  9365  002364  9ABD               	line	394
  9366                           	
  9367                           l2940:
  9368  002366                     ;main.c: 394:     DC1B0 = 0;
  9369                           	bcf	c:(32236/8),(32236)&7	;volatile
  9370  002366  98BD               	line	395
  9371                           	
  9372                           l2942:
  9373  002368                     ;main.c: 395:     CCP2CONbits.CCP2M0 = 0;
  9374                           	bcf	((c:4026)),c,0	;volatile
  9375  002368  90BA               	line	396
  9376                           	
  9377                           l2944:
  9378  00236A                     ;main.c: 396:     CCP2CONbits.CCP2M1 = 0;
  9379                           	bcf	((c:4026)),c,1	;volatile
  9380  00236A  92BA               	line	397
  9381                           	
  9382                           l2946:
  9383  00236C                     ;main.c: 397:     CCP2CONbits.CCP2M2 = 1;
  9384                           	bsf	((c:4026)),c,2	;volatile
  9385  00236C  84BA               	line	398
  9386                           	
  9387                           l2948:
  9388  00236E                     ;main.c: 398:     CCP2CONbits.CCP2M3 = 1;
  9389                           	bsf	((c:4026)),c,3	;volatile
  9390  00236E  86BA               	line	399
  9391                           	
  9392                           l2950:
  9393  002370                     ;main.c: 399:     PIR1bits.TMR2IF = 0;
  9394                           	bcf	((c:3998)),c,1	;volatile
  9395  002370  929E               	line	400
  9396                           	
  9397                           l2952:
  9398  002372                     ;main.c: 400:     TMR2ON = 1;
  9399                           	bsf	c:(32338/8),(32338)&7	;volatile
  9400  002372  84CA               	line	401
  9401                           	
  9402                           l2954:
  9403  002374                     ;main.c: 401:     TRISCbits.RC0 = 0;
  9404                           	bcf	((c:3988)),c,0	;volatile
  9405  002374  9094               	line	402
  9406                           	
  9407                           l2956:
  9408  002376                     ;main.c: 402:     TRISCbits.RC1 = 0;
  9409                           	bcf	((c:3988)),c,1	;volatile
  9410  002376  9294               	line	405
  9411                           	
  9412                           l304:
  9413  002378                     	return	;funcret
  9414  002378  0012               	opt stack 0
  9415                           GLOBAL	__end_of_CCPConfig
  9416                           	__end_of_CCPConfig:
  9417  00237A                     	signat	_CCPConfig,8313
  9418                           	global	_ADCConfig
  9419                           
  9420 ;; *************** function _ADCConfig *****************
  9421 ;; Defined at:
  9422 ;;		line 314 in file "main.c"
  9423 ;; Parameters:    Size  Location     Type
  9424 ;;		None
  9425 ;; Auto vars:     Size  Location     Type
  9426 ;;		None
  9427 ;; Return value:  Size  Location     Type
  9428 ;;                  1    wreg      void 
  9429 ;; Registers used:
  9430 ;;		wreg, status,2
  9431 ;; Tracked objects:
  9432 ;;		On entry : 0/0
  9433 ;;		On exit  : 0/0
  9434 ;;		Unchanged: 0/0
  9435 ;; Data sizes:     COMRAM   BANK0   BANK1   BANK2   BANK3   BANK4   BANK5   BANK6   BANK7
  9436 ;;      Params:         0       0       0       0       0       0       0       0       0
  9437 ;;      Locals:         0       0       0       0       0       0       0       0       0
  9438 ;;      Temps:          0       0       0       0       0       0       0       0       0
  9439 ;;      Totals:         0       0       0       0       0       0       0       0       0
  9440 ;;Total ram usage:        0 bytes
  9441 ;; Hardware stack levels used:    1
  9442 ;; Hardware stack levels required when called:    1
  9443 ;; This function calls:
  9444 ;;		Nothing
  9445 ;; This function is called by:
  9446 ;;		_configuracionInicial
  9447 ;; This function uses a non-reentrant model
  9448 ;;
  9449                           psect	text26,class=CODE,space=0,reloc=2,group=0
  9450                           	line	314
  9451                           global __ptext26
  9452                           __ptext26:
  9453  002626                     psect	text26
  9454                           	file	"main.c"
  9455                           	line	314
  9456                           	global	__size_of_ADCConfig
  9457                           	__size_of_ADCConfig	equ	__end_of_ADCConfig-_ADCConfig
  9458  0000                     	
  9459                           _ADCConfig:
  9460  002626                     ;incstack = 0
  9461                           	opt	stack 28
  9462                           	line	316
  9463                           	
  9464                           l1806:
  9465  002626                     ;main.c: 316:     TRISAbits.RA0 = 1;
  9466                           	bsf	((c:3986)),c,0	;volatile
  9467  002626  8092               	line	317
  9468                           ;main.c: 317:     TRISAbits.RA1 = 1;
  9469                           	bsf	((c:3986)),c,1	;volatile
  9470  002628  8292               	line	318
  9471                           ;main.c: 318:     TRISAbits.RA2 = 1;
  9472                           	bsf	((c:3986)),c,2	;volatile
  9473  00262A  8492               	line	319
  9474                           ;main.c: 319:     TRISAbits.RA3 = 1;
  9475                           	bsf	((c:3986)),c,3	;volatile
  9476  00262C  8692               	line	320
  9477                           	
  9478                           l1808:
  9479  00262E                     ;main.c: 320:     ADCON0 = 0x01;
  9480                           	movlw	low(01h)
  9481  00262E  0E01               	movwf	((c:4034)),c	;volatile
  9482  002630  6EC2               	line	321
  9483                           ;main.c: 321:     ADCON1 = 0x0B;
  9484                           	movlw	low(0Bh)
  9485  002632  0E0B               	movwf	((c:4033)),c	;volatile
  9486  002634  6EC1               	line	322
  9487                           ;main.c: 322:     ADCON2 = 0xAB;
  9488                           	movlw	low(0ABh)
  9489  002636  0EAB               	movwf	((c:4032)),c	;volatile
  9490  002638  6EC0               	line	324
  9491                           	
  9492                           l279:
  9493  00263A                     	return	;funcret
  9494  00263A  0012               	opt stack 0
  9495                           GLOBAL	__end_of_ADCConfig
  9496                           	__end_of_ADCConfig:
  9497  00263C                     	signat	_ADCConfig,89
  9498                           	global	_TimerOverflow
  9499                           
  9500 ;; *************** function _TimerOverflow *****************
  9501 ;; Defined at:
  9502 ;;		line 439 in file "main.c"
  9503 ;; Parameters:    Size  Location     Type
  9504 ;;		None
  9505 ;; Auto vars:     Size  Location     Type
  9506 ;;		None
  9507 ;; Return value:  Size  Location     Type
  9508 ;;                  1    wreg      void 
  9509 ;; Registers used:
  9510 ;;		wreg, status,2, status,0
  9511 ;; Tracked objects:
  9512 ;;		On entry : 0/0
  9513 ;;		On exit  : 0/0
  9514 ;;		Unchanged: 0/0
  9515 ;; Data sizes:     COMRAM   BANK0   BANK1   BANK2   BANK3   BANK4   BANK5   BANK6   BANK7
  9516 ;;      Params:         0       0       0       0       0       0       0       0       0
  9517 ;;      Locals:         0       0       0       0       0       0       0       0       0
  9518 ;;      Temps:          0       0       0       0       0       0       0       0       0
  9519 ;;      Totals:         0       0       0       0       0       0       0       0       0
  9520 ;;Total ram usage:        0 bytes
  9521 ;; Hardware stack levels used:    1
  9522 ;; This function calls:
  9523 ;;		Nothing
  9524 ;; This function is called by:
  9525 ;;		Interrupt level 2
  9526 ;; This function uses a non-reentrant model
  9527 ;;
  9528                           psect	intcode,class=CODE,space=0,reloc=2
  9529                           global __pintcode
  9530                           __pintcode:
  9531  000008                     psect	intcode
  9532                           	file	"main.c"
  9533                           	line	439
  9534                           	global	__size_of_TimerOverflow
  9535                           	__size_of_TimerOverflow	equ	__end_of_TimerOverflow-_TimerOverflow
  9536  0000                     	
  9537                           _TimerOverflow:
  9538  000008                     ;incstack = 0
  9539                           	opt	stack 26
  9540                           	bsf int$flags,1,c ;set compiler interrupt flag (level 2)
  9541  000008  8252               	global	int_func
  9542                           	call	int_func,f	;refresh shadow registers
  9543  00000A  EDAC  F012         psect	intcode_body,class=CODE,space=0,reloc=2
  9544                           global __pintcode_body
  9545                           __pintcode_body:
  9546  002558                     int_func:
  9547  002558                     
  9548                           	pop	; remove dummy address from shadow register refresh
  9549  002558  0006               	line	441
  9550                           	
  9551                           i2l2208:
  9552  00255A                     ;main.c: 441:     if(INTCONbits.TMR0IF == 1)
  9553                           	btfss	((c:4082)),c,2	;volatile
  9554  00255A  A4F2               	goto	i2u209_41
  9555  00255C  EFB2  F012         	goto	i2u209_40
  9556  002560  EFB4  F012         i2u209_41:
  9557  002564                     	goto	i2l323
  9558  002564  EFC1  F012         i2u209_40:
  9559  002568                     	line	444
  9560                           	
  9561                           i2l2210:
  9562  002568                     ;main.c: 442:     {;main.c: 444:         millis++;
  9563                           	movlw	low(01h)
  9564  002568  0E01               	addwf	((c:_millis)),c
  9565  00256A  2648               	movlw	0
  9566  00256C  0E00               	addwfc	((c:_millis+1)),c
  9567  00256E  2249               	addwfc	((c:_millis+2)),c
  9568  002570  224A               	addwfc	((c:_millis+3)),c
  9569  002572  224B               	line	445
  9570                           	
  9571                           i2l2212:
  9572  002574                     ;main.c: 445:         INTCONbits.TMR0IF = 0;
  9573                           	bcf	((c:4082)),c,2	;volatile
  9574  002574  94F2               	line	446
  9575                           	
  9576                           i2l2214:
  9577  002576                     ;main.c: 446:         TMR0L = 0x00;
  9578                           	movlw	low(0)
  9579  002576  0E00               	movwf	((c:4054)),c	;volatile
  9580  002578  6ED6               	line	447
  9581                           	
  9582                           i2l2216:
  9583  00257A                     ;main.c: 447:         TMR0H = 0x00;
  9584                           	movlw	low(0)
  9585  00257A  0E00               	movwf	((c:4055)),c	;volatile
  9586  00257C  6ED7               	goto	i2l323
  9587  00257E  EFC1  F012         	line	449
  9588                           ;main.c: 449:     }
  9589                           	
  9590                           i2l322:
  9591  002582                     	line	450
  9592                           	
  9593                           i2l323:
  9594  002582                     	bcf int$flags,1,c ;clear compiler interrupt flag (level 2)
  9595  002582  9252               	retfie f
  9596  002584  0011               	opt stack 0
  9597                           GLOBAL	__end_of_TimerOverflow
  9598                           	__end_of_TimerOverflow:
  9599  002586                     	signat	_TimerOverflow,89
  9600                           psect	smallconst
  9601                           	db 0	; dummy byte at the end
  9602  00080B  00                 	global	__smallconst
  9603                           	global	__mediumconst
  9604                           	GLOBAL	__activetblptr
  9605                           __activetblptr	EQU	2
  9606  0000                     	psect	intsave_regs,class=BIGRAM,space=1,noexec
  9607                           	PSECT	rparam,class=COMRAM,space=1,noexec
  9608                           	GLOBAL	__Lrparam
  9609                           	FNCONF	rparam,??,?
  9610                           	GLOBAL	___rparam_used
  9611                           	___rparam_used EQU 1
  9612  0000                     	GLOBAL	___param_bank
  9613                           	___param_bank EQU 0
  9614  0000                     GLOBAL	__Lparam, __Hparam
  9615                           GLOBAL	__Lrparam, __Hrparam
  9616                           __Lparam	EQU	__Lrparam
  9617  0000                     __Hparam	EQU	__Hrparam
  9618  0000                            psect   temp,common,ovrld,class=COMRAM,space=1
  9619                           	global	btemp
  9620                           btemp:
  9621  000052                     	ds	1
  9622  000052                     	global	int$flags
  9623                           	int$flags	set btemp
  9624  0000                     	global	wtemp8
  9625                           	wtemp8 set btemp+1
  9626  0000                     	global	ttemp5
  9627                           	ttemp5 set btemp+1
  9628  0000                     	global	ttemp6
  9629                           	ttemp6 set btemp+4
  9630  0000                     	global	ttemp7
  9631                           	ttemp7 set btemp+8
  9632  0000                     	end


Data Sizes:
    Strings     0
    Constant    10
    Data        2
    BSS         10
    Persistent  2
    Stack       0

Auto Spaces:
    Space          Size  Autos    Used
    COMRAM           94     67      81
    BANK0           160      0       0
    BANK1           256      0       0
    BANK2           256      0       0
    BANK3           256      0       0
    BANK4           256      0       0
    BANK5           256      0       0
    BANK6           256      0       0
    BANK7           256      0       0

Pointer List with Targets:

    None.

Critical Paths under _main in COMRAM

    _WeaponInit->_digitalWrite
    _WeaponInit->_pinMode
    _RobotInit->_pinMode
    _ComunicationInit->_USART_Init
    _USART_Init->___fladd
    ___fldiv->___xxtofl
    ___fladd->___fldiv
    _loop->_adelante
    _loop->_atras
    _loop->_delay
    _loop->_derecha
    _loop->_izquierda
    _stop->_analogWrite
    _izquierda->_analogWrite
    _derecha->_analogWrite
    _atras->_analogWrite
    _adelante->_analogWrite
    _configuracionInicial->_CCPConfig

Critical Paths under _TimerOverflow in COMRAM

    None.

Critical Paths under _main in BANK0

    None.

Critical Paths under _TimerOverflow in BANK0

    None.

Critical Paths under _main in BANK1

    None.

Critical Paths under _TimerOverflow in BANK1

    None.

Critical Paths under _main in BANK2

    None.

Critical Paths under _TimerOverflow in BANK2

    None.

Critical Paths under _main in BANK3

    None.

Critical Paths under _TimerOverflow in BANK3

    None.

Critical Paths under _main in BANK4

    None.

Critical Paths under _TimerOverflow in BANK4

    None.

Critical Paths under _main in BANK5

    None.

Critical Paths under _TimerOverflow in BANK5

    None.

Critical Paths under _main in BANK6

    None.

Critical Paths under _TimerOverflow in BANK6

    None.

Critical Paths under _main in BANK7

    None.

Critical Paths under _TimerOverflow in BANK7

    None.

Call Graph Tables:

 ---------------------------------------------------------------------------------
 (Depth) Function   	        Calls       Base Space   Used Autos Params    Refs
 ---------------------------------------------------------------------------------
 (0) _main                                                 0     0      0   32121
               _configuracionInicial
                               _loop
                              _setup
 ---------------------------------------------------------------------------------
 (1) _setup                                                0     0      0   13699
                   _ComunicationInit
                          _RobotInit
                         _WeaponInit
                            _pinMode
 ---------------------------------------------------------------------------------
 (2) _WeaponInit                                           0     0      0    3488
                       _digitalWrite
                            _pinMode
 ---------------------------------------------------------------------------------
 (2) _RobotInit                                            0     0      0     984
                            _pinMode
 ---------------------------------------------------------------------------------
 (2) _pinMode                                              4     3      1     984
                                              0 COMRAM     4     3      1
 ---------------------------------------------------------------------------------
 (2) _ComunicationInit                                     0     0      0    8243
                         _USART_Init
                              _delay
 ---------------------------------------------------------------------------------
 (3) _USART_Init                                           8     4      4    6207
                                             59 COMRAM     8     4      4
                            ___fladd
                            ___fldiv
                            ___fltol
                           ___xxtofl
 ---------------------------------------------------------------------------------
 (4) ___xxtofl                                            14    10      4     626
                                              0 COMRAM    14    10      4
 ---------------------------------------------------------------------------------
 (4) ___fltol                                             10     6      4     305
                                              0 COMRAM    10     6      4
 ---------------------------------------------------------------------------------
 (4) ___fldiv                                             25    17      8    1703
                                             14 COMRAM    25    17      8
                           ___xxtofl (ARG)
 ---------------------------------------------------------------------------------
 (4) ___fladd                                             20    12      8    3452
                                             39 COMRAM    20    12      8
                            ___fldiv (ARG)
                           ___xxtofl (ARG)
 ---------------------------------------------------------------------------------
 (1) _loop                                                 2     2      0   18233
                                              7 COMRAM     2     2      0
                             _PBRead
                           _adelante
                              _atras
                              _delay
                            _derecha
                          _izquierda
                               _stop
 ---------------------------------------------------------------------------------
 (2) _stop                                                 0     0      0    3158
                        _analogWrite
                       _digitalWrite
 ---------------------------------------------------------------------------------
 (2) _izquierda                                            2     0      2    3256
                                              5 COMRAM     2     0      2
                        _analogWrite
                       _digitalWrite
 ---------------------------------------------------------------------------------
 (2) _derecha                                              2     0      2    3256
                                              5 COMRAM     2     0      2
                        _analogWrite
                       _digitalWrite
 ---------------------------------------------------------------------------------
 (3) _delay                                                7     5      2    2036
                                              0 COMRAM     7     5      2
 ---------------------------------------------------------------------------------
 (2) _atras                                                2     0      2    3256
                                              5 COMRAM     2     0      2
                        _analogWrite
                       _digitalWrite
 ---------------------------------------------------------------------------------
 (2) _adelante                                             2     0      2    3256
                                              5 COMRAM     2     0      2
                        _analogWrite
                       _digitalWrite
 ---------------------------------------------------------------------------------
 (3) _digitalWrite                                         4     3      1    2504
                                              0 COMRAM     4     3      1
 ---------------------------------------------------------------------------------
 (3) _analogWrite                                          5     3      2     654
                                              0 COMRAM     5     3      2
 ---------------------------------------------------------------------------------
 (2) _PBRead                                               3     3      0      15
                                              0 COMRAM     3     3      0
 ---------------------------------------------------------------------------------
 (1) _configuracionInicial                                 0     0      0     189
                          _ADCConfig
                          _CCPConfig
                 _PORTSConfiguration
                         _TMR0Config
                         _TMR1Config
 ---------------------------------------------------------------------------------
 (2) _TMR1Config                                           0     0      0       0
 ---------------------------------------------------------------------------------
 (2) _TMR0Config                                           3     3      0      15
                                              0 COMRAM     3     3      0
 ---------------------------------------------------------------------------------
 (2) _PORTSConfiguration                                   0     0      0       0
 ---------------------------------------------------------------------------------
 (2) _CCPConfig                                            8     2      6     174
                                              0 COMRAM     8     2      6
 ---------------------------------------------------------------------------------
 (2) _ADCConfig                                            0     0      0       0
 ---------------------------------------------------------------------------------
 Estimated maximum stack depth 4
 ---------------------------------------------------------------------------------
 (Depth) Function   	        Calls       Base Space   Used Autos Params    Refs
 ---------------------------------------------------------------------------------
 (5) _TimerOverflow                                        0     0      0       0
 ---------------------------------------------------------------------------------
 Estimated maximum stack depth 5
 ---------------------------------------------------------------------------------

 Call Graph Graphs:

 _main (ROOT)
   _configuracionInicial
     _ADCConfig
     _CCPConfig
     _PORTSConfiguration
     _TMR0Config
     _TMR1Config
   _loop
     _PBRead
     _adelante
       _analogWrite
       _digitalWrite
     _atras
       _analogWrite
       _digitalWrite
     _delay
     _derecha
       _analogWrite
       _digitalWrite
     _izquierda
       _analogWrite
       _digitalWrite
     _stop
       _analogWrite
       _digitalWrite
   _setup
     _ComunicationInit
       _USART_Init
         ___fladd
           ___fldiv (ARG)
             ___xxtofl (ARG)
           ___xxtofl (ARG)
         ___fldiv
           ___xxtofl (ARG)
         ___fltol
         ___xxtofl
       _delay
     _RobotInit
       _pinMode
     _WeaponInit
       _digitalWrite
       _pinMode
     _pinMode

 _TimerOverflow (ROOT)

 Address spaces:
Name               Size   Autos  Total    Cost      Usage
BIGRAM             7FF      0       0      21        0.0%
EEDATA             100      0       0       0        0.0%
BITBANK7           100      0       0      18        0.0%
BANK7              100      0       0      19        0.0%
BITBANK6           100      0       0      16        0.0%
BANK6              100      0       0      17        0.0%
BITBANK5           100      0       0      14        0.0%
BANK5              100      0       0      15        0.0%
BITBANK4           100      0       0      12        0.0%
BANK4              100      0       0      13        0.0%
BITBANK3           100      0       0      10        0.0%
BANK3              100      0       0      11        0.0%
BITBANK2           100      0       0       8        0.0%
BANK2              100      0       0       9        0.0%
BITBANK1           100      0       0       6        0.0%
BANK1              100      0       0       7        0.0%
BITBANK0            A0      0       0       4        0.0%
BANK0               A0      0       0       5        0.0%
BITCOMRAM           5E      0       0       0        0.0%
COMRAM              5E     43      51       1       86.2%
BITSFR               0      0       0     200        0.0%
SFR                  0      0       0     200        0.0%
STACK                0      0       0       2        0.0%
NULL                 0      0       0       0        0.0%
ABS                  0      0      51      20        0.0%
DATA                 0      0      51       3        0.0%
CODE                 0      0       0       0        0.0%


Microchip Technology PIC18 Macro Assembler V2.00 build -1524193055 
Symbol Table                                                                                   Wed Mar 13 10:29:38 2019

           __size_of_ADCConfig 0016                   ___fldiv@aexp 0027                   ___fldiv@bexp 0026  
                 ___fldiv@sign 001F                    __CFG_BORV$3 000000                   __CFG_CP0$OFF 000000  
                 __CFG_CP1$OFF 000000                   __CFG_CP2$OFF 000000                   __CFG_CP3$OFF 000000  
                          l202 1C3E                            l210 1B4C                            l211 1B5A  
                          l203 1AF8                            l300 22FC                            l204 1D10  
                          l220 1BD8                            l212 1B68                            l301 234C  
                          l221 1BE6                            l213 1B76                            l205 1B06  
                          l302 2304                            l310 23A4                            l222 1BF4  
                          l214 1B84                            l206 1B14                            l303 230C  
                          l311 2380                            l223 1C02                            l215 1B92  
                          l207 1B22                            l304 2378                            l312 23CE  
                          l224 1C10                            l216 1BA0                            l208 1B30  
                          l313 239C                            l225 1C1E                            l217 1BAE  
                          l209 1B3E                            l153 2600                            l314 23CE  
                          l226 1C2C                            l218 1BBC                            l162 215C  
                          l154 2608                            l219 1BCA                            l227 1D10  
                          l163 21D4                            l155 260C                            l164 2188  
                          l500 0C44                            l180 1910                            l156 260C  
                          l165 21AE                            l501 0C40                            l181 191E  
                          l326 2654                            l350 2270                            l166 21D4  
                          l510 0D3C                            l502 0CE8                            l174 1A1E  
                          l190 199C                            l182 192C                            l159 2556  
                          l351 22F4                            l511 0D38                            l503 0C8C  
                          l191 19AA                            l183 193A                            l175 18D8  
                          l352 22F4                            l520 0E28                            l512 0DD0  
                          l504 0C88                            l176 1AF0                            l192 19B8  
                          l184 1948                            l353 228A                            l521 0ED0  
                          l513 0D84                            l505 0CE4                            l193 19C6  
                          l185 1956                            l177 18E6                            l346 264E  
                          l354 22A4                            l290 2102                            l522 0E74  
                          l514 0D80                            l506 0CD4                            l194 19D4  
                          l186 1964                            l178 18F4                            l291 2046  
                          l531 24F4                            l523 0E70                            l515 0DD0  
                          l507 0CD0                            l195 19E2                            l187 1972  
                          l179 1902                            l292 209E                            l540 2484  
                          l524 0ECC                            l516 0DCC                            l508 0CE0  
                          l460 0864                            l196 19F0                            l188 1980  
                          l349 22C2                            l293 212C                            l525 0EBC  
                          l517 0DC8                            l509 0CEC                            l461 0860  
                          l197 19FE                            l189 198E                            l294 20A2  
                          l534 24BC                            l526 0EB8                            l518 0DDC  
                          l470 090C                            l462 0908                            l198 1A0C  
                          l279 263A                            l295 20FA                            l527 0EC8  
                          l519 0E2C                            l471 0960                            l463 08AC  
                          l199 1AF0                            l543 25AE                            l455 25F0  
                          l296 212C                            l480 0A54                            l472 095C  
                          l464 08A8                            l528 0F2C                            l537 244C  
                          l481 0A50                            l473 09F4                            l465 0904  
                          l546 2414                            l458 0ED8                            l490 0B50  
                          l482 0AF8                            l474 09A8                            l466 08F4  
                          l562 25D0                            l299 2318                            l491 0B4C  
                          l483 0A9C                            l475 09A4                            l467 08F0  
                          l459 0810                            l492 0BF4                            l484 0A98  
                          l476 09F4                            l468 0900                            l469 0F2C  
                          l493 0B98                            l485 0AF4                            l477 09F0  
                          l549 2624                            l494 0B94                            l486 0AE4  
                          l478 09EC                            l495 0BF0                            l487 0AE0  
                          l479 0A00                            l496 0BE0                            l488 0AF0  
                          l920 1FDA                            l497 0BDC                            l489 0AFC  
                          l921 1FEE                            l913 1F1C                            l498 0BEC  
                          l922 1FDE                            l914 203E                            l499 0BF8  
                          l923 2002                            l915 1FB2                            l924 202A  
                          l916 1F96                            l588 2268                            l917 1F9A  
                          l918 1FAE                            l919 2006                   __CFG_CPB$OFF 000000  
                          _PR2 000FCB                   __CFG_CPD$OFF 000000                   __CFG_BOR$OFF 000000  
           __size_of_CCPConfig 0084                            _vel 0050                            wreg 000FE8  
                 __CFG_LVP$OFF 000000                   ___fltol@exp1 000A                   __CFG_WDT$OFF 000000  
                         l1200 1618                           l1201 16F0                           l1210 173E  
                         l1202 1678                           l1211 1764                           l1203 16BA  
                         l1140 100C                           l1220 18AC                           l1212 17C6  
                         l1204 16AC                           l1141 102A                           l1133 0F4E  
                         l1221 18B2                           l1213 17AC                           l1205 16EE  
                         l1150 113C                           l1142 1092                           l1134 0F8C  
                         l1214 17C6                           l1206 1704                           l1151 115E  
                         l1143 1052                           l1135 0F82                           l1215 17C2  
                         l1207 1720                           l3000 087A                           l1160 129E  
                         l1152 11FC                           l1144 1102                           l1136 0FA0  
                         l1216 1826                           l1208 1752                           l1161 129A  
                         l1153 1194                           l1145 115E                           l1137 0FBE  
                         l1217 1822                           l1209 1724                           l3010 08F4  
                         l3002 089C                           l1170 1358                           l1162 12AE  
                         l1154 14B0                           l1146 1148                           l1138 0FD8  
                         l1218 185A                           l1171 13A6                           l1163 12EC  
                         l1155 11F8                           l1147 1106                           l1139 1016  
                         l1219 1894                           l3100 0D52                           l3020 0976  
                         l3012 090C                           l3004 08AC                           l1180 143C  
                         l1172 138C                           l1164 1346                           l1156 11CC  
                         l1148 1120                           l1181 1464                           l1173 13A6  
                         l1165 12F0                           l1157 11D4                           l1149 1128  
                         l3110 0DDC                           l3102 0D74                           l3030 0A00  
                         l3022 0998                           l3014 092E                           l3006 08C2  
                         l1182 147C                           l1174 13A2                           l1166 130E  
                         l1158 11E8                           l1190 14D2                           l1183 1482  
                         l1175 1418                           l1159 135C                           l1167 1324  
                         l1191 1510                           l3120 0E42                           l3112 0DE4  
                         l3104 0D84                           l3040 0A8C                           l3032 0A22  
                         l3024 09A8                           l3016 0950                           l3008 08E4  
                         l1184 149C                           l1176 1414                           l1168 132C  
                         l1192 1506                           l1280 1DF8                           l1272 1D68  
                         l1177 1410                           l1169 1342                           l1193 1524  
                         l1281 1E42                           l1273 1D7C                           l3130 0EBC  
                         l3122 0E64                           l3114 0DFA                           l3106 0D9A  
                         l3050 0AFC                           l3042 0A9C                           l3034 0A44  
                         l3026 09BE                           l3018 0960                           l1178 1468  
                         l1194 1544                           l1282 1E56                           l1274 1DAA  
                         l1195 1582                           l1283 1E46                           l1275 1EEC  
                         l3132 0ED4                           l3124 0E74                           l3116 0E1C  
                         l3108 0DBC                           l3060 0B88                           l3052 0B1E  
                         l3044 0AB2                           l3036 0A54                           l3028 09E0  
                         l2500 1092                           l1196 1578                           l1276 1DC2  
                         l1197 1596                           l1285 1E78                           l1277 1DB2  
                         l3126 0E8A                           l3118 0E2C                           l3070 0BF8  
                         l3062 0B98                           l3054 0B40                           l3046 0AD4  
                         l3038 0A6A                           l3134 0ED8                           l2510 1114  
                         l2502 1096                           l2430 0F5E                           l2422 0F2E  
                         l1198 15E0                           l1286 1E78                           l1278 1DF4  
                         l1199 18D0                           l1287 1E8C                           l1279 1E10  
                         l3128 0EAC                           l3080 0C7C                           l3072 0C12  
                         l3064 0BAE                           l3056 0B50                           l3048 0AE4  
                         l2600 1418                           l2520 1146                           l2512 1120  
                         l2504 10CE                           l2440 0FA0                           l2432 0F6E  
                         l2424 0F3A                           l1288 1ED8                           l3144 25F2  
                         l3090 0CEC                           l3082 0C8C                           l3074 0C34  
                         l3066 0BD0                           l3058 0B66                           l2610 1476  
                         l2602 1428                           l2530 11A4                           l2522 116C  
                         l2514 1128                           l2506 10EA                           l2450 0FD2  
                         l2442 0FA6                           l2434 0F82                           l2426 0F48  
                         l3250 1A32                           l3146 25F8                           l3260 23B8  
                         l3252 0EEE                           l3092 0CF4                           l3084 0CA2  
                         l3076 0C44                           l3068 0BE0                           l2620 149C  
                         l2612 147C                           l2604 143C                           l2540 11E2  
                         l2532 11B2                           l2524 117C                           l2516 1136  
                         l2508 10FA                           l2460 100E                           l2452 0FD8  
                         l2444 0FB8                           l2436 0F84                           l2428 0F4E  
                         l2700 16BA                           l1806 2626                           l3262 232E  
                         l3254 1C52                           l3094 0D0A                           l3086 0CC4  
                         l3078 0C5A                           l2622 14B0                           l2614 1482  
                         l2606 145C                           l2550 1278                           l2542 11E8  
                         l2534 11C0                           l2526 1190                           l2518 113C  
                         l2470 1052                           l2454 0FE8                           l2462 1016  
                         l2446 0FBE                           l2438 0F8C                           l2710 171A  
                         l2702 16D8                           l2630 14D2                           l1808 262E  
                         l3256 2116                           l3096 0D2C                           l3088 0CD4  
                         l2616 1488                           l2608 1468                           l2560 12D4  
                         l2552 127A                           l2544 11F2                           l2536 11CC  
                         l2528 1194                           l2480 1066                           l2472 1056  
                         l2464 102A                           l2456 0FF8                           l2448 0FC4  
                         l2720 1764                           l2712 1724                           l2704 16DA  
                         l2632 14E2                           l2640 1510                           l2624 14B2  
                         l2800 2016                           l3258 22D6                           l3098 0D3C  
                         l2618 1496                           l2570 130E                           l2562 12E8  
                         l2554 128A                           l2538 11D4                           l2546 11FC  
                         l2490 107A                           l2482 106A                           l2474 105A  
                         l2466 103C                           l2458 100C                           l2730 17D6  
                         l2722 1768                           l2714 172E                           l2706 16EE  
                         l2650 1544                           l2642 1524                           l2634 14F2  
                         l2626 14BE                           l2802 202A                           l2810 1D32  
                         l1860 2648                           l2900 20B4                           l2572 131C  
                         l2564 12F0                           l2580 1346                           l2548 1222  
                         l2556 129E                           l2492 107E                           l2484 106E  
                         l2476 105E                           l2468 104A                           l2740 1840  
                         l2732 17E2                           l2724 1776                           l2716 173C  
                         l2708 1704                           l2652 1554                           l2660 1582  
                         l2644 152A                           l2636 1506                           l2628 14CC  
                         l2804 203E                           l2820 1DB2                           l2812 1D7C  
                         l1862 264A                           l1854 263C                           l1870 2384  
                         l2902 20FE                           l2590 139A                           l2574 1324  
                         l2566 12FA                           l2558 12C4                           l2582 135C  
                         l2494 1082                           l2486 1072                           l2478 1062  
                         l2750 18A6                           l2742 185A                           l2734 17F0  
                         l2726 17A4                           l2718 1752                           l2670 15C8  
                         l2662 1596                           l2654 1564                           l2646 1530  
                         l2638 1508                           l2830 1E46                           l2822 1DC2  
                         l2814 1D92                           l2806 1D14                           l2910 21D6  
                         l2920 2314                           l1864 264C                           l1856 2640  
                         l1872 2386                           l1880 23A4                           l2904 2102  
                         l2592 13B6                           l2584 1360                           l2576 132C  
                         l2568 1308                           l2496 1086                           l2488 1076  
                         l2760 18D0                           l2752 18AC                           l2744 1874  
                         l2736 181A                           l2728 17BA                           l2680 1614  
                         l2672 15DC                           l2664 15AC                           l2656 1578  
                         l2648 153E                           l2840 1E90                           l2832 1E56  
                         l2824 1DF8                           l2816 1DA6                           l2808 1D24  
                         l2912 21DA                           l2930 2354                           l2922 2318  
                         l1858 2646                           l1874 2394                           l1866 237C  
                         l1890 2286                           l2594 13C2                           l2586 136E  
                         l2578 133C                           l2498 108A                           l2754 18B2  
                         l2746 1894                           l2738 1826                           l2690 1670  
                         l2682 1618                           l2666 15BC                           l2674 15E0  
                         l2658 157A                           l2770 1F46                           l2762 1EEE  
                         l2850 1EEC                           l2842 1EB4                           l2834 1E64  
                         l2826 1DFA                           l2818 1DAA                           l2914 2260  
                         l2940 2366                           l2932 2356                           l2924 234C  
                         l1876 2396                           l1868 2380                           l1892 22A0  
                         l2860 2164                           l2852 212E                           l2596 13D0  
                         l2588 1384                           l2756 18B8                           l2748 1898  
                         l2692 1678                           l2684 1640                           l2676 15F0  
                         l2668 15C4                           l2780 1F7E                           l2772 1F48  
                         l2764 1F04                           l2844 1EC4                           l2836 1E86  
                         l2828 1E06                           l2916 2264                           l2950 2370  
                         l2942 2368                           l2934 2360                           l2926 2350  
                         l2918 22F6                           l1878 23A0                           l1886 2650  
                         l1894 22BA                           l2870 21B2                           l2862 2184  
                         l2854 2136                           l2598 140A                           l2758 18BC  
                         l2694 1688                           l2686 1650                           l2678 1600  
                         l2790 1FC2                           l2782 1F92                           l2774 1F58  
                         l2766 1F18                           l2846 1ED2                           l2838 1E8C  
                         l2952 2372                           l2944 236A                           l2936 2362  
                         l2928 2352                           l1896 22BE                           l1888 226C  
                         l2864 218A                           l2856 2158                           l2696 169C  
                         l2688 1660                           l2792 1FD6                           l2784 1F9A  
                         l2776 1F5C                           l2768 1F1C                           l2848 1ED8  
                         l2872 18D4                           l2954 2374                           l2946 236C  
                         l2938 2364                           l1898 22C2                           l2882 1AF4  
                         l2970 2486                           l2866 218E                           l2858 215C  
                         l2698 16AA                           l2794 1FDE                           l2786 1FA4  
                         l2778 1F6A                           l2874 1A1A                           l2962 2586  
                         l2956 2376                           l2948 236E                           l2980 252C  
                         l2892 2042                           l2884 1C3A                           l2868 21AE  
                         l2972 2416                           l2796 1FEE                           l2788 1FB2  
                         l2876 1A1E                           l2964 2610                           l2982 2548  
                         l2894 2046                           l2886 1C3E                           l2974 244E  
                         l2990 080C                           l2798 2006                           l2966 25B0  
                         l2984 2552                           l2896 2058                           l2968 24BE  
                         l2976 23D0                           l2992 0810                           l2978 2528  
                         l2898 20A2                           l2994 0832                           l2986 25D2  
                         l2996 0854                           l2988 25E8                           l2998 0864  
                         _BRGH 007D62                           _CREN 007D5C                           _FERR 007D5A  
                         u1320 2280                           u3000 1F3C                           u1321 227A  
                         u1330 229A                           u3010 1F6A                           u1331 2294  
                         u3011 1F66                           u1340 22B4                           u3020 1F7E  
                         u3100 1E3E                           u1341 22AE                           u3021 1F7A  
                         u3005 1F32                           u3101 1E3A                           u1326 2282  
                         u3030 1FC2                           u3110 1E64                           u3031 1FBE  
                         u3111 1E60                           u1336 229C                           u4000 0D52  
                         u2400 0FB8                           u3040 1FFE                           u3120 1E74  
                         u4001 0D4E                           u2401 0FB4                           u3041 1FFA  
                         u3121 1E70                           u1346 22B6                           u4010 0D74  
                         u2410 0FD2                           u3050 2016                           u3130 1E86  
                         u4011 0D70                           u2411 0FCE                           u3051 2012  
                         u3131 1E82                           u4020 0D9A                           u2500 1136  
                         u2420 0FE8                           u3140 1EC4                           u3060 1D24  
                         u4021 0D96                           u2501 1132                           u2421 0FE4  
                         u3141 1EC0                           u3061 1D20                           u3205 18E0  
                         u4030 0DBC                           u2510 115A                           u2430 0FF8  
                         u3150 1ED2                           u3070 1D32                           u3206 18E2  
                         u4031 0DB8                           u2511 1156                           u2431 0FF4  
                         u3151 1ECE                           u3071 1D2E                           u3215 18EE  
                         u3160 2154                           u4040 0DFA                           u2600 12D4  
                         u2520 116C                           u2440 103C                           u3080 1D92  
                         u3216 18F0                           u3161 2150                           u4041 0DF6  
                         u2601 12D0                           u2521 1168                           u2441 1038  
                         u3081 1D8E                           u3305 196C                           u3225 18FC  
                         u3170 2180                           u4050 0E1C                           u2610 1308  
                         u2530 117C                           u2450 104A                           u2370 0F48  
                         u3090 1DF0                           u3306 196E                           u3226 18FE  
                         u3171 217C                           u4051 0E18                           u2611 1304  
                         u2531 1178                           u2451 1046                           u2371 0F44  
                         u3091 1DEC                           u3315 197A                           u3235 190A  
                         u3180 21AA                           u4060 0E42                           u2700 140A  
                         u2620 131C                           u2540 11B2                           u2460 10CE  
                         u2380 0F5E                           u3316 197C                           u3236 190C  
                         u3181 21A6                           u4061 0E3E                           u2701 1406  
                         u2621 1318                           u2541 11AE                           u2461 10CA  
                         u2381 0F5A                           u3405 19F8                           u3325 1988  
                         u3245 1918                           u3190 21D0                           u4070 0E64  
                         u2710 1428                           u2630 133C                           u2550 11C0  
                         u2470 10E6                           u2390 0F6E                           u3406 19FA  
                         u3326 198A                           u3246 191A                           u3191 21CC  
                         u4071 0E60                           u2711 1424                           u2631 1338  
                         u2551 11BC                           u2471 10E0                           u2391 0F6A  
                         u3415 1A06                           u3335 1996                           u3255 1926  
                         u4080 0E8A                           u2720 1438                           u2640 1354  
                         u2560 11E2                           u2480 10E8                           u2800 1554  
                         u3416 1A08                           u3336 1998                           u3256 1928  
                         u3505 1B62                           u4081 0E86                           u2721 1434  
                         u2641 1350                           u2561 11DE                           u2801 1550  
                         u3425 1A14                           u3345 19A4                           u3265 1934  
                         u3506 1B64                           u4090 0EAC                           u2730 145C  
                         u2650 136E                           u2570 1222                           u2490 1114  
                         u2810 1564                           u3426 1A16                           u3346 19A6  
                         u3266 1936                           u3515 1B70                           u3435 1B00  
                         u4091 0EA8                           u2731 1458                           u2651 136A  
                         u2571 121E                           u2491 1110                           u2811 1560  
                         u3355 19B2                           u3275 1942                           u3516 1B72  
                         u3436 1B02                           u3700 087A                           u2740 1476  
                         u2660 1384                           u2580 128A                           u2900 1760  
                         u2820 15AC                           u3356 19B4                           u3276 1944  
                         u3605 1BEE                           u3525 1B7E                           u3445 1B0E  
                         u3701 0876                           u2741 1472                           u2661 1380  
                         u2581 1286                           u2901 175C                           u2821 15A8  
                         u3365 19C0                           u3285 1950                           u3606 1BF0  
                         u3526 1B80                           u3446 1B10                           u3710 089C  
                         u2750 1496                           u2670 139A                           u2590 12C4  
                         u2910 1776                           u2830 15F0                           u3366 19C2  
                         u3286 1952                           u3615 1BFC                           u3535 1B8C  
                         u3455 1B1C                           u3711 0898                           u2751 1492  
                         u2671 1396                           u2591 12C0                           u2911 1772  
                         u2831 15EC                           u3375 19CE                           u3295 195E  
                         u3616 1BFE                           u3536 1B8E                           u3456 1B1E  
                         u3800 0A22                           u3720 08C2                           u2680 13B6  
                         u2920 17A4                           u2840 1688                           u2760 14CC  
                         u3376 19D0                           u3296 1960                           u3625 1C0A  
                         u3545 1B9A                           u3465 1B2A                           u3801 0A1E  
                         u3721 08BE                           u2681 13B2                           u2921 17A0  
                         u2841 1684                           u2761 14C8                           u3385 19DC  
                         u3626 1C0C                           u3546 1B9C                           u3466 1B2C  
                         u3810 0A44                           u3730 08E4                           u2690 13D0  
                         u2930 17BA                           u2850 16AA                           u2770 14E2  
                         u3386 19DE                           u3635 1C18                           u3555 1BA8  
                         u3475 1B38                           u3811 0A40                           u3731 08E0  
                         u2691 13CC                           u2931 17B6                           u2851 16A6  
                         u2771 14DE                           u3395 19EA                           u3660 2058  
                         u3636 1C1A                           u3556 1BAA                           u3476 1B3A  
                         u3900 0BAE                           u3820 0A6A                           u3740 092E  
                         u2940 17D6                           u2860 16D8                           u2780 14F2  
                         u3396 19EC                           u3661 2054                           u3645 1C26  
                         u3565 1BB6                           u3485 1B46                           u3901 0BAA  
                         u3821 0A66                           u3741 092A                           u2941 17D2  
                         u2861 16D4                           u2781 14EE                           u3670 20B4  
                         u3646 1C28                           u3566 1BB8                           u3486 1B48  
                         u3910 0BD0                           u3830 0A8C                           u3750 0950  
                         u2950 17F0                           u2870 1700                           u2790 153E  
                         u3671 20B0                           u3655 1C34                           u3575 1BC4  
                         u3495 1B54                           u3911 0BCC                           u3831 0A88  
                         u3751 094C                           u2951 17EC                           u2871 16FC  
                         u2791 153A                           u3656 1C36                           u3576 1BC6  
                         u3496 1B56                           u3920 0C12                           u3840 0AB2  
                         u3760 0976                           u3680 0832                           u2960 1840  
                         u2880 171A                           u3585 1BD2                           u3921 0C0E  
                         u3841 0AAE                           u3761 0972                           u3681 082E  
                         u2961 183C                           u2881 1716                           u3586 1BD4  
                         u3930 0C34                           u3850 0AD4                           u3770 0998  
                         u3690 0854                           u2970 1874                           u2890 173C  
                         u3595 1BE0                           u3931 0C30                           u3851 0AD0  
                         u3771 0994                           u3691 0850                           u2971 1870  
                         u2891 1738                           u3596 1BE2                           u3940 0C5A  
                         u3860 0B1E                           u3780 09BE                           u2980 18A6  
                         _RCIF 007CF5                           u3941 0C56                           u3861 0B1A  
                         u3781 09BA                           u2981 18A2                           u3950 0C7C  
                         u3870 0B40                           u3790 09E0                           u2990 1F04  
                         u3951 0C78                           u3871 0B3C                           u3791 09DC  
                         u2991 1F00                           u3960 0CA2                           u3880 0B66  
                         u3961 0C9E                           u3881 0B62                           u3970 0CC4  
                         u3890 0B88                           u3971 0CC0                           u3891 0B84  
                         u3980 0D0A                           u3981 0D06                           u3990 0D2C  
                         u3991 0D28                           _OERR 007D59                           _TMR0 000FD6  
                         _SPEN 007D5F                           _TRMT 007D61                           _TXEN 007D65  
                         _TXIF 007CF4                           _SYNC 007D64                           _data 0801  
                         _main 25F2                           _freq 0044                           _loop 080C  
                         btemp 0052                           _stop 23D0                           start 000E  
                __CFG_IESO$OFF 000000                ___fldiv@new_exp 0020                  __CFG_MCLRE$ON 000000  
                 ___param_bank 000000                  __CFG_PLLDIV$5 000000                 __CFG_CCP2MX$ON 000000  
                        _DC1B0 007DEC                          _DC1B1 007DED                  ___fltol@sign1 0009  
              __end_of___fladd 14B2                          ?_main 0001                __end_of___fldiv 18D2  
                        ?_loop 0001                __end_of___fltol 2040                          ?_stop 0001  
                        _T0CON 000FD5                          _T1CON 000FCD                          i2l322 2582  
                        i2l323 2582                          _RCIDL 007DC6                          _RCREG 000FAE  
                        _RCSTA 000FAB                          _TMR0H 000FD7                          _TMR1H 000FCF  
                        _TMR0L 000FD6                          _TMR1L 000FCE                          _SPBRG 000FAF  
                __CFG_USBDIV$1 000000                          _TRISA 000F92                          _TRISB 000F93  
                        _TRISC 000F94                          _TRISD 000F95                          _TXREG 000FAD  
                  ?_TMR0Config 0001                          _TXSTA 000FAC                  __CFG_PWRT$OFF 000000  
                  ?_TMR1Config 0001                  __CFG_WRT0$OFF 000000                  __CFG_WRT1$OFF 000000  
              __end_of_derecha 2486                  __CFG_WRT2$OFF 000000                  __CFG_WRT3$OFF 000000  
               __CFG_EBTR0$OFF 000000                 __CFG_FCMEN$OFF 000000                 __CFG_EBTR1$OFF 000000  
               __CFG_EBTR2$OFF 000000                 __CFG_EBTR3$OFF 000000                  __CFG_WRTB$OFF 000000  
                __CFG_WRTC$OFF 000000                  __CFG_WRTD$OFF 000000                 __CFG_EBTRB$OFF 000000  
                        _delay 212E                          _atras 2486              __end_of_ADCConfig 263C  
                        _pines 0806                __end_of_pinMode 1AF2                          _setup 25D2  
                        tablat 000FF5                          ttemp5 0053                          ttemp6 0056  
                        ttemp7 005A                          status 000FD8                          wtemp8 0053  
               __CFG_ICPRT$OFF 000000              __end_of_CCPConfig 237A           __size_of_analogWrite 00EE  
                  ?_USART_Init 003C           __end_of_digitalWrite 1D12                __initialization 24F6  
                 __end_of_data 0806                   __end_of_main 2610                   __end_of_loop 0F2E  
                 __end_of_stop 2416                         ??_main 0044                         ??_loop 0008  
                       ??_stop 0006                  __activetblptr 000002                         ?_delay 0001  
            adelante@velocidad 0006                         _ADCON0 000FC2                         _ADCON1 000FC1  
                       _ADCON2 000FC0                         ?_atras 0006                         _CCP1M2 007DEA  
                       _CCP1M3 007DEB                         _ADRESH 000FC4                         _ADRESL 000FC3  
                       _CCPR1L 000FBE                         _CCPR2L 000FBB                         ?_setup 0001  
             _ComunicationInit 25B0                         i2l2210 2568                         i2l2212 2574  
                       i2l2214 2576                         i2l2216 257A                         i2l2208 255A  
             __end_of_adelante 24F6                         _PBRead 226A                         _TMR2ON 007E52  
                       _TRISC6 007CA6                         _TRISC7 007CA7               __end_of___xxtofl 1EEE  
               __CFG_XINST$OFF 000000            __size_of_TMR0Config 0056            __size_of_TMR1Config 0006  
                    ??___fladd 0030                      ??___fldiv 0017                 __CFG_STVREN$ON 000000  
                   _WeaponInit 2610                      ??___fltol 0005  __size_of_configuracionInicial 0030  
                       _estado 004C                         delay@i 0006                         delay@j 0004  
                       _millis 0048                         clear_0 2514                      ??_derecha 0008  
           __size_of_RobotInit 002A          __end_of_TimerOverflow 2586                   __pdataCOMRAM 0050  
                    ??_pinMode 0002                   __mediumconst 0000                         tblptrh 000FF7  
                       tblptrl 000FF6                         tblptru 000FF8            __size_of_USART_Init 0094  
                 ___xxtofl@arg 000B                   ___xxtofl@exp 000A                   ___xxtofl@val 0001  
                   __accesstop 0060        __end_of__initialization 251A                __CFG_PBADEN$OFF 000000  
                ___rparam_used 000001                     ___fltol@f1 0001                    pinMode@mode 0001  
               __pcstackCOMRAM 0001                  __end_of_delay 21D6                  __end_of_atras 24BE  
                __end_of_pines 080B                  __end_of_setup 25F2                  CCPConfig@pwm1 0001  
                      ??_delay 0003                        ??_atras 0008                        ??_setup 0044  
  __size_of_PORTSConfiguration 0014                        ?_PBRead 0001          __size_of_digitalWrite 0220  
                   __pnvCOMRAM 004E                 TMR0Config@mode 0003              __end_of_RobotInit 25B0  
                    PBRead@pin 0003                    ?_WeaponInit 0001                        _T2CKPS0 007E50  
                      _T2CKPS1 007E51                      ?_adelante 0006                   ??_TMR0Config 0001  
                    ?___xxtofl 0001                   ??_TMR1Config 0001             __size_of_izquierda 0038  
                 _digitalWrite 1AF2                __CFG_VREGEN$OFF 000000                __size_of_PBRead 008C  
                    _ADCConfig 2626                   ??_USART_Init 0040                        __Hparam 0000  
                      __Lparam 0000             __end_of_TMR0Config 23D0             __end_of_TMR1Config 2656  
               _SPBRG_Register 004E                        ___fladd 0F2E                        ___fldiv 14B2  
                    _CCPConfig 22F6                        ___fltol 1EEE                 atras@velocidad 0006  
     __end_of_ComunicationInit 25D2                   __psmallconst 0800                        __pcinit 24F6  
                      __ramtop 0800                        _derecha 244E                        __ptext0 25F2  
                      __ptext1 25D2                        __ptext2 2610                        __ptext3 2586  
                      __ptext4 18D2                        __ptext5 25B0                        __ptext6 21D6  
                      __ptext7 1D12                        __ptext8 1EEE                        __ptext9 14B2  
                    _T0CONbits 000FD5                     ??_adelante 0008                      _T1CONbits 000FCD  
               USART_Init@temp 0040                     ??___xxtofl 0005                        _pinMode 18D2  
                   delay@milis 0001             __end_of_USART_Init 226A                 __pintcode_body 2558  
         end_of_initialization 251A            __size_of_WeaponInit 0016                  ??_analogWrite 0003  
                __Lmediumconst 0000                        int_func 2558                     ?_ADCConfig 0001  
            __end_of_izquierda 244E                        postinc0 000FEE                     ?_CCPConfig 0001  
                    _PORTAbits 000F80                      _PORTBbits 000F81                      _PORTCbits 000F82  
                    _PORTDbits 000F83                      _PORTEbits 000F84                    ___fladd@grs 003B  
           izquierda@velocidad 0006                  ___xxtofl@sign 0009                      _TRISAbits 000F92  
                    _TRISBbits 000F93                      _TRISCbits 000F94                      _TRISDbits 000F95  
                    _TRISEbits 000F96                    ___fldiv@grs 0022   __end_of_configuracionInicial 2558  
                  ___fldiv@rem 001B            USART_Init@baud_rate 003C                    _CCP1CONbits 000FBD  
                  _CCP2CONbits 000FBA                 __end_of_PBRead 22F6            __end_of_analogWrite 212E  
                __pidataCOMRAM 2656            start_initialization 24F6                       ??_PBRead 0001  
                  ??_ADCConfig 0001         __size_of_TimerOverflow 257E                      _RobotInit 2586  
                 ??_WeaponInit 0005                    ??_CCPConfig 0007               __CFG_LPT1OSC$OFF 000000  
                    ___fladd@a 002C                      ___fladd@b 0028                      ___fldiv@a 0013  
                    ___fldiv@b 000F                    __pbssCOMRAM 0044              __size_of_adelante 0038  
                   pinMode@pin 0004              __size_of___xxtofl 01DC     __end_of_PORTSConfiguration 2650  
           __end_of_WeaponInit 2626                    _analogWrite 2040                     ?_RobotInit 0001  
                    __pintcode 0008                       ?___fladd 0028                       ?___fldiv 000F  
                     ?___fltol 0001           _configuracionInicial 2528              ?_ComunicationInit 0001  
                     ?_derecha 0006             ??_ComunicationInit 0044                    __smallconst 0800  
                _TimerOverflow 0008                       ?_pinMode 0001                 __size_of_delay 00A8  
               __size_of_atras 0038                 __size_of_setup 0020                       _LATAbits 000F89  
                     _LATBbits 000F8A                       _LATCbits 000F8B                       _LATDbits 000F8C  
                     i2u209_40 2568                       i2u209_41 2564                       _PIR1bits 000F9E  
             __CFG_WDTPS$32768 000000          ?_configuracionInicial 0001                      _izquierda 2416  
                   _ADCON0bits 000FC2                 ?_TimerOverflow 0001                       __Hrparam 0000  
                     __Lrparam 0000                    ??_RobotInit 0005                     ?_izquierda 0006  
             __size_of___fladd 0584               __size_of___fldiv 0420               __size_of___fltol 0152  
             __size_of_derecha 0038                       _adelante 24BE                       ___xxtofl 1D12  
        CCPConfig@TMR2PRESCALE 0005               __size_of_pinMode 0220                       __ptext10 0F2E  
                     __ptext11 080C                       __ptext20 226A                       __ptext12 23D0  
                     __ptext21 2528                       __ptext13 2416                       __ptext22 2650  
                     __ptext14 244E                       __ptext23 237A                       __ptext15 212E  
                     __ptext24 263C                       __ptext16 2486                       __ptext25 22F6  
                     __ptext17 24BE                       __ptext26 2626                       __ptext18 1AF2  
                     __ptext19 2040                  __size_of_main 001E                  __size_of_loop 0722  
                __size_of_stop 0046         ??_configuracionInicial 0009                       int$flags 0052  
              ??_TimerOverflow 0001          __CFG_CPUDIV$OSC3_PLL4 000000                     _INTCONbits 000FF2  
             analogWrite@value 0001                  ?_digitalWrite 0001                       intlevel2 0000  
                 ?_analogWrite 0001             _PORTSConfiguration 263C                    ??_izquierda 0008  
             derecha@velocidad 0006            ?_PORTSConfiguration 0001               digitalWrite@mode 0001  
                   _TMR0Config 237A                     _TMR1Config 2650                 ??_digitalWrite 0002  
               analogWrite@pin 0005                  ___fladd@signs 0038      __size_of_ComunicationInit 0022  
           __CFG_FOSC$HSPLL_HS 000000                digitalWrite@pin 0004           ??_PORTSConfiguration 0001  
                 ___fladd@aexp 0039                   ___fladd@bexp 003A                     _USART_Init 21D6  
